	.file	"0_continuations.cpp"
	.section	.rodata._ZNK5boost12bad_weak_ptr4whatEv.str1.1,"aMS",@progbits,1
.LC0:
	.string	"tr1::bad_weak_ptr"
	.section	.text._ZNK5boost12bad_weak_ptr4whatEv,"axG",@progbits,_ZNK5boost12bad_weak_ptr4whatEv,comdat
	.align 2
	.p2align 4,,15
	.weak	_ZNK5boost12bad_weak_ptr4whatEv
	.type	_ZNK5boost12bad_weak_ptr4whatEv, @function
_ZNK5boost12bad_weak_ptr4whatEv:
.LFB2243:
	.cfi_startproc
	movl	$.LC0, %eax
	ret
	.cfi_endproc
.LFE2243:
	.size	_ZNK5boost12bad_weak_ptr4whatEv, .-_ZNK5boost12bad_weak_ptr4whatEv
	.section	.text._ZN5boost6detail15sp_counted_base7destroyEv,"axG",@progbits,_ZN5boost6detail15sp_counted_base7destroyEv,comdat
	.align 2
	.p2align 4,,15
	.weak	_ZN5boost6detail15sp_counted_base7destroyEv
	.type	_ZN5boost6detail15sp_counted_base7destroyEv, @function
_ZN5boost6detail15sp_counted_base7destroyEv:
.LFB2527:
	.cfi_startproc
	movq	(%rdi), %rax
	jmp	*8(%rax)
	.cfi_endproc
.LFE2527:
	.size	_ZN5boost6detail15sp_counted_base7destroyEv, .-_ZN5boost6detail15sp_counted_base7destroyEv
	.section	.text._ZNK5boost16exception_detail25error_info_container_impl7add_refEv,"axG",@progbits,_ZNK5boost16exception_detail25error_info_container_impl7add_refEv,comdat
	.align 2
	.p2align 4,,15
	.weak	_ZNK5boost16exception_detail25error_info_container_impl7add_refEv
	.type	_ZNK5boost16exception_detail25error_info_container_impl7add_refEv, @function
_ZNK5boost16exception_detail25error_info_container_impl7add_refEv:
.LFB6925:
	.cfi_startproc
	addl	$1, 88(%rdi)
	ret
	.cfi_endproc
.LFE6925:
	.size	_ZNK5boost16exception_detail25error_info_container_impl7add_refEv, .-_ZNK5boost16exception_detail25error_info_container_impl7add_refEv
	.section	.text._ZN5boost6detail17shared_state_base19launch_continuationEv,"axG",@progbits,_ZN5boost6detail17shared_state_base19launch_continuationEv,comdat
	.align 2
	.p2align 4,,15
	.weak	_ZN5boost6detail17shared_state_base19launch_continuationEv
	.type	_ZN5boost6detail17shared_state_base19launch_continuationEv, @function
_ZN5boost6detail17shared_state_base19launch_continuationEv:
.LFB10219:
	.cfi_startproc
	rep ret
	.cfi_endproc
.LFE10219:
	.size	_ZN5boost6detail17shared_state_base19launch_continuationEv, .-_ZN5boost6detail17shared_state_base19launch_continuationEv
	.section	.text._ZN5boost6detail17shared_state_base7executeERNS_11unique_lockINS_5mutexEEE,"axG",@progbits,_ZN5boost6detail17shared_state_base7executeERNS_11unique_lockINS_5mutexEEE,comdat
	.align 2
	.p2align 4,,15
	.weak	_ZN5boost6detail17shared_state_base7executeERNS_11unique_lockINS_5mutexEEE
	.type	_ZN5boost6detail17shared_state_base7executeERNS_11unique_lockINS_5mutexEEE, @function
_ZN5boost6detail17shared_state_base7executeERNS_11unique_lockINS_5mutexEEE:
.LFB10280:
	.cfi_startproc
	rep ret
	.cfi_endproc
.LFE10280:
	.size	_ZN5boost6detail17shared_state_base7executeERNS_11unique_lockINS_5mutexEEE, .-_ZN5boost6detail17shared_state_base7executeERNS_11unique_lockINS_5mutexEEE
	.section	.text._ZNK5boost10shared_ptrIKNS_16exception_detail10clone_baseEE3getEv,"axG",@progbits,_ZNK5boost10shared_ptrIKNS_16exception_detail10clone_baseEE3getEv,comdat
	.align 2
	.p2align 4,,15
	.weak	_ZNK5boost10shared_ptrIKNS_16exception_detail10clone_baseEE3getEv
	.type	_ZNK5boost10shared_ptrIKNS_16exception_detail10clone_baseEE3getEv, @function
_ZNK5boost10shared_ptrIKNS_16exception_detail10clone_baseEE3getEv:
.LFB11212:
	.cfi_startproc
	movq	(%rdi), %rax
	ret
	.cfi_endproc
.LFE11212:
	.size	_ZNK5boost10shared_ptrIKNS_16exception_detail10clone_baseEE3getEv, .-_ZNK5boost10shared_ptrIKNS_16exception_detail10clone_baseEE3getEv
	.section	.text._ZN5boost10error_infoINS_27tag_original_exception_typeEPKSt9type_infoED2Ev,"axG",@progbits,_ZN5boost10error_infoINS_27tag_original_exception_typeEPKSt9type_infoED5Ev,comdat
	.align 2
	.p2align 4,,15
	.weak	_ZN5boost10error_infoINS_27tag_original_exception_typeEPKSt9type_infoED2Ev
	.type	_ZN5boost10error_infoINS_27tag_original_exception_typeEPKSt9type_infoED2Ev, @function
_ZN5boost10error_infoINS_27tag_original_exception_typeEPKSt9type_infoED2Ev:
.LFB11889:
	.cfi_startproc
	rep ret
	.cfi_endproc
.LFE11889:
	.size	_ZN5boost10error_infoINS_27tag_original_exception_typeEPKSt9type_infoED2Ev, .-_ZN5boost10error_infoINS_27tag_original_exception_typeEPKSt9type_infoED2Ev
	.weak	_ZN5boost10error_infoINS_27tag_original_exception_typeEPKSt9type_infoED1Ev
	.set	_ZN5boost10error_infoINS_27tag_original_exception_typeEPKSt9type_infoED1Ev,_ZN5boost10error_infoINS_27tag_original_exception_typeEPKSt9type_infoED2Ev
	.section	.text._ZN5boost9function0IvE5dummy7nonnullEv,"axG",@progbits,_ZN5boost9function0IvE5dummy7nonnullEv,comdat
	.align 2
	.p2align 4,,15
	.weak	_ZN5boost9function0IvE5dummy7nonnullEv
	.type	_ZN5boost9function0IvE5dummy7nonnullEv, @function
_ZN5boost9function0IvE5dummy7nonnullEv:
.LFB12218:
	.cfi_startproc
	rep ret
	.cfi_endproc
.LFE12218:
	.size	_ZN5boost9function0IvE5dummy7nonnullEv, .-_ZN5boost9function0IvE5dummy7nonnullEv
	.section	.text._ZN5boost6detail17sp_counted_impl_pINS0_11thread_dataINS_13packaged_taskIiEEEEED2Ev,"axG",@progbits,_ZN5boost6detail17sp_counted_impl_pINS0_11thread_dataINS_13packaged_taskIiEEEEED5Ev,comdat
	.align 2
	.p2align 4,,15
	.weak	_ZN5boost6detail17sp_counted_impl_pINS0_11thread_dataINS_13packaged_taskIiEEEEED2Ev
	.type	_ZN5boost6detail17sp_counted_impl_pINS0_11thread_dataINS_13packaged_taskIiEEEEED2Ev, @function
_ZN5boost6detail17sp_counted_impl_pINS0_11thread_dataINS_13packaged_taskIiEEEEED2Ev:
.LFB13850:
	.cfi_startproc
	rep ret
	.cfi_endproc
.LFE13850:
	.size	_ZN5boost6detail17sp_counted_impl_pINS0_11thread_dataINS_13packaged_taskIiEEEEED2Ev, .-_ZN5boost6detail17sp_counted_impl_pINS0_11thread_dataINS_13packaged_taskIiEEEEED2Ev
	.weak	_ZN5boost6detail17sp_counted_impl_pINS0_11thread_dataINS_13packaged_taskIiEEEEED1Ev
	.set	_ZN5boost6detail17sp_counted_impl_pINS0_11thread_dataINS_13packaged_taskIiEEEEED1Ev,_ZN5boost6detail17sp_counted_impl_pINS0_11thread_dataINS_13packaged_taskIiEEEEED2Ev
	.section	.text._ZN5boost6detail17sp_counted_impl_pINS_10error_infoINS_27tag_original_exception_typeEPKSt9type_infoEEED2Ev,"axG",@progbits,_ZN5boost6detail17sp_counted_impl_pINS_10error_infoINS_27tag_original_exception_typeEPKSt9type_infoEEED5Ev,comdat
	.align 2
	.p2align 4,,15
	.weak	_ZN5boost6detail17sp_counted_impl_pINS_10error_infoINS_27tag_original_exception_typeEPKSt9type_infoEEED2Ev
	.type	_ZN5boost6detail17sp_counted_impl_pINS_10error_infoINS_27tag_original_exception_typeEPKSt9type_infoEEED2Ev, @function
_ZN5boost6detail17sp_counted_impl_pINS_10error_infoINS_27tag_original_exception_typeEPKSt9type_infoEEED2Ev:
.LFB13854:
	.cfi_startproc
	rep ret
	.cfi_endproc
.LFE13854:
	.size	_ZN5boost6detail17sp_counted_impl_pINS_10error_infoINS_27tag_original_exception_typeEPKSt9type_infoEEED2Ev, .-_ZN5boost6detail17sp_counted_impl_pINS_10error_infoINS_27tag_original_exception_typeEPKSt9type_infoEEED2Ev
	.weak	_ZN5boost6detail17sp_counted_impl_pINS_10error_infoINS_27tag_original_exception_typeEPKSt9type_infoEEED1Ev
	.set	_ZN5boost6detail17sp_counted_impl_pINS_10error_infoINS_27tag_original_exception_typeEPKSt9type_infoEEED1Ev,_ZN5boost6detail17sp_counted_impl_pINS_10error_infoINS_27tag_original_exception_typeEPKSt9type_infoEEED2Ev
	.text
	.align 2
	.p2align 4,,15
	.type	_ZN5boost6detail17sp_counted_impl_pINS0_17task_shared_stateIZ4mainEUlvE_iEEED2Ev, @function
_ZN5boost6detail17sp_counted_impl_pINS0_17task_shared_stateIZ4mainEUlvE_iEEED2Ev:
.LFB13858:
	.cfi_startproc
	rep ret
	.cfi_endproc
.LFE13858:
	.size	_ZN5boost6detail17sp_counted_impl_pINS0_17task_shared_stateIZ4mainEUlvE_iEEED2Ev, .-_ZN5boost6detail17sp_counted_impl_pINS0_17task_shared_stateIZ4mainEUlvE_iEEED2Ev
	.set	_ZN5boost6detail17sp_counted_impl_pINS0_17task_shared_stateIZ4mainEUlvE_iEEED1Ev,_ZN5boost6detail17sp_counted_impl_pINS0_17task_shared_stateIZ4mainEUlvE_iEEED2Ev
	.section	.text._ZN5boost6detail17sp_counted_impl_pINS_16exception_detail10clone_implINS2_14bad_exception_EEEED2Ev,"axG",@progbits,_ZN5boost6detail17sp_counted_impl_pINS_16exception_detail10clone_implINS2_14bad_exception_EEEED5Ev,comdat
	.align 2
	.p2align 4,,15
	.weak	_ZN5boost6detail17sp_counted_impl_pINS_16exception_detail10clone_implINS2_14bad_exception_EEEED2Ev
	.type	_ZN5boost6detail17sp_counted_impl_pINS_16exception_detail10clone_implINS2_14bad_exception_EEEED2Ev, @function
_ZN5boost6detail17sp_counted_impl_pINS_16exception_detail10clone_implINS2_14bad_exception_EEEED2Ev:
.LFB13866:
	.cfi_startproc
	rep ret
	.cfi_endproc
.LFE13866:
	.size	_ZN5boost6detail17sp_counted_impl_pINS_16exception_detail10clone_implINS2_14bad_exception_EEEED2Ev, .-_ZN5boost6detail17sp_counted_impl_pINS_16exception_detail10clone_implINS2_14bad_exception_EEEED2Ev
	.weak	_ZN5boost6detail17sp_counted_impl_pINS_16exception_detail10clone_implINS2_14bad_exception_EEEED1Ev
	.set	_ZN5boost6detail17sp_counted_impl_pINS_16exception_detail10clone_implINS2_14bad_exception_EEEED1Ev,_ZN5boost6detail17sp_counted_impl_pINS_16exception_detail10clone_implINS2_14bad_exception_EEEED2Ev
	.section	.text._ZN5boost6detail17sp_counted_impl_pINS_16exception_detail10clone_implINS2_10bad_alloc_EEEED2Ev,"axG",@progbits,_ZN5boost6detail17sp_counted_impl_pINS_16exception_detail10clone_implINS2_10bad_alloc_EEEED5Ev,comdat
	.align 2
	.p2align 4,,15
	.weak	_ZN5boost6detail17sp_counted_impl_pINS_16exception_detail10clone_implINS2_10bad_alloc_EEEED2Ev
	.type	_ZN5boost6detail17sp_counted_impl_pINS_16exception_detail10clone_implINS2_10bad_alloc_EEEED2Ev, @function
_ZN5boost6detail17sp_counted_impl_pINS_16exception_detail10clone_implINS2_10bad_alloc_EEEED2Ev:
.LFB13870:
	.cfi_startproc
	rep ret
	.cfi_endproc
.LFE13870:
	.size	_ZN5boost6detail17sp_counted_impl_pINS_16exception_detail10clone_implINS2_10bad_alloc_EEEED2Ev, .-_ZN5boost6detail17sp_counted_impl_pINS_16exception_detail10clone_implINS2_10bad_alloc_EEEED2Ev
	.weak	_ZN5boost6detail17sp_counted_impl_pINS_16exception_detail10clone_implINS2_10bad_alloc_EEEED1Ev
	.set	_ZN5boost6detail17sp_counted_impl_pINS_16exception_detail10clone_implINS2_10bad_alloc_EEEED1Ev,_ZN5boost6detail17sp_counted_impl_pINS_16exception_detail10clone_implINS2_10bad_alloc_EEEED2Ev
	.section	.text._ZN5boost6detail17sp_counted_impl_pIKNS_16exception_detail10clone_baseEED2Ev,"axG",@progbits,_ZN5boost6detail17sp_counted_impl_pIKNS_16exception_detail10clone_baseEED5Ev,comdat
	.align 2
	.p2align 4,,15
	.weak	_ZN5boost6detail17sp_counted_impl_pIKNS_16exception_detail10clone_baseEED2Ev
	.type	_ZN5boost6detail17sp_counted_impl_pIKNS_16exception_detail10clone_baseEED2Ev, @function
_ZN5boost6detail17sp_counted_impl_pIKNS_16exception_detail10clone_baseEED2Ev:
.LFB13882:
	.cfi_startproc
	rep ret
	.cfi_endproc
.LFE13882:
	.size	_ZN5boost6detail17sp_counted_impl_pIKNS_16exception_detail10clone_baseEED2Ev, .-_ZN5boost6detail17sp_counted_impl_pIKNS_16exception_detail10clone_baseEED2Ev
	.weak	_ZN5boost6detail17sp_counted_impl_pIKNS_16exception_detail10clone_baseEED1Ev
	.set	_ZN5boost6detail17sp_counted_impl_pIKNS_16exception_detail10clone_baseEED1Ev,_ZN5boost6detail17sp_counted_impl_pIKNS_16exception_detail10clone_baseEED2Ev
	.section	.text._ZN5boost6detail17sp_counted_impl_pINS0_11thread_dataINS_13packaged_taskIiEEEEE7disposeEv,"axG",@progbits,_ZN5boost6detail17sp_counted_impl_pINS0_11thread_dataINS_13packaged_taskIiEEEEE7disposeEv,comdat
	.align 2
	.p2align 4,,15
	.weak	_ZN5boost6detail17sp_counted_impl_pINS0_11thread_dataINS_13packaged_taskIiEEEEE7disposeEv
	.type	_ZN5boost6detail17sp_counted_impl_pINS0_11thread_dataINS_13packaged_taskIiEEEEE7disposeEv, @function
_ZN5boost6detail17sp_counted_impl_pINS0_11thread_dataINS_13packaged_taskIiEEEEE7disposeEv:
.LFB13930:
	.cfi_startproc
	movq	16(%rdi), %rdi
	testq	%rdi, %rdi
	je	.L16
	movq	(%rdi), %rax
	jmp	*8(%rax)
	.p2align 4,,10
	.p2align 3
.L16:
	rep ret
	.cfi_endproc
.LFE13930:
	.size	_ZN5boost6detail17sp_counted_impl_pINS0_11thread_dataINS_13packaged_taskIiEEEEE7disposeEv, .-_ZN5boost6detail17sp_counted_impl_pINS0_11thread_dataINS_13packaged_taskIiEEEEE7disposeEv
	.section	.text._ZN5boost6detail17sp_counted_impl_pINS0_11thread_dataINS_13packaged_taskIiEEEEE11get_deleterERKSt9type_info,"axG",@progbits,_ZN5boost6detail17sp_counted_impl_pINS0_11thread_dataINS_13packaged_taskIiEEEEE11get_deleterERKSt9type_info,comdat
	.align 2
	.p2align 4,,15
	.weak	_ZN5boost6detail17sp_counted_impl_pINS0_11thread_dataINS_13packaged_taskIiEEEEE11get_deleterERKSt9type_info
	.type	_ZN5boost6detail17sp_counted_impl_pINS0_11thread_dataINS_13packaged_taskIiEEEEE11get_deleterERKSt9type_info, @function
_ZN5boost6detail17sp_counted_impl_pINS0_11thread_dataINS_13packaged_taskIiEEEEE11get_deleterERKSt9type_info:
.LFB13931:
	.cfi_startproc
	xorl	%eax, %eax
	ret
	.cfi_endproc
.LFE13931:
	.size	_ZN5boost6detail17sp_counted_impl_pINS0_11thread_dataINS_13packaged_taskIiEEEEE11get_deleterERKSt9type_info, .-_ZN5boost6detail17sp_counted_impl_pINS0_11thread_dataINS_13packaged_taskIiEEEEE11get_deleterERKSt9type_info
	.section	.text._ZN5boost6detail17sp_counted_impl_pINS0_11thread_dataINS_13packaged_taskIiEEEEE19get_untyped_deleterEv,"axG",@progbits,_ZN5boost6detail17sp_counted_impl_pINS0_11thread_dataINS_13packaged_taskIiEEEEE19get_untyped_deleterEv,comdat
	.align 2
	.p2align 4,,15
	.weak	_ZN5boost6detail17sp_counted_impl_pINS0_11thread_dataINS_13packaged_taskIiEEEEE19get_untyped_deleterEv
	.type	_ZN5boost6detail17sp_counted_impl_pINS0_11thread_dataINS_13packaged_taskIiEEEEE19get_untyped_deleterEv, @function
_ZN5boost6detail17sp_counted_impl_pINS0_11thread_dataINS_13packaged_taskIiEEEEE19get_untyped_deleterEv:
.LFB13932:
	.cfi_startproc
	xorl	%eax, %eax
	ret
	.cfi_endproc
.LFE13932:
	.size	_ZN5boost6detail17sp_counted_impl_pINS0_11thread_dataINS_13packaged_taskIiEEEEE19get_untyped_deleterEv, .-_ZN5boost6detail17sp_counted_impl_pINS0_11thread_dataINS_13packaged_taskIiEEEEE19get_untyped_deleterEv
	.section	.text._ZN5boost6detail17sp_counted_impl_pINS_10error_infoINS_27tag_original_exception_typeEPKSt9type_infoEEE11get_deleterERS5_,"axG",@progbits,_ZN5boost6detail17sp_counted_impl_pINS_10error_infoINS_27tag_original_exception_typeEPKSt9type_infoEEE11get_deleterERS5_,comdat
	.align 2
	.p2align 4,,15
	.weak	_ZN5boost6detail17sp_counted_impl_pINS_10error_infoINS_27tag_original_exception_typeEPKSt9type_infoEEE11get_deleterERS5_
	.type	_ZN5boost6detail17sp_counted_impl_pINS_10error_infoINS_27tag_original_exception_typeEPKSt9type_infoEEE11get_deleterERS5_, @function
_ZN5boost6detail17sp_counted_impl_pINS_10error_infoINS_27tag_original_exception_typeEPKSt9type_infoEEE11get_deleterERS5_:
.LFB13934:
	.cfi_startproc
	xorl	%eax, %eax
	ret
	.cfi_endproc
.LFE13934:
	.size	_ZN5boost6detail17sp_counted_impl_pINS_10error_infoINS_27tag_original_exception_typeEPKSt9type_infoEEE11get_deleterERS5_, .-_ZN5boost6detail17sp_counted_impl_pINS_10error_infoINS_27tag_original_exception_typeEPKSt9type_infoEEE11get_deleterERS5_
	.section	.text._ZN5boost6detail17sp_counted_impl_pINS_10error_infoINS_27tag_original_exception_typeEPKSt9type_infoEEE19get_untyped_deleterEv,"axG",@progbits,_ZN5boost6detail17sp_counted_impl_pINS_10error_infoINS_27tag_original_exception_typeEPKSt9type_infoEEE19get_untyped_deleterEv,comdat
	.align 2
	.p2align 4,,15
	.weak	_ZN5boost6detail17sp_counted_impl_pINS_10error_infoINS_27tag_original_exception_typeEPKSt9type_infoEEE19get_untyped_deleterEv
	.type	_ZN5boost6detail17sp_counted_impl_pINS_10error_infoINS_27tag_original_exception_typeEPKSt9type_infoEEE19get_untyped_deleterEv, @function
_ZN5boost6detail17sp_counted_impl_pINS_10error_infoINS_27tag_original_exception_typeEPKSt9type_infoEEE19get_untyped_deleterEv:
.LFB13935:
	.cfi_startproc
	xorl	%eax, %eax
	ret
	.cfi_endproc
.LFE13935:
	.size	_ZN5boost6detail17sp_counted_impl_pINS_10error_infoINS_27tag_original_exception_typeEPKSt9type_infoEEE19get_untyped_deleterEv, .-_ZN5boost6detail17sp_counted_impl_pINS_10error_infoINS_27tag_original_exception_typeEPKSt9type_infoEEE19get_untyped_deleterEv
	.text
	.align 2
	.p2align 4,,15
	.type	_ZN5boost6detail17sp_counted_impl_pINS0_17task_shared_stateIZ4mainEUlvE_iEEE11get_deleterERKSt9type_info, @function
_ZN5boost6detail17sp_counted_impl_pINS0_17task_shared_stateIZ4mainEUlvE_iEEE11get_deleterERKSt9type_info:
.LFB13937:
	.cfi_startproc
	xorl	%eax, %eax
	ret
	.cfi_endproc
.LFE13937:
	.size	_ZN5boost6detail17sp_counted_impl_pINS0_17task_shared_stateIZ4mainEUlvE_iEEE11get_deleterERKSt9type_info, .-_ZN5boost6detail17sp_counted_impl_pINS0_17task_shared_stateIZ4mainEUlvE_iEEE11get_deleterERKSt9type_info
	.align 2
	.p2align 4,,15
	.type	_ZN5boost6detail17sp_counted_impl_pINS0_17task_shared_stateIZ4mainEUlvE_iEEE19get_untyped_deleterEv, @function
_ZN5boost6detail17sp_counted_impl_pINS0_17task_shared_stateIZ4mainEUlvE_iEEE19get_untyped_deleterEv:
.LFB13938:
	.cfi_startproc
	xorl	%eax, %eax
	ret
	.cfi_endproc
.LFE13938:
	.size	_ZN5boost6detail17sp_counted_impl_pINS0_17task_shared_stateIZ4mainEUlvE_iEEE19get_untyped_deleterEv, .-_ZN5boost6detail17sp_counted_impl_pINS0_17task_shared_stateIZ4mainEUlvE_iEEE19get_untyped_deleterEv
	.section	.text._ZN5boost6detail17sp_counted_impl_pINS_16exception_detail10clone_implINS2_14bad_exception_EEEE11get_deleterERKSt9type_info,"axG",@progbits,_ZN5boost6detail17sp_counted_impl_pINS_16exception_detail10clone_implINS2_14bad_exception_EEEE11get_deleterERKSt9type_info,comdat
	.align 2
	.p2align 4,,15
	.weak	_ZN5boost6detail17sp_counted_impl_pINS_16exception_detail10clone_implINS2_14bad_exception_EEEE11get_deleterERKSt9type_info
	.type	_ZN5boost6detail17sp_counted_impl_pINS_16exception_detail10clone_implINS2_14bad_exception_EEEE11get_deleterERKSt9type_info, @function
_ZN5boost6detail17sp_counted_impl_pINS_16exception_detail10clone_implINS2_14bad_exception_EEEE11get_deleterERKSt9type_info:
.LFB13949:
	.cfi_startproc
	xorl	%eax, %eax
	ret
	.cfi_endproc
.LFE13949:
	.size	_ZN5boost6detail17sp_counted_impl_pINS_16exception_detail10clone_implINS2_14bad_exception_EEEE11get_deleterERKSt9type_info, .-_ZN5boost6detail17sp_counted_impl_pINS_16exception_detail10clone_implINS2_14bad_exception_EEEE11get_deleterERKSt9type_info
	.section	.text._ZN5boost6detail17sp_counted_impl_pINS_16exception_detail10clone_implINS2_14bad_exception_EEEE19get_untyped_deleterEv,"axG",@progbits,_ZN5boost6detail17sp_counted_impl_pINS_16exception_detail10clone_implINS2_14bad_exception_EEEE19get_untyped_deleterEv,comdat
	.align 2
	.p2align 4,,15
	.weak	_ZN5boost6detail17sp_counted_impl_pINS_16exception_detail10clone_implINS2_14bad_exception_EEEE19get_untyped_deleterEv
	.type	_ZN5boost6detail17sp_counted_impl_pINS_16exception_detail10clone_implINS2_14bad_exception_EEEE19get_untyped_deleterEv, @function
_ZN5boost6detail17sp_counted_impl_pINS_16exception_detail10clone_implINS2_14bad_exception_EEEE19get_untyped_deleterEv:
.LFB13950:
	.cfi_startproc
	xorl	%eax, %eax
	ret
	.cfi_endproc
.LFE13950:
	.size	_ZN5boost6detail17sp_counted_impl_pINS_16exception_detail10clone_implINS2_14bad_exception_EEEE19get_untyped_deleterEv, .-_ZN5boost6detail17sp_counted_impl_pINS_16exception_detail10clone_implINS2_14bad_exception_EEEE19get_untyped_deleterEv
	.section	.text._ZN5boost6detail17sp_counted_impl_pINS_16exception_detail10clone_implINS2_10bad_alloc_EEEE11get_deleterERKSt9type_info,"axG",@progbits,_ZN5boost6detail17sp_counted_impl_pINS_16exception_detail10clone_implINS2_10bad_alloc_EEEE11get_deleterERKSt9type_info,comdat
	.align 2
	.p2align 4,,15
	.weak	_ZN5boost6detail17sp_counted_impl_pINS_16exception_detail10clone_implINS2_10bad_alloc_EEEE11get_deleterERKSt9type_info
	.type	_ZN5boost6detail17sp_counted_impl_pINS_16exception_detail10clone_implINS2_10bad_alloc_EEEE11get_deleterERKSt9type_info, @function
_ZN5boost6detail17sp_counted_impl_pINS_16exception_detail10clone_implINS2_10bad_alloc_EEEE11get_deleterERKSt9type_info:
.LFB13952:
	.cfi_startproc
	xorl	%eax, %eax
	ret
	.cfi_endproc
.LFE13952:
	.size	_ZN5boost6detail17sp_counted_impl_pINS_16exception_detail10clone_implINS2_10bad_alloc_EEEE11get_deleterERKSt9type_info, .-_ZN5boost6detail17sp_counted_impl_pINS_16exception_detail10clone_implINS2_10bad_alloc_EEEE11get_deleterERKSt9type_info
	.section	.text._ZN5boost6detail17sp_counted_impl_pINS_16exception_detail10clone_implINS2_10bad_alloc_EEEE19get_untyped_deleterEv,"axG",@progbits,_ZN5boost6detail17sp_counted_impl_pINS_16exception_detail10clone_implINS2_10bad_alloc_EEEE19get_untyped_deleterEv,comdat
	.align 2
	.p2align 4,,15
	.weak	_ZN5boost6detail17sp_counted_impl_pINS_16exception_detail10clone_implINS2_10bad_alloc_EEEE19get_untyped_deleterEv
	.type	_ZN5boost6detail17sp_counted_impl_pINS_16exception_detail10clone_implINS2_10bad_alloc_EEEE19get_untyped_deleterEv, @function
_ZN5boost6detail17sp_counted_impl_pINS_16exception_detail10clone_implINS2_10bad_alloc_EEEE19get_untyped_deleterEv:
.LFB13953:
	.cfi_startproc
	xorl	%eax, %eax
	ret
	.cfi_endproc
.LFE13953:
	.size	_ZN5boost6detail17sp_counted_impl_pINS_16exception_detail10clone_implINS2_10bad_alloc_EEEE19get_untyped_deleterEv, .-_ZN5boost6detail17sp_counted_impl_pINS_16exception_detail10clone_implINS2_10bad_alloc_EEEE19get_untyped_deleterEv
	.section	.text._ZN5boost6detail17sp_counted_impl_pIKNS_16exception_detail10clone_baseEE7disposeEv,"axG",@progbits,_ZN5boost6detail17sp_counted_impl_pIKNS_16exception_detail10clone_baseEE7disposeEv,comdat
	.align 2
	.p2align 4,,15
	.weak	_ZN5boost6detail17sp_counted_impl_pIKNS_16exception_detail10clone_baseEE7disposeEv
	.type	_ZN5boost6detail17sp_counted_impl_pIKNS_16exception_detail10clone_baseEE7disposeEv, @function
_ZN5boost6detail17sp_counted_impl_pIKNS_16exception_detail10clone_baseEE7disposeEv:
.LFB13983:
	.cfi_startproc
	movq	16(%rdi), %rdi
	testq	%rdi, %rdi
	je	.L28
	movq	(%rdi), %rax
	jmp	*24(%rax)
	.p2align 4,,10
	.p2align 3
.L28:
	rep ret
	.cfi_endproc
.LFE13983:
	.size	_ZN5boost6detail17sp_counted_impl_pIKNS_16exception_detail10clone_baseEE7disposeEv, .-_ZN5boost6detail17sp_counted_impl_pIKNS_16exception_detail10clone_baseEE7disposeEv
	.section	.text._ZN5boost6detail17sp_counted_impl_pIKNS_16exception_detail10clone_baseEE11get_deleterERKSt9type_info,"axG",@progbits,_ZN5boost6detail17sp_counted_impl_pIKNS_16exception_detail10clone_baseEE11get_deleterERKSt9type_info,comdat
	.align 2
	.p2align 4,,15
	.weak	_ZN5boost6detail17sp_counted_impl_pIKNS_16exception_detail10clone_baseEE11get_deleterERKSt9type_info
	.type	_ZN5boost6detail17sp_counted_impl_pIKNS_16exception_detail10clone_baseEE11get_deleterERKSt9type_info, @function
_ZN5boost6detail17sp_counted_impl_pIKNS_16exception_detail10clone_baseEE11get_deleterERKSt9type_info:
.LFB13984:
	.cfi_startproc
	xorl	%eax, %eax
	ret
	.cfi_endproc
.LFE13984:
	.size	_ZN5boost6detail17sp_counted_impl_pIKNS_16exception_detail10clone_baseEE11get_deleterERKSt9type_info, .-_ZN5boost6detail17sp_counted_impl_pIKNS_16exception_detail10clone_baseEE11get_deleterERKSt9type_info
	.section	.text._ZN5boost6detail17sp_counted_impl_pIKNS_16exception_detail10clone_baseEE19get_untyped_deleterEv,"axG",@progbits,_ZN5boost6detail17sp_counted_impl_pIKNS_16exception_detail10clone_baseEE19get_untyped_deleterEv,comdat
	.align 2
	.p2align 4,,15
	.weak	_ZN5boost6detail17sp_counted_impl_pIKNS_16exception_detail10clone_baseEE19get_untyped_deleterEv
	.type	_ZN5boost6detail17sp_counted_impl_pIKNS_16exception_detail10clone_baseEE19get_untyped_deleterEv, @function
_ZN5boost6detail17sp_counted_impl_pIKNS_16exception_detail10clone_baseEE19get_untyped_deleterEv:
.LFB13985:
	.cfi_startproc
	xorl	%eax, %eax
	ret
	.cfi_endproc
.LFE13985:
	.size	_ZN5boost6detail17sp_counted_impl_pIKNS_16exception_detail10clone_baseEE19get_untyped_deleterEv, .-_ZN5boost6detail17sp_counted_impl_pIKNS_16exception_detail10clone_baseEE19get_untyped_deleterEv
	.section	.text._ZN5boost6detail17sp_counted_impl_pINS0_11thread_dataINS_13packaged_taskIiEEEEED0Ev,"axG",@progbits,_ZN5boost6detail17sp_counted_impl_pINS0_11thread_dataINS_13packaged_taskIiEEEEED5Ev,comdat
	.align 2
	.p2align 4,,15
	.weak	_ZN5boost6detail17sp_counted_impl_pINS0_11thread_dataINS_13packaged_taskIiEEEEED0Ev
	.type	_ZN5boost6detail17sp_counted_impl_pINS0_11thread_dataINS_13packaged_taskIiEEEEED0Ev, @function
_ZN5boost6detail17sp_counted_impl_pINS0_11thread_dataINS_13packaged_taskIiEEEEED0Ev:
.LFB13852:
	.cfi_startproc
	movl	$24, %esi
	jmp	_ZdlPvm
	.cfi_endproc
.LFE13852:
	.size	_ZN5boost6detail17sp_counted_impl_pINS0_11thread_dataINS_13packaged_taskIiEEEEED0Ev, .-_ZN5boost6detail17sp_counted_impl_pINS0_11thread_dataINS_13packaged_taskIiEEEEED0Ev
	.section	.text._ZN5boost6detail17sp_counted_impl_pINS_10error_infoINS_27tag_original_exception_typeEPKSt9type_infoEEED0Ev,"axG",@progbits,_ZN5boost6detail17sp_counted_impl_pINS_10error_infoINS_27tag_original_exception_typeEPKSt9type_infoEEED5Ev,comdat
	.align 2
	.p2align 4,,15
	.weak	_ZN5boost6detail17sp_counted_impl_pINS_10error_infoINS_27tag_original_exception_typeEPKSt9type_infoEEED0Ev
	.type	_ZN5boost6detail17sp_counted_impl_pINS_10error_infoINS_27tag_original_exception_typeEPKSt9type_infoEEED0Ev, @function
_ZN5boost6detail17sp_counted_impl_pINS_10error_infoINS_27tag_original_exception_typeEPKSt9type_infoEEED0Ev:
.LFB13856:
	.cfi_startproc
	movl	$24, %esi
	jmp	_ZdlPvm
	.cfi_endproc
.LFE13856:
	.size	_ZN5boost6detail17sp_counted_impl_pINS_10error_infoINS_27tag_original_exception_typeEPKSt9type_infoEEED0Ev, .-_ZN5boost6detail17sp_counted_impl_pINS_10error_infoINS_27tag_original_exception_typeEPKSt9type_infoEEED0Ev
	.section	.text._ZN5boost6detail17sp_counted_impl_pINS_16exception_detail10clone_implINS2_14bad_exception_EEEED0Ev,"axG",@progbits,_ZN5boost6detail17sp_counted_impl_pINS_16exception_detail10clone_implINS2_14bad_exception_EEEED5Ev,comdat
	.align 2
	.p2align 4,,15
	.weak	_ZN5boost6detail17sp_counted_impl_pINS_16exception_detail10clone_implINS2_14bad_exception_EEEED0Ev
	.type	_ZN5boost6detail17sp_counted_impl_pINS_16exception_detail10clone_implINS2_14bad_exception_EEEED0Ev, @function
_ZN5boost6detail17sp_counted_impl_pINS_16exception_detail10clone_implINS2_14bad_exception_EEEED0Ev:
.LFB13868:
	.cfi_startproc
	movl	$24, %esi
	jmp	_ZdlPvm
	.cfi_endproc
.LFE13868:
	.size	_ZN5boost6detail17sp_counted_impl_pINS_16exception_detail10clone_implINS2_14bad_exception_EEEED0Ev, .-_ZN5boost6detail17sp_counted_impl_pINS_16exception_detail10clone_implINS2_14bad_exception_EEEED0Ev
	.section	.text._ZN5boost6detail17sp_counted_impl_pINS_16exception_detail10clone_implINS2_10bad_alloc_EEEED0Ev,"axG",@progbits,_ZN5boost6detail17sp_counted_impl_pINS_16exception_detail10clone_implINS2_10bad_alloc_EEEED5Ev,comdat
	.align 2
	.p2align 4,,15
	.weak	_ZN5boost6detail17sp_counted_impl_pINS_16exception_detail10clone_implINS2_10bad_alloc_EEEED0Ev
	.type	_ZN5boost6detail17sp_counted_impl_pINS_16exception_detail10clone_implINS2_10bad_alloc_EEEED0Ev, @function
_ZN5boost6detail17sp_counted_impl_pINS_16exception_detail10clone_implINS2_10bad_alloc_EEEED0Ev:
.LFB13872:
	.cfi_startproc
	movl	$24, %esi
	jmp	_ZdlPvm
	.cfi_endproc
.LFE13872:
	.size	_ZN5boost6detail17sp_counted_impl_pINS_16exception_detail10clone_implINS2_10bad_alloc_EEEED0Ev, .-_ZN5boost6detail17sp_counted_impl_pINS_16exception_detail10clone_implINS2_10bad_alloc_EEEED0Ev
	.section	.text._ZN5boost6detail17sp_counted_impl_pIKNS_16exception_detail10clone_baseEED0Ev,"axG",@progbits,_ZN5boost6detail17sp_counted_impl_pIKNS_16exception_detail10clone_baseEED5Ev,comdat
	.align 2
	.p2align 4,,15
	.weak	_ZN5boost6detail17sp_counted_impl_pIKNS_16exception_detail10clone_baseEED0Ev
	.type	_ZN5boost6detail17sp_counted_impl_pIKNS_16exception_detail10clone_baseEED0Ev, @function
_ZN5boost6detail17sp_counted_impl_pIKNS_16exception_detail10clone_baseEED0Ev:
.LFB13884:
	.cfi_startproc
	movl	$24, %esi
	jmp	_ZdlPvm
	.cfi_endproc
.LFE13884:
	.size	_ZN5boost6detail17sp_counted_impl_pIKNS_16exception_detail10clone_baseEED0Ev, .-_ZN5boost6detail17sp_counted_impl_pIKNS_16exception_detail10clone_baseEED0Ev
	.text
	.align 2
	.p2align 4,,15
	.type	_ZN5boost6detail17sp_counted_impl_pINS0_17task_shared_stateIZ4mainEUlvE_iEEED0Ev, @function
_ZN5boost6detail17sp_counted_impl_pINS0_17task_shared_stateIZ4mainEUlvE_iEEED0Ev:
.LFB13860:
	.cfi_startproc
	movl	$24, %esi
	jmp	_ZdlPvm
	.cfi_endproc
.LFE13860:
	.size	_ZN5boost6detail17sp_counted_impl_pINS0_17task_shared_stateIZ4mainEUlvE_iEEED0Ev, .-_ZN5boost6detail17sp_counted_impl_pINS0_17task_shared_stateIZ4mainEUlvE_iEEED0Ev
	.section	.text._ZN5boost10error_infoINS_27tag_original_exception_typeEPKSt9type_infoED0Ev,"axG",@progbits,_ZN5boost10error_infoINS_27tag_original_exception_typeEPKSt9type_infoED5Ev,comdat
	.align 2
	.p2align 4,,15
	.weak	_ZN5boost10error_infoINS_27tag_original_exception_typeEPKSt9type_infoED0Ev
	.type	_ZN5boost10error_infoINS_27tag_original_exception_typeEPKSt9type_infoED0Ev, @function
_ZN5boost10error_infoINS_27tag_original_exception_typeEPKSt9type_infoED0Ev:
.LFB11891:
	.cfi_startproc
	movl	$16, %esi
	jmp	_ZdlPvm
	.cfi_endproc
.LFE11891:
	.size	_ZN5boost10error_infoINS_27tag_original_exception_typeEPKSt9type_infoED0Ev, .-_ZN5boost10error_infoINS_27tag_original_exception_typeEPKSt9type_infoED0Ev
	.section	.text._ZN5boost17bad_function_callD2Ev,"axG",@progbits,_ZN5boost17bad_function_callD5Ev,comdat
	.align 2
	.p2align 4,,15
	.weak	_ZN5boost17bad_function_callD2Ev
	.type	_ZN5boost17bad_function_callD2Ev, @function
_ZN5boost17bad_function_callD2Ev:
.LFB11415:
	.cfi_startproc
	movq	$_ZTVN5boost17bad_function_callE+16, (%rdi)
	jmp	_ZNSt13runtime_errorD2Ev
	.cfi_endproc
.LFE11415:
	.size	_ZN5boost17bad_function_callD2Ev, .-_ZN5boost17bad_function_callD2Ev
	.weak	_ZN5boost17bad_function_callD1Ev
	.set	_ZN5boost17bad_function_callD1Ev,_ZN5boost17bad_function_callD2Ev
	.section	.text._ZN5boost17bad_function_callD0Ev,"axG",@progbits,_ZN5boost17bad_function_callD5Ev,comdat
	.align 2
	.p2align 4,,15
	.weak	_ZN5boost17bad_function_callD0Ev
	.type	_ZN5boost17bad_function_callD0Ev, @function
_ZN5boost17bad_function_callD0Ev:
.LFB11417:
	.cfi_startproc
	pushq	%rbx
	.cfi_def_cfa_offset 16
	.cfi_offset 3, -16
	movq	%rdi, %rbx
	movq	$_ZTVN5boost17bad_function_callE+16, (%rdi)
	call	_ZNSt13runtime_errorD2Ev
	movq	%rbx, %rdi
	movl	$16, %esi
	popq	%rbx
	.cfi_def_cfa_offset 8
	jmp	_ZdlPvm
	.cfi_endproc
.LFE11417:
	.size	_ZN5boost17bad_function_callD0Ev, .-_ZN5boost17bad_function_callD0Ev
	.section	.text._ZN5boost16exception_detail19error_info_injectorINS_17bad_function_callEED2Ev,"axG",@progbits,_ZN5boost16exception_detail19error_info_injectorINS_17bad_function_callEED5Ev,comdat
	.align 2
	.p2align 4,,15
	.weak	_ZN5boost16exception_detail19error_info_injectorINS_17bad_function_callEED2Ev
	.type	_ZN5boost16exception_detail19error_info_injectorINS_17bad_function_callEED2Ev, @function
_ZN5boost16exception_detail19error_info_injectorINS_17bad_function_callEED2Ev:
.LFB12831:
	.cfi_startproc
	.cfi_personality 0x3,__gxx_personality_v0
	.cfi_lsda 0x3,.LLSDA12831
	pushq	%rbx
	.cfi_def_cfa_offset 16
	.cfi_offset 3, -16
	movq	%rdi, %rbx
	movq	$_ZTVN5boost16exception_detail19error_info_injectorINS_17bad_function_callEEE+16, (%rdi)
	movq	$_ZTVN5boost9exceptionE+16, 16(%rdi)
	movq	24(%rdi), %rdi
	testq	%rdi, %rdi
	je	.L43
	movq	(%rdi), %rax
	call	*32(%rax)
.L43:
	movq	$_ZTVN5boost17bad_function_callE+16, (%rbx)
	movq	%rbx, %rdi
	popq	%rbx
	.cfi_def_cfa_offset 8
	jmp	_ZNSt13runtime_errorD2Ev
	.cfi_endproc
.LFE12831:
	.globl	__gxx_personality_v0
	.section	.gcc_except_table._ZN5boost16exception_detail19error_info_injectorINS_17bad_function_callEED2Ev,"aG",@progbits,_ZN5boost16exception_detail19error_info_injectorINS_17bad_function_callEED5Ev,comdat
.LLSDA12831:
	.byte	0xff
	.byte	0xff
	.byte	0x1
	.uleb128 .LLSDACSE12831-.LLSDACSB12831
.LLSDACSB12831:
.LLSDACSE12831:
	.section	.text._ZN5boost16exception_detail19error_info_injectorINS_17bad_function_callEED2Ev,"axG",@progbits,_ZN5boost16exception_detail19error_info_injectorINS_17bad_function_callEED5Ev,comdat
	.size	_ZN5boost16exception_detail19error_info_injectorINS_17bad_function_callEED2Ev, .-_ZN5boost16exception_detail19error_info_injectorINS_17bad_function_callEED2Ev
	.weak	_ZN5boost16exception_detail19error_info_injectorINS_17bad_function_callEED1Ev
	.set	_ZN5boost16exception_detail19error_info_injectorINS_17bad_function_callEED1Ev,_ZN5boost16exception_detail19error_info_injectorINS_17bad_function_callEED2Ev
	.set	.LTHUNK164,_ZN5boost16exception_detail19error_info_injectorINS_17bad_function_callEED1Ev
	.p2align 4,,15
	.weak	_ZThn16_N5boost16exception_detail19error_info_injectorINS_17bad_function_callEED1Ev
	.type	_ZThn16_N5boost16exception_detail19error_info_injectorINS_17bad_function_callEED1Ev, @function
_ZThn16_N5boost16exception_detail19error_info_injectorINS_17bad_function_callEED1Ev:
.LFB14772:
	.cfi_startproc
	subq	$16, %rdi
	jmp	.LTHUNK164
	.cfi_endproc
.LFE14772:
	.size	_ZThn16_N5boost16exception_detail19error_info_injectorINS_17bad_function_callEED1Ev, .-_ZThn16_N5boost16exception_detail19error_info_injectorINS_17bad_function_callEED1Ev
	.section	.text._ZN5boost16exception_detail19error_info_injectorINS_17bad_function_callEED0Ev,"axG",@progbits,_ZN5boost16exception_detail19error_info_injectorINS_17bad_function_callEED5Ev,comdat
	.align 2
	.p2align 4,,15
	.weak	_ZN5boost16exception_detail19error_info_injectorINS_17bad_function_callEED0Ev
	.type	_ZN5boost16exception_detail19error_info_injectorINS_17bad_function_callEED0Ev, @function
_ZN5boost16exception_detail19error_info_injectorINS_17bad_function_callEED0Ev:
.LFB12833:
	.cfi_startproc
	pushq	%rbx
	.cfi_def_cfa_offset 16
	.cfi_offset 3, -16
	movq	%rdi, %rbx
	call	_ZN5boost16exception_detail19error_info_injectorINS_17bad_function_callEED1Ev
	movq	%rbx, %rdi
	movl	$56, %esi
	popq	%rbx
	.cfi_def_cfa_offset 8
	jmp	_ZdlPvm
	.cfi_endproc
.LFE12833:
	.size	_ZN5boost16exception_detail19error_info_injectorINS_17bad_function_callEED0Ev, .-_ZN5boost16exception_detail19error_info_injectorINS_17bad_function_callEED0Ev
	.section	.text._ZN5boost16exception_detail10clone_implINS0_19error_info_injectorINS_17bad_function_callEEEED1Ev,"axG",@progbits,_ZN5boost16exception_detail10clone_implINS0_19error_info_injectorINS_17bad_function_callEEEED1Ev,comdat
	.align 2
	.p2align 4,,15
	.weak	_ZN5boost16exception_detail10clone_implINS0_19error_info_injectorINS_17bad_function_callEEEED1Ev
	.type	_ZN5boost16exception_detail10clone_implINS0_19error_info_injectorINS_17bad_function_callEEEED1Ev, @function
_ZN5boost16exception_detail10clone_implINS0_19error_info_injectorINS_17bad_function_callEEEED1Ev:
.LFB12837:
	.cfi_startproc
	movq	$_ZTVN5boost16exception_detail10clone_implINS0_19error_info_injectorINS_17bad_function_callEEEEE+24, (%rdi)
	movq	$_ZTVN5boost16exception_detail10clone_implINS0_19error_info_injectorINS_17bad_function_callEEEEE+80, 16(%rdi)
	movq	$_ZTVN5boost16exception_detail10clone_implINS0_19error_info_injectorINS_17bad_function_callEEEEE+136, 56(%rdi)
	jmp	_ZN5boost16exception_detail19error_info_injectorINS_17bad_function_callEED2Ev
	.cfi_endproc
.LFE12837:
	.size	_ZN5boost16exception_detail10clone_implINS0_19error_info_injectorINS_17bad_function_callEEEED1Ev, .-_ZN5boost16exception_detail10clone_implINS0_19error_info_injectorINS_17bad_function_callEEEED1Ev
	.section	.text._ZN5boost16exception_detail10clone_implINS0_19error_info_injectorINS_17bad_function_callEEEED0Ev,"axG",@progbits,_ZN5boost16exception_detail10clone_implINS0_19error_info_injectorINS_17bad_function_callEEEED0Ev,comdat
	.align 2
	.p2align 4,,15
	.weak	_ZN5boost16exception_detail10clone_implINS0_19error_info_injectorINS_17bad_function_callEEEED0Ev
	.type	_ZN5boost16exception_detail10clone_implINS0_19error_info_injectorINS_17bad_function_callEEEED0Ev, @function
_ZN5boost16exception_detail10clone_implINS0_19error_info_injectorINS_17bad_function_callEEEED0Ev:
.LFB12838:
	.cfi_startproc
	pushq	%rbx
	.cfi_def_cfa_offset 16
	.cfi_offset 3, -16
	movq	%rdi, %rbx
	movq	$_ZTVN5boost16exception_detail10clone_implINS0_19error_info_injectorINS_17bad_function_callEEEEE+24, (%rdi)
	movq	$_ZTVN5boost16exception_detail10clone_implINS0_19error_info_injectorINS_17bad_function_callEEEEE+80, 16(%rdi)
	movq	$_ZTVN5boost16exception_detail10clone_implINS0_19error_info_injectorINS_17bad_function_callEEEEE+136, 56(%rdi)
	call	_ZN5boost16exception_detail19error_info_injectorINS_17bad_function_callEED2Ev
	movq	%rbx, %rdi
	movl	$64, %esi
	popq	%rbx
	.cfi_def_cfa_offset 8
	jmp	_ZdlPvm
	.cfi_endproc
.LFE12838:
	.size	_ZN5boost16exception_detail10clone_implINS0_19error_info_injectorINS_17bad_function_callEEEED0Ev, .-_ZN5boost16exception_detail10clone_implINS0_19error_info_injectorINS_17bad_function_callEEEED0Ev
	.section	.text._ZN5boost16exception_detail39current_exception_std_exception_wrapperISt13runtime_errorED2Ev,"axG",@progbits,_ZN5boost16exception_detail39current_exception_std_exception_wrapperISt13runtime_errorED5Ev,comdat
	.align 2
	.p2align 4,,15
	.weak	_ZN5boost16exception_detail39current_exception_std_exception_wrapperISt13runtime_errorED2Ev
	.type	_ZN5boost16exception_detail39current_exception_std_exception_wrapperISt13runtime_errorED2Ev, @function
_ZN5boost16exception_detail39current_exception_std_exception_wrapperISt13runtime_errorED2Ev:
.LFB12070:
	.cfi_startproc
	.cfi_personality 0x3,__gxx_personality_v0
	.cfi_lsda 0x3,.LLSDA12070
	pushq	%rbx
	.cfi_def_cfa_offset 16
	.cfi_offset 3, -16
	movq	%rdi, %rbx
	movq	$_ZTVN5boost16exception_detail39current_exception_std_exception_wrapperISt13runtime_errorEE+16, (%rdi)
	movq	$_ZTVN5boost9exceptionE+16, 16(%rdi)
	movq	24(%rdi), %rdi
	testq	%rdi, %rdi
	je	.L54
	movq	(%rdi), %rax
	call	*32(%rax)
.L54:
	movq	%rbx, %rdi
	popq	%rbx
	.cfi_def_cfa_offset 8
	jmp	_ZNSt13runtime_errorD2Ev
	.cfi_endproc
.LFE12070:
	.section	.gcc_except_table._ZN5boost16exception_detail39current_exception_std_exception_wrapperISt13runtime_errorED2Ev,"aG",@progbits,_ZN5boost16exception_detail39current_exception_std_exception_wrapperISt13runtime_errorED5Ev,comdat
.LLSDA12070:
	.byte	0xff
	.byte	0xff
	.byte	0x1
	.uleb128 .LLSDACSE12070-.LLSDACSB12070
.LLSDACSB12070:
.LLSDACSE12070:
	.section	.text._ZN5boost16exception_detail39current_exception_std_exception_wrapperISt13runtime_errorED2Ev,"axG",@progbits,_ZN5boost16exception_detail39current_exception_std_exception_wrapperISt13runtime_errorED5Ev,comdat
	.size	_ZN5boost16exception_detail39current_exception_std_exception_wrapperISt13runtime_errorED2Ev, .-_ZN5boost16exception_detail39current_exception_std_exception_wrapperISt13runtime_errorED2Ev
	.weak	_ZN5boost16exception_detail39current_exception_std_exception_wrapperISt13runtime_errorED1Ev
	.set	_ZN5boost16exception_detail39current_exception_std_exception_wrapperISt13runtime_errorED1Ev,_ZN5boost16exception_detail39current_exception_std_exception_wrapperISt13runtime_errorED2Ev
	.set	.LTHUNK78,_ZN5boost16exception_detail39current_exception_std_exception_wrapperISt13runtime_errorED1Ev
	.p2align 4,,15
	.weak	_ZThn16_N5boost16exception_detail39current_exception_std_exception_wrapperISt13runtime_errorED1Ev
	.type	_ZThn16_N5boost16exception_detail39current_exception_std_exception_wrapperISt13runtime_errorED1Ev, @function
_ZThn16_N5boost16exception_detail39current_exception_std_exception_wrapperISt13runtime_errorED1Ev:
.LFB14776:
	.cfi_startproc
	subq	$16, %rdi
	jmp	.LTHUNK78
	.cfi_endproc
.LFE14776:
	.size	_ZThn16_N5boost16exception_detail39current_exception_std_exception_wrapperISt13runtime_errorED1Ev, .-_ZThn16_N5boost16exception_detail39current_exception_std_exception_wrapperISt13runtime_errorED1Ev
	.section	.text._ZN5boost16exception_detail39current_exception_std_exception_wrapperISt13runtime_errorED0Ev,"axG",@progbits,_ZN5boost16exception_detail39current_exception_std_exception_wrapperISt13runtime_errorED5Ev,comdat
	.align 2
	.p2align 4,,15
	.weak	_ZN5boost16exception_detail39current_exception_std_exception_wrapperISt13runtime_errorED0Ev
	.type	_ZN5boost16exception_detail39current_exception_std_exception_wrapperISt13runtime_errorED0Ev, @function
_ZN5boost16exception_detail39current_exception_std_exception_wrapperISt13runtime_errorED0Ev:
.LFB12072:
	.cfi_startproc
	pushq	%rbx
	.cfi_def_cfa_offset 16
	.cfi_offset 3, -16
	movq	%rdi, %rbx
	call	_ZN5boost16exception_detail39current_exception_std_exception_wrapperISt13runtime_errorED1Ev
	movq	%rbx, %rdi
	movl	$56, %esi
	popq	%rbx
	.cfi_def_cfa_offset 8
	jmp	_ZdlPvm
	.cfi_endproc
.LFE12072:
	.size	_ZN5boost16exception_detail39current_exception_std_exception_wrapperISt13runtime_errorED0Ev, .-_ZN5boost16exception_detail39current_exception_std_exception_wrapperISt13runtime_errorED0Ev
	.section	.text._ZN5boost16exception_detail10clone_implINS0_39current_exception_std_exception_wrapperISt13runtime_errorEEED1Ev,"axG",@progbits,_ZN5boost16exception_detail10clone_implINS0_39current_exception_std_exception_wrapperISt13runtime_errorEEED1Ev,comdat
	.align 2
	.p2align 4,,15
	.weak	_ZN5boost16exception_detail10clone_implINS0_39current_exception_std_exception_wrapperISt13runtime_errorEEED1Ev
	.type	_ZN5boost16exception_detail10clone_implINS0_39current_exception_std_exception_wrapperISt13runtime_errorEEED1Ev, @function
_ZN5boost16exception_detail10clone_implINS0_39current_exception_std_exception_wrapperISt13runtime_errorEEED1Ev:
.LFB12740:
	.cfi_startproc
	movq	$_ZTVN5boost16exception_detail10clone_implINS0_39current_exception_std_exception_wrapperISt13runtime_errorEEEE+24, (%rdi)
	movq	$_ZTVN5boost16exception_detail10clone_implINS0_39current_exception_std_exception_wrapperISt13runtime_errorEEEE+80, 16(%rdi)
	movq	$_ZTVN5boost16exception_detail10clone_implINS0_39current_exception_std_exception_wrapperISt13runtime_errorEEEE+136, 56(%rdi)
	jmp	_ZN5boost16exception_detail39current_exception_std_exception_wrapperISt13runtime_errorED2Ev
	.cfi_endproc
.LFE12740:
	.size	_ZN5boost16exception_detail10clone_implINS0_39current_exception_std_exception_wrapperISt13runtime_errorEEED1Ev, .-_ZN5boost16exception_detail10clone_implINS0_39current_exception_std_exception_wrapperISt13runtime_errorEEED1Ev
	.section	.text._ZN5boost16exception_detail10clone_implINS0_39current_exception_std_exception_wrapperISt13runtime_errorEEED0Ev,"axG",@progbits,_ZN5boost16exception_detail10clone_implINS0_39current_exception_std_exception_wrapperISt13runtime_errorEEED0Ev,comdat
	.align 2
	.p2align 4,,15
	.weak	_ZN5boost16exception_detail10clone_implINS0_39current_exception_std_exception_wrapperISt13runtime_errorEEED0Ev
	.type	_ZN5boost16exception_detail10clone_implINS0_39current_exception_std_exception_wrapperISt13runtime_errorEEED0Ev, @function
_ZN5boost16exception_detail10clone_implINS0_39current_exception_std_exception_wrapperISt13runtime_errorEEED0Ev:
.LFB12741:
	.cfi_startproc
	pushq	%rbx
	.cfi_def_cfa_offset 16
	.cfi_offset 3, -16
	movq	%rdi, %rbx
	movq	$_ZTVN5boost16exception_detail10clone_implINS0_39current_exception_std_exception_wrapperISt13runtime_errorEEEE+24, (%rdi)
	movq	$_ZTVN5boost16exception_detail10clone_implINS0_39current_exception_std_exception_wrapperISt13runtime_errorEEEE+80, 16(%rdi)
	movq	$_ZTVN5boost16exception_detail10clone_implINS0_39current_exception_std_exception_wrapperISt13runtime_errorEEEE+136, 56(%rdi)
	call	_ZN5boost16exception_detail39current_exception_std_exception_wrapperISt13runtime_errorED2Ev
	movq	%rbx, %rdi
	movl	$64, %esi
	popq	%rbx
	.cfi_def_cfa_offset 8
	jmp	_ZdlPvm
	.cfi_endproc
.LFE12741:
	.size	_ZN5boost16exception_detail10clone_implINS0_39current_exception_std_exception_wrapperISt13runtime_errorEEED0Ev, .-_ZN5boost16exception_detail10clone_implINS0_39current_exception_std_exception_wrapperISt13runtime_errorEEED0Ev
	.section	.text._ZN5boost6system12system_errorD2Ev,"axG",@progbits,_ZN5boost6system12system_errorD5Ev,comdat
	.align 2
	.p2align 4,,15
	.weak	_ZN5boost6system12system_errorD2Ev
	.type	_ZN5boost6system12system_errorD2Ev, @function
_ZN5boost6system12system_errorD2Ev:
.LFB6097:
	.cfi_startproc
	pushq	%rbx
	.cfi_def_cfa_offset 16
	.cfi_offset 3, -16
	movq	%rdi, %rbx
	movq	$_ZTVN5boost6system12system_errorE+16, (%rdi)
	movq	32(%rdi), %rdi
	leaq	48(%rbx), %rax
	cmpq	%rax, %rdi
	je	.L65
	call	_ZdlPv
.L65:
	movq	%rbx, %rdi
	popq	%rbx
	.cfi_def_cfa_offset 8
	jmp	_ZNSt13runtime_errorD2Ev
	.cfi_endproc
.LFE6097:
	.size	_ZN5boost6system12system_errorD2Ev, .-_ZN5boost6system12system_errorD2Ev
	.weak	_ZN5boost6system12system_errorD1Ev
	.set	_ZN5boost6system12system_errorD1Ev,_ZN5boost6system12system_errorD2Ev
	.section	.text._ZN5boost6system12system_errorD0Ev,"axG",@progbits,_ZN5boost6system12system_errorD5Ev,comdat
	.align 2
	.p2align 4,,15
	.weak	_ZN5boost6system12system_errorD0Ev
	.type	_ZN5boost6system12system_errorD0Ev, @function
_ZN5boost6system12system_errorD0Ev:
.LFB6099:
	.cfi_startproc
	pushq	%rbx
	.cfi_def_cfa_offset 16
	.cfi_offset 3, -16
	movq	%rdi, %rbx
	call	_ZN5boost6system12system_errorD1Ev
	movq	%rbx, %rdi
	movl	$64, %esi
	popq	%rbx
	.cfi_def_cfa_offset 8
	jmp	_ZdlPvm
	.cfi_endproc
.LFE6099:
	.size	_ZN5boost6system12system_errorD0Ev, .-_ZN5boost6system12system_errorD0Ev
	.section	.text._ZN5boost16thread_exceptionD2Ev,"axG",@progbits,_ZN5boost16thread_exceptionD5Ev,comdat
	.align 2
	.p2align 4,,15
	.weak	_ZN5boost16thread_exceptionD2Ev
	.type	_ZN5boost16thread_exceptionD2Ev, @function
_ZN5boost16thread_exceptionD2Ev:
.LFB6115:
	.cfi_startproc
	movq	$_ZTVN5boost16thread_exceptionE+16, (%rdi)
	jmp	_ZN5boost6system12system_errorD2Ev
	.cfi_endproc
.LFE6115:
	.size	_ZN5boost16thread_exceptionD2Ev, .-_ZN5boost16thread_exceptionD2Ev
	.weak	_ZN5boost16thread_exceptionD1Ev
	.set	_ZN5boost16thread_exceptionD1Ev,_ZN5boost16thread_exceptionD2Ev
	.section	.text._ZN5boost16thread_exceptionD0Ev,"axG",@progbits,_ZN5boost16thread_exceptionD5Ev,comdat
	.align 2
	.p2align 4,,15
	.weak	_ZN5boost16thread_exceptionD0Ev
	.type	_ZN5boost16thread_exceptionD0Ev, @function
_ZN5boost16thread_exceptionD0Ev:
.LFB6117:
	.cfi_startproc
	pushq	%rbx
	.cfi_def_cfa_offset 16
	.cfi_offset 3, -16
	movq	%rdi, %rbx
	movq	$_ZTVN5boost16thread_exceptionE+16, (%rdi)
	call	_ZN5boost6system12system_errorD2Ev
	movq	%rbx, %rdi
	movl	$64, %esi
	popq	%rbx
	.cfi_def_cfa_offset 8
	jmp	_ZdlPvm
	.cfi_endproc
.LFE6117:
	.size	_ZN5boost16thread_exceptionD0Ev, .-_ZN5boost16thread_exceptionD0Ev
	.section	.text._ZN5boost10lock_errorD2Ev,"axG",@progbits,_ZN5boost10lock_errorD5Ev,comdat
	.align 2
	.p2align 4,,15
	.weak	_ZN5boost10lock_errorD2Ev
	.type	_ZN5boost10lock_errorD2Ev, @function
_ZN5boost10lock_errorD2Ev:
.LFB6144:
	.cfi_startproc
	movq	$_ZTVN5boost16thread_exceptionE+16, (%rdi)
	jmp	_ZN5boost6system12system_errorD2Ev
	.cfi_endproc
.LFE6144:
	.size	_ZN5boost10lock_errorD2Ev, .-_ZN5boost10lock_errorD2Ev
	.weak	_ZN5boost10lock_errorD1Ev
	.set	_ZN5boost10lock_errorD1Ev,_ZN5boost10lock_errorD2Ev
	.section	.text._ZN5boost10lock_errorD0Ev,"axG",@progbits,_ZN5boost10lock_errorD5Ev,comdat
	.align 2
	.p2align 4,,15
	.weak	_ZN5boost10lock_errorD0Ev
	.type	_ZN5boost10lock_errorD0Ev, @function
_ZN5boost10lock_errorD0Ev:
.LFB6146:
	.cfi_startproc
	pushq	%rbx
	.cfi_def_cfa_offset 16
	.cfi_offset 3, -16
	movq	%rdi, %rbx
	movq	$_ZTVN5boost16thread_exceptionE+16, (%rdi)
	call	_ZN5boost6system12system_errorD2Ev
	movq	%rbx, %rdi
	movl	$64, %esi
	popq	%rbx
	.cfi_def_cfa_offset 8
	jmp	_ZdlPvm
	.cfi_endproc
.LFE6146:
	.size	_ZN5boost10lock_errorD0Ev, .-_ZN5boost10lock_errorD0Ev
	.section	.text._ZN5boost16exception_detail19error_info_injectorINS_10lock_errorEED2Ev,"axG",@progbits,_ZN5boost16exception_detail19error_info_injectorINS_10lock_errorEED5Ev,comdat
	.align 2
	.p2align 4,,15
	.weak	_ZN5boost16exception_detail19error_info_injectorINS_10lock_errorEED2Ev
	.type	_ZN5boost16exception_detail19error_info_injectorINS_10lock_errorEED2Ev, @function
_ZN5boost16exception_detail19error_info_injectorINS_10lock_errorEED2Ev:
.LFB11747:
	.cfi_startproc
	.cfi_personality 0x3,__gxx_personality_v0
	.cfi_lsda 0x3,.LLSDA11747
	pushq	%rbx
	.cfi_def_cfa_offset 16
	.cfi_offset 3, -16
	movq	%rdi, %rbx
	movq	$_ZTVN5boost16exception_detail19error_info_injectorINS_10lock_errorEEE+16, (%rdi)
	movq	$_ZTVN5boost9exceptionE+16, 64(%rdi)
	movq	72(%rdi), %rdi
	testq	%rdi, %rdi
	je	.L76
	movq	(%rdi), %rax
	call	*32(%rax)
.L76:
	movq	$_ZTVN5boost16thread_exceptionE+16, (%rbx)
	movq	%rbx, %rdi
	popq	%rbx
	.cfi_def_cfa_offset 8
	jmp	_ZN5boost6system12system_errorD2Ev
	.cfi_endproc
.LFE11747:
	.section	.gcc_except_table._ZN5boost16exception_detail19error_info_injectorINS_10lock_errorEED2Ev,"aG",@progbits,_ZN5boost16exception_detail19error_info_injectorINS_10lock_errorEED5Ev,comdat
.LLSDA11747:
	.byte	0xff
	.byte	0xff
	.byte	0x1
	.uleb128 .LLSDACSE11747-.LLSDACSB11747
.LLSDACSB11747:
.LLSDACSE11747:
	.section	.text._ZN5boost16exception_detail19error_info_injectorINS_10lock_errorEED2Ev,"axG",@progbits,_ZN5boost16exception_detail19error_info_injectorINS_10lock_errorEED5Ev,comdat
	.size	_ZN5boost16exception_detail19error_info_injectorINS_10lock_errorEED2Ev, .-_ZN5boost16exception_detail19error_info_injectorINS_10lock_errorEED2Ev
	.weak	_ZN5boost16exception_detail19error_info_injectorINS_10lock_errorEED1Ev
	.set	_ZN5boost16exception_detail19error_info_injectorINS_10lock_errorEED1Ev,_ZN5boost16exception_detail19error_info_injectorINS_10lock_errorEED2Ev
	.set	.LTHUNK36,_ZN5boost16exception_detail19error_info_injectorINS_10lock_errorEED1Ev
	.p2align 4,,15
	.weak	_ZThn64_N5boost16exception_detail19error_info_injectorINS_10lock_errorEED1Ev
	.type	_ZThn64_N5boost16exception_detail19error_info_injectorINS_10lock_errorEED1Ev, @function
_ZThn64_N5boost16exception_detail19error_info_injectorINS_10lock_errorEED1Ev:
.LFB14780:
	.cfi_startproc
	subq	$64, %rdi
	jmp	.LTHUNK36
	.cfi_endproc
.LFE14780:
	.size	_ZThn64_N5boost16exception_detail19error_info_injectorINS_10lock_errorEED1Ev, .-_ZThn64_N5boost16exception_detail19error_info_injectorINS_10lock_errorEED1Ev
	.section	.text._ZN5boost16exception_detail19error_info_injectorINS_10lock_errorEED0Ev,"axG",@progbits,_ZN5boost16exception_detail19error_info_injectorINS_10lock_errorEED5Ev,comdat
	.align 2
	.p2align 4,,15
	.weak	_ZN5boost16exception_detail19error_info_injectorINS_10lock_errorEED0Ev
	.type	_ZN5boost16exception_detail19error_info_injectorINS_10lock_errorEED0Ev, @function
_ZN5boost16exception_detail19error_info_injectorINS_10lock_errorEED0Ev:
.LFB11749:
	.cfi_startproc
	pushq	%rbx
	.cfi_def_cfa_offset 16
	.cfi_offset 3, -16
	movq	%rdi, %rbx
	call	_ZN5boost16exception_detail19error_info_injectorINS_10lock_errorEED1Ev
	movq	%rbx, %rdi
	movl	$104, %esi
	popq	%rbx
	.cfi_def_cfa_offset 8
	jmp	_ZdlPvm
	.cfi_endproc
.LFE11749:
	.size	_ZN5boost16exception_detail19error_info_injectorINS_10lock_errorEED0Ev, .-_ZN5boost16exception_detail19error_info_injectorINS_10lock_errorEED0Ev
	.section	.text._ZN5boost16exception_detail10clone_implINS0_19error_info_injectorINS_10lock_errorEEEED1Ev,"axG",@progbits,_ZN5boost16exception_detail10clone_implINS0_19error_info_injectorINS_10lock_errorEEEED1Ev,comdat
	.align 2
	.p2align 4,,15
	.weak	_ZN5boost16exception_detail10clone_implINS0_19error_info_injectorINS_10lock_errorEEEED1Ev
	.type	_ZN5boost16exception_detail10clone_implINS0_19error_info_injectorINS_10lock_errorEEEED1Ev, @function
_ZN5boost16exception_detail10clone_implINS0_19error_info_injectorINS_10lock_errorEEEED1Ev:
.LFB11753:
	.cfi_startproc
	movq	$_ZTVN5boost16exception_detail10clone_implINS0_19error_info_injectorINS_10lock_errorEEEEE+24, (%rdi)
	movq	$_ZTVN5boost16exception_detail10clone_implINS0_19error_info_injectorINS_10lock_errorEEEEE+80, 64(%rdi)
	movq	$_ZTVN5boost16exception_detail10clone_implINS0_19error_info_injectorINS_10lock_errorEEEEE+136, 104(%rdi)
	jmp	_ZN5boost16exception_detail19error_info_injectorINS_10lock_errorEED2Ev
	.cfi_endproc
.LFE11753:
	.size	_ZN5boost16exception_detail10clone_implINS0_19error_info_injectorINS_10lock_errorEEEED1Ev, .-_ZN5boost16exception_detail10clone_implINS0_19error_info_injectorINS_10lock_errorEEEED1Ev
	.section	.text._ZN5boost16exception_detail10clone_implINS0_19error_info_injectorINS_10lock_errorEEEED0Ev,"axG",@progbits,_ZN5boost16exception_detail10clone_implINS0_19error_info_injectorINS_10lock_errorEEEED0Ev,comdat
	.align 2
	.p2align 4,,15
	.weak	_ZN5boost16exception_detail10clone_implINS0_19error_info_injectorINS_10lock_errorEEEED0Ev
	.type	_ZN5boost16exception_detail10clone_implINS0_19error_info_injectorINS_10lock_errorEEEED0Ev, @function
_ZN5boost16exception_detail10clone_implINS0_19error_info_injectorINS_10lock_errorEEEED0Ev:
.LFB11754:
	.cfi_startproc
	pushq	%rbx
	.cfi_def_cfa_offset 16
	.cfi_offset 3, -16
	movq	%rdi, %rbx
	movq	$_ZTVN5boost16exception_detail10clone_implINS0_19error_info_injectorINS_10lock_errorEEEEE+24, (%rdi)
	movq	$_ZTVN5boost16exception_detail10clone_implINS0_19error_info_injectorINS_10lock_errorEEEEE+80, 64(%rdi)
	movq	$_ZTVN5boost16exception_detail10clone_implINS0_19error_info_injectorINS_10lock_errorEEEEE+136, 104(%rdi)
	call	_ZN5boost16exception_detail19error_info_injectorINS_10lock_errorEED2Ev
	movq	%rbx, %rdi
	movl	$112, %esi
	popq	%rbx
	.cfi_def_cfa_offset 8
	jmp	_ZdlPvm
	.cfi_endproc
.LFE11754:
	.size	_ZN5boost16exception_detail10clone_implINS0_19error_info_injectorINS_10lock_errorEEEED0Ev, .-_ZN5boost16exception_detail10clone_implINS0_19error_info_injectorINS_10lock_errorEEEED0Ev
	.section	.text._ZN5boost21thread_resource_errorD2Ev,"axG",@progbits,_ZN5boost21thread_resource_errorD5Ev,comdat
	.align 2
	.p2align 4,,15
	.weak	_ZN5boost21thread_resource_errorD2Ev
	.type	_ZN5boost21thread_resource_errorD2Ev, @function
_ZN5boost21thread_resource_errorD2Ev:
.LFB6160:
	.cfi_startproc
	movq	$_ZTVN5boost16thread_exceptionE+16, (%rdi)
	jmp	_ZN5boost6system12system_errorD2Ev
	.cfi_endproc
.LFE6160:
	.size	_ZN5boost21thread_resource_errorD2Ev, .-_ZN5boost21thread_resource_errorD2Ev
	.weak	_ZN5boost21thread_resource_errorD1Ev
	.set	_ZN5boost21thread_resource_errorD1Ev,_ZN5boost21thread_resource_errorD2Ev
	.section	.text._ZN5boost21thread_resource_errorD0Ev,"axG",@progbits,_ZN5boost21thread_resource_errorD5Ev,comdat
	.align 2
	.p2align 4,,15
	.weak	_ZN5boost21thread_resource_errorD0Ev
	.type	_ZN5boost21thread_resource_errorD0Ev, @function
_ZN5boost21thread_resource_errorD0Ev:
.LFB6162:
	.cfi_startproc
	pushq	%rbx
	.cfi_def_cfa_offset 16
	.cfi_offset 3, -16
	movq	%rdi, %rbx
	movq	$_ZTVN5boost16thread_exceptionE+16, (%rdi)
	call	_ZN5boost6system12system_errorD2Ev
	movq	%rbx, %rdi
	movl	$64, %esi
	popq	%rbx
	.cfi_def_cfa_offset 8
	jmp	_ZdlPvm
	.cfi_endproc
.LFE6162:
	.size	_ZN5boost21thread_resource_errorD0Ev, .-_ZN5boost21thread_resource_errorD0Ev
	.section	.text._ZN5boost16exception_detail19error_info_injectorINS_21thread_resource_errorEED2Ev,"axG",@progbits,_ZN5boost16exception_detail19error_info_injectorINS_21thread_resource_errorEED5Ev,comdat
	.align 2
	.p2align 4,,15
	.weak	_ZN5boost16exception_detail19error_info_injectorINS_21thread_resource_errorEED2Ev
	.type	_ZN5boost16exception_detail19error_info_injectorINS_21thread_resource_errorEED2Ev, @function
_ZN5boost16exception_detail19error_info_injectorINS_21thread_resource_errorEED2Ev:
.LFB11737:
	.cfi_startproc
	.cfi_personality 0x3,__gxx_personality_v0
	.cfi_lsda 0x3,.LLSDA11737
	pushq	%rbx
	.cfi_def_cfa_offset 16
	.cfi_offset 3, -16
	movq	%rdi, %rbx
	movq	$_ZTVN5boost16exception_detail19error_info_injectorINS_21thread_resource_errorEEE+16, (%rdi)
	movq	$_ZTVN5boost9exceptionE+16, 64(%rdi)
	movq	72(%rdi), %rdi
	testq	%rdi, %rdi
	je	.L90
	movq	(%rdi), %rax
	call	*32(%rax)
.L90:
	movq	$_ZTVN5boost16thread_exceptionE+16, (%rbx)
	movq	%rbx, %rdi
	popq	%rbx
	.cfi_def_cfa_offset 8
	jmp	_ZN5boost6system12system_errorD2Ev
	.cfi_endproc
.LFE11737:
	.section	.gcc_except_table._ZN5boost16exception_detail19error_info_injectorINS_21thread_resource_errorEED2Ev,"aG",@progbits,_ZN5boost16exception_detail19error_info_injectorINS_21thread_resource_errorEED5Ev,comdat
.LLSDA11737:
	.byte	0xff
	.byte	0xff
	.byte	0x1
	.uleb128 .LLSDACSE11737-.LLSDACSB11737
.LLSDACSB11737:
.LLSDACSE11737:
	.section	.text._ZN5boost16exception_detail19error_info_injectorINS_21thread_resource_errorEED2Ev,"axG",@progbits,_ZN5boost16exception_detail19error_info_injectorINS_21thread_resource_errorEED5Ev,comdat
	.size	_ZN5boost16exception_detail19error_info_injectorINS_21thread_resource_errorEED2Ev, .-_ZN5boost16exception_detail19error_info_injectorINS_21thread_resource_errorEED2Ev
	.weak	_ZN5boost16exception_detail19error_info_injectorINS_21thread_resource_errorEED1Ev
	.set	_ZN5boost16exception_detail19error_info_injectorINS_21thread_resource_errorEED1Ev,_ZN5boost16exception_detail19error_info_injectorINS_21thread_resource_errorEED2Ev
	.set	.LTHUNK30,_ZN5boost16exception_detail19error_info_injectorINS_21thread_resource_errorEED1Ev
	.p2align 4,,15
	.weak	_ZThn64_N5boost16exception_detail19error_info_injectorINS_21thread_resource_errorEED1Ev
	.type	_ZThn64_N5boost16exception_detail19error_info_injectorINS_21thread_resource_errorEED1Ev, @function
_ZThn64_N5boost16exception_detail19error_info_injectorINS_21thread_resource_errorEED1Ev:
.LFB14784:
	.cfi_startproc
	subq	$64, %rdi
	jmp	.LTHUNK30
	.cfi_endproc
.LFE14784:
	.size	_ZThn64_N5boost16exception_detail19error_info_injectorINS_21thread_resource_errorEED1Ev, .-_ZThn64_N5boost16exception_detail19error_info_injectorINS_21thread_resource_errorEED1Ev
	.section	.text._ZN5boost16exception_detail19error_info_injectorINS_21thread_resource_errorEED0Ev,"axG",@progbits,_ZN5boost16exception_detail19error_info_injectorINS_21thread_resource_errorEED5Ev,comdat
	.align 2
	.p2align 4,,15
	.weak	_ZN5boost16exception_detail19error_info_injectorINS_21thread_resource_errorEED0Ev
	.type	_ZN5boost16exception_detail19error_info_injectorINS_21thread_resource_errorEED0Ev, @function
_ZN5boost16exception_detail19error_info_injectorINS_21thread_resource_errorEED0Ev:
.LFB11739:
	.cfi_startproc
	pushq	%rbx
	.cfi_def_cfa_offset 16
	.cfi_offset 3, -16
	movq	%rdi, %rbx
	call	_ZN5boost16exception_detail19error_info_injectorINS_21thread_resource_errorEED1Ev
	movq	%rbx, %rdi
	movl	$104, %esi
	popq	%rbx
	.cfi_def_cfa_offset 8
	jmp	_ZdlPvm
	.cfi_endproc
.LFE11739:
	.size	_ZN5boost16exception_detail19error_info_injectorINS_21thread_resource_errorEED0Ev, .-_ZN5boost16exception_detail19error_info_injectorINS_21thread_resource_errorEED0Ev
	.section	.text._ZN5boost16exception_detail10clone_implINS0_19error_info_injectorINS_21thread_resource_errorEEEED1Ev,"axG",@progbits,_ZN5boost16exception_detail10clone_implINS0_19error_info_injectorINS_21thread_resource_errorEEEED1Ev,comdat
	.align 2
	.p2align 4,,15
	.weak	_ZN5boost16exception_detail10clone_implINS0_19error_info_injectorINS_21thread_resource_errorEEEED1Ev
	.type	_ZN5boost16exception_detail10clone_implINS0_19error_info_injectorINS_21thread_resource_errorEEEED1Ev, @function
_ZN5boost16exception_detail10clone_implINS0_19error_info_injectorINS_21thread_resource_errorEEEED1Ev:
.LFB11743:
	.cfi_startproc
	movq	$_ZTVN5boost16exception_detail10clone_implINS0_19error_info_injectorINS_21thread_resource_errorEEEEE+24, (%rdi)
	movq	$_ZTVN5boost16exception_detail10clone_implINS0_19error_info_injectorINS_21thread_resource_errorEEEEE+80, 64(%rdi)
	movq	$_ZTVN5boost16exception_detail10clone_implINS0_19error_info_injectorINS_21thread_resource_errorEEEEE+136, 104(%rdi)
	jmp	_ZN5boost16exception_detail19error_info_injectorINS_21thread_resource_errorEED2Ev
	.cfi_endproc
.LFE11743:
	.size	_ZN5boost16exception_detail10clone_implINS0_19error_info_injectorINS_21thread_resource_errorEEEED1Ev, .-_ZN5boost16exception_detail10clone_implINS0_19error_info_injectorINS_21thread_resource_errorEEEED1Ev
	.section	.text._ZN5boost16exception_detail10clone_implINS0_19error_info_injectorINS_21thread_resource_errorEEEED0Ev,"axG",@progbits,_ZN5boost16exception_detail10clone_implINS0_19error_info_injectorINS_21thread_resource_errorEEEED0Ev,comdat
	.align 2
	.p2align 4,,15
	.weak	_ZN5boost16exception_detail10clone_implINS0_19error_info_injectorINS_21thread_resource_errorEEEED0Ev
	.type	_ZN5boost16exception_detail10clone_implINS0_19error_info_injectorINS_21thread_resource_errorEEEED0Ev, @function
_ZN5boost16exception_detail10clone_implINS0_19error_info_injectorINS_21thread_resource_errorEEEED0Ev:
.LFB11744:
	.cfi_startproc
	pushq	%rbx
	.cfi_def_cfa_offset 16
	.cfi_offset 3, -16
	movq	%rdi, %rbx
	movq	$_ZTVN5boost16exception_detail10clone_implINS0_19error_info_injectorINS_21thread_resource_errorEEEEE+24, (%rdi)
	movq	$_ZTVN5boost16exception_detail10clone_implINS0_19error_info_injectorINS_21thread_resource_errorEEEEE+80, 64(%rdi)
	movq	$_ZTVN5boost16exception_detail10clone_implINS0_19error_info_injectorINS_21thread_resource_errorEEEEE+136, 104(%rdi)
	call	_ZN5boost16exception_detail19error_info_injectorINS_21thread_resource_errorEED2Ev
	movq	%rbx, %rdi
	movl	$112, %esi
	popq	%rbx
	.cfi_def_cfa_offset 8
	jmp	_ZdlPvm
	.cfi_endproc
.LFE11744:
	.size	_ZN5boost16exception_detail10clone_implINS0_19error_info_injectorINS_21thread_resource_errorEEEED0Ev, .-_ZN5boost16exception_detail10clone_implINS0_19error_info_injectorINS_21thread_resource_errorEEEED0Ev
	.section	.text._ZN5boost15condition_errorD2Ev,"axG",@progbits,_ZN5boost15condition_errorD5Ev,comdat
	.align 2
	.p2align 4,,15
	.weak	_ZN5boost15condition_errorD2Ev
	.type	_ZN5boost15condition_errorD2Ev, @function
_ZN5boost15condition_errorD2Ev:
.LFB11796:
	.cfi_startproc
	movq	$_ZTVN5boost15condition_errorE+16, (%rdi)
	jmp	_ZN5boost6system12system_errorD2Ev
	.cfi_endproc
.LFE11796:
	.size	_ZN5boost15condition_errorD2Ev, .-_ZN5boost15condition_errorD2Ev
	.weak	_ZN5boost15condition_errorD1Ev
	.set	_ZN5boost15condition_errorD1Ev,_ZN5boost15condition_errorD2Ev
	.section	.text._ZN5boost15condition_errorD0Ev,"axG",@progbits,_ZN5boost15condition_errorD5Ev,comdat
	.align 2
	.p2align 4,,15
	.weak	_ZN5boost15condition_errorD0Ev
	.type	_ZN5boost15condition_errorD0Ev, @function
_ZN5boost15condition_errorD0Ev:
.LFB11798:
	.cfi_startproc
	pushq	%rbx
	.cfi_def_cfa_offset 16
	.cfi_offset 3, -16
	movq	%rdi, %rbx
	movq	$_ZTVN5boost15condition_errorE+16, (%rdi)
	call	_ZN5boost6system12system_errorD2Ev
	movq	%rbx, %rdi
	movl	$64, %esi
	popq	%rbx
	.cfi_def_cfa_offset 8
	jmp	_ZdlPvm
	.cfi_endproc
.LFE11798:
	.size	_ZN5boost15condition_errorD0Ev, .-_ZN5boost15condition_errorD0Ev
	.section	.text._ZN5boost16exception_detail19error_info_injectorINS_15condition_errorEED2Ev,"axG",@progbits,_ZN5boost16exception_detail19error_info_injectorINS_15condition_errorEED5Ev,comdat
	.align 2
	.p2align 4,,15
	.weak	_ZN5boost16exception_detail19error_info_injectorINS_15condition_errorEED2Ev
	.type	_ZN5boost16exception_detail19error_info_injectorINS_15condition_errorEED2Ev, @function
_ZN5boost16exception_detail19error_info_injectorINS_15condition_errorEED2Ev:
.LFB11799:
	.cfi_startproc
	.cfi_personality 0x3,__gxx_personality_v0
	.cfi_lsda 0x3,.LLSDA11799
	pushq	%rbx
	.cfi_def_cfa_offset 16
	.cfi_offset 3, -16
	movq	%rdi, %rbx
	movq	$_ZTVN5boost16exception_detail19error_info_injectorINS_15condition_errorEEE+16, (%rdi)
	movq	$_ZTVN5boost9exceptionE+16, 64(%rdi)
	movq	72(%rdi), %rdi
	testq	%rdi, %rdi
	je	.L104
	movq	(%rdi), %rax
	call	*32(%rax)
.L104:
	movq	$_ZTVN5boost15condition_errorE+16, (%rbx)
	movq	%rbx, %rdi
	popq	%rbx
	.cfi_def_cfa_offset 8
	jmp	_ZN5boost6system12system_errorD2Ev
	.cfi_endproc
.LFE11799:
	.section	.gcc_except_table._ZN5boost16exception_detail19error_info_injectorINS_15condition_errorEED2Ev,"aG",@progbits,_ZN5boost16exception_detail19error_info_injectorINS_15condition_errorEED5Ev,comdat
.LLSDA11799:
	.byte	0xff
	.byte	0xff
	.byte	0x1
	.uleb128 .LLSDACSE11799-.LLSDACSB11799
.LLSDACSB11799:
.LLSDACSE11799:
	.section	.text._ZN5boost16exception_detail19error_info_injectorINS_15condition_errorEED2Ev,"axG",@progbits,_ZN5boost16exception_detail19error_info_injectorINS_15condition_errorEED5Ev,comdat
	.size	_ZN5boost16exception_detail19error_info_injectorINS_15condition_errorEED2Ev, .-_ZN5boost16exception_detail19error_info_injectorINS_15condition_errorEED2Ev
	.weak	_ZN5boost16exception_detail19error_info_injectorINS_15condition_errorEED1Ev
	.set	_ZN5boost16exception_detail19error_info_injectorINS_15condition_errorEED1Ev,_ZN5boost16exception_detail19error_info_injectorINS_15condition_errorEED2Ev
	.set	.LTHUNK42,_ZN5boost16exception_detail19error_info_injectorINS_15condition_errorEED1Ev
	.p2align 4,,15
	.weak	_ZThn64_N5boost16exception_detail19error_info_injectorINS_15condition_errorEED1Ev
	.type	_ZThn64_N5boost16exception_detail19error_info_injectorINS_15condition_errorEED1Ev, @function
_ZThn64_N5boost16exception_detail19error_info_injectorINS_15condition_errorEED1Ev:
.LFB14788:
	.cfi_startproc
	subq	$64, %rdi
	jmp	.LTHUNK42
	.cfi_endproc
.LFE14788:
	.size	_ZThn64_N5boost16exception_detail19error_info_injectorINS_15condition_errorEED1Ev, .-_ZThn64_N5boost16exception_detail19error_info_injectorINS_15condition_errorEED1Ev
	.section	.text._ZN5boost16exception_detail19error_info_injectorINS_15condition_errorEED0Ev,"axG",@progbits,_ZN5boost16exception_detail19error_info_injectorINS_15condition_errorEED5Ev,comdat
	.align 2
	.p2align 4,,15
	.weak	_ZN5boost16exception_detail19error_info_injectorINS_15condition_errorEED0Ev
	.type	_ZN5boost16exception_detail19error_info_injectorINS_15condition_errorEED0Ev, @function
_ZN5boost16exception_detail19error_info_injectorINS_15condition_errorEED0Ev:
.LFB11801:
	.cfi_startproc
	pushq	%rbx
	.cfi_def_cfa_offset 16
	.cfi_offset 3, -16
	movq	%rdi, %rbx
	call	_ZN5boost16exception_detail19error_info_injectorINS_15condition_errorEED1Ev
	movq	%rbx, %rdi
	movl	$104, %esi
	popq	%rbx
	.cfi_def_cfa_offset 8
	jmp	_ZdlPvm
	.cfi_endproc
.LFE11801:
	.size	_ZN5boost16exception_detail19error_info_injectorINS_15condition_errorEED0Ev, .-_ZN5boost16exception_detail19error_info_injectorINS_15condition_errorEED0Ev
	.section	.text._ZN5boost16exception_detail10clone_implINS0_19error_info_injectorINS_15condition_errorEEEED1Ev,"axG",@progbits,_ZN5boost16exception_detail10clone_implINS0_19error_info_injectorINS_15condition_errorEEEED1Ev,comdat
	.align 2
	.p2align 4,,15
	.weak	_ZN5boost16exception_detail10clone_implINS0_19error_info_injectorINS_15condition_errorEEEED1Ev
	.type	_ZN5boost16exception_detail10clone_implINS0_19error_info_injectorINS_15condition_errorEEEED1Ev, @function
_ZN5boost16exception_detail10clone_implINS0_19error_info_injectorINS_15condition_errorEEEED1Ev:
.LFB11805:
	.cfi_startproc
	movq	$_ZTVN5boost16exception_detail10clone_implINS0_19error_info_injectorINS_15condition_errorEEEEE+24, (%rdi)
	movq	$_ZTVN5boost16exception_detail10clone_implINS0_19error_info_injectorINS_15condition_errorEEEEE+80, 64(%rdi)
	movq	$_ZTVN5boost16exception_detail10clone_implINS0_19error_info_injectorINS_15condition_errorEEEEE+136, 104(%rdi)
	jmp	_ZN5boost16exception_detail19error_info_injectorINS_15condition_errorEED2Ev
	.cfi_endproc
.LFE11805:
	.size	_ZN5boost16exception_detail10clone_implINS0_19error_info_injectorINS_15condition_errorEEEED1Ev, .-_ZN5boost16exception_detail10clone_implINS0_19error_info_injectorINS_15condition_errorEEEED1Ev
	.section	.text._ZN5boost16exception_detail10clone_implINS0_19error_info_injectorINS_15condition_errorEEEED0Ev,"axG",@progbits,_ZN5boost16exception_detail10clone_implINS0_19error_info_injectorINS_15condition_errorEEEED0Ev,comdat
	.align 2
	.p2align 4,,15
	.weak	_ZN5boost16exception_detail10clone_implINS0_19error_info_injectorINS_15condition_errorEEEED0Ev
	.type	_ZN5boost16exception_detail10clone_implINS0_19error_info_injectorINS_15condition_errorEEEED0Ev, @function
_ZN5boost16exception_detail10clone_implINS0_19error_info_injectorINS_15condition_errorEEEED0Ev:
.LFB11806:
	.cfi_startproc
	pushq	%rbx
	.cfi_def_cfa_offset 16
	.cfi_offset 3, -16
	movq	%rdi, %rbx
	movq	$_ZTVN5boost16exception_detail10clone_implINS0_19error_info_injectorINS_15condition_errorEEEEE+24, (%rdi)
	movq	$_ZTVN5boost16exception_detail10clone_implINS0_19error_info_injectorINS_15condition_errorEEEEE+80, 64(%rdi)
	movq	$_ZTVN5boost16exception_detail10clone_implINS0_19error_info_injectorINS_15condition_errorEEEEE+136, 104(%rdi)
	call	_ZN5boost16exception_detail19error_info_injectorINS_15condition_errorEED2Ev
	movq	%rbx, %rdi
	movl	$112, %esi
	popq	%rbx
	.cfi_def_cfa_offset 8
	jmp	_ZdlPvm
	.cfi_endproc
.LFE11806:
	.size	_ZN5boost16exception_detail10clone_implINS0_19error_info_injectorINS_15condition_errorEEEED0Ev, .-_ZN5boost16exception_detail10clone_implINS0_19error_info_injectorINS_15condition_errorEEEED0Ev
	.section	.text._ZNK5boost16exception_detail10clone_implINS0_14bad_exception_EE7rethrowEv,"axG",@progbits,_ZNK5boost16exception_detail10clone_implINS0_14bad_exception_EE7rethrowEv,comdat
	.align 2
	.p2align 4,,15
	.weak	_ZNK5boost16exception_detail10clone_implINS0_14bad_exception_EE7rethrowEv
	.type	_ZNK5boost16exception_detail10clone_implINS0_14bad_exception_EE7rethrowEv, @function
_ZNK5boost16exception_detail10clone_implINS0_14bad_exception_EE7rethrowEv:
.LFB14088:
	.cfi_startproc
	.cfi_personality 0x3,__gxx_personality_v0
	.cfi_lsda 0x3,.LLSDA14088
	pushq	%rbp
	.cfi_def_cfa_offset 16
	.cfi_offset 6, -16
	pushq	%rbx
	.cfi_def_cfa_offset 24
	.cfi_offset 3, -24
	movq	%rdi, %rbp
	movl	$56, %edi
	subq	$8, %rsp
	.cfi_def_cfa_offset 32
	call	__cxa_allocate_exception
	movq	8(%rbp), %rdi
	movq	%rax, %rbx
	movq	$_ZTVN5boost16exception_detail10clone_baseE+16, 48(%rax)
	movq	$_ZTVN5boost9exceptionE+16, (%rax)
	testq	%rdi, %rdi
	movq	%rdi, 8(%rax)
	je	.L116
	movq	(%rdi), %rax
.LEHB0:
	call	*24(%rax)
.LEHE0:
.L116:
	movq	16(%rbp), %rax
	movl	$_ZN5boost16exception_detail10clone_implINS0_14bad_exception_EED1Ev, %edx
	movl	$_ZTIN5boost16exception_detail10clone_implINS0_14bad_exception_EEE, %esi
	movq	%rbx, %rdi
	movq	$_ZTVN5boost16exception_detail10clone_implINS0_14bad_exception_EEE+24, (%rbx)
	movq	$_ZTVN5boost16exception_detail10clone_implINS0_14bad_exception_EEE+72, 40(%rbx)
	movq	$_ZTVN5boost16exception_detail10clone_implINS0_14bad_exception_EEE+136, 48(%rbx)
	movq	%rax, 16(%rbx)
	movq	24(%rbp), %rax
	movq	%rax, 24(%rbx)
	movl	32(%rbp), %eax
	movl	%eax, 32(%rbx)
.LEHB1:
	call	__cxa_throw
.L118:
	movq	%rax, %rbp
	movq	%rbx, %rdi
	call	__cxa_free_exception
	movq	%rbp, %rdi
	call	_Unwind_Resume
.LEHE1:
	.cfi_endproc
.LFE14088:
	.section	.gcc_except_table._ZNK5boost16exception_detail10clone_implINS0_14bad_exception_EE7rethrowEv,"aG",@progbits,_ZNK5boost16exception_detail10clone_implINS0_14bad_exception_EE7rethrowEv,comdat
.LLSDA14088:
	.byte	0xff
	.byte	0xff
	.byte	0x1
	.uleb128 .LLSDACSE14088-.LLSDACSB14088
.LLSDACSB14088:
	.uleb128 .LEHB0-.LFB14088
	.uleb128 .LEHE0-.LEHB0
	.uleb128 .L118-.LFB14088
	.uleb128 0
	.uleb128 .LEHB1-.LFB14088
	.uleb128 .LEHE1-.LEHB1
	.uleb128 0
	.uleb128 0
.LLSDACSE14088:
	.section	.text._ZNK5boost16exception_detail10clone_implINS0_14bad_exception_EE7rethrowEv,"axG",@progbits,_ZNK5boost16exception_detail10clone_implINS0_14bad_exception_EE7rethrowEv,comdat
	.size	_ZNK5boost16exception_detail10clone_implINS0_14bad_exception_EE7rethrowEv, .-_ZNK5boost16exception_detail10clone_implINS0_14bad_exception_EE7rethrowEv
	.set	.LTHUNK257,_ZNK5boost16exception_detail10clone_implINS0_14bad_exception_EE7rethrowEv
	.p2align 4,,15
	.weak	_ZTv0_n32_NK5boost16exception_detail10clone_implINS0_14bad_exception_EE7rethrowEv
	.type	_ZTv0_n32_NK5boost16exception_detail10clone_implINS0_14bad_exception_EE7rethrowEv, @function
_ZTv0_n32_NK5boost16exception_detail10clone_implINS0_14bad_exception_EE7rethrowEv:
.LFB14792:
	.cfi_startproc
	movq	(%rdi), %r10
	addq	-32(%r10), %rdi
	jmp	.LTHUNK257
	.cfi_endproc
.LFE14792:
	.size	_ZTv0_n32_NK5boost16exception_detail10clone_implINS0_14bad_exception_EE7rethrowEv, .-_ZTv0_n32_NK5boost16exception_detail10clone_implINS0_14bad_exception_EE7rethrowEv
	.section	.text._ZNK5boost16exception_detail10clone_implINS0_10bad_alloc_EE7rethrowEv,"axG",@progbits,_ZNK5boost16exception_detail10clone_implINS0_10bad_alloc_EE7rethrowEv,comdat
	.align 2
	.p2align 4,,15
	.weak	_ZNK5boost16exception_detail10clone_implINS0_10bad_alloc_EE7rethrowEv
	.type	_ZNK5boost16exception_detail10clone_implINS0_10bad_alloc_EE7rethrowEv, @function
_ZNK5boost16exception_detail10clone_implINS0_10bad_alloc_EE7rethrowEv:
.LFB14090:
	.cfi_startproc
	.cfi_personality 0x3,__gxx_personality_v0
	.cfi_lsda 0x3,.LLSDA14090
	pushq	%rbp
	.cfi_def_cfa_offset 16
	.cfi_offset 6, -16
	pushq	%rbx
	.cfi_def_cfa_offset 24
	.cfi_offset 3, -24
	movq	%rdi, %rbp
	movl	$56, %edi
	subq	$8, %rsp
	.cfi_def_cfa_offset 32
	call	__cxa_allocate_exception
	movq	8(%rbp), %rdi
	movq	%rax, %rbx
	movq	$_ZTVN5boost16exception_detail10clone_baseE+16, 48(%rax)
	movq	$_ZTVN5boost9exceptionE+16, (%rax)
	testq	%rdi, %rdi
	movq	%rdi, 8(%rax)
	je	.L122
	movq	(%rdi), %rax
.LEHB2:
	call	*24(%rax)
.LEHE2:
.L122:
	movq	16(%rbp), %rax
	movl	$_ZN5boost16exception_detail10clone_implINS0_10bad_alloc_EED1Ev, %edx
	movl	$_ZTIN5boost16exception_detail10clone_implINS0_10bad_alloc_EEE, %esi
	movq	%rbx, %rdi
	movq	$_ZTVN5boost16exception_detail10clone_implINS0_10bad_alloc_EEE+24, (%rbx)
	movq	$_ZTVN5boost16exception_detail10clone_implINS0_10bad_alloc_EEE+72, 40(%rbx)
	movq	$_ZTVN5boost16exception_detail10clone_implINS0_10bad_alloc_EEE+136, 48(%rbx)
	movq	%rax, 16(%rbx)
	movq	24(%rbp), %rax
	movq	%rax, 24(%rbx)
	movl	32(%rbp), %eax
	movl	%eax, 32(%rbx)
.LEHB3:
	call	__cxa_throw
.L124:
	movq	%rax, %rbp
	movq	%rbx, %rdi
	call	__cxa_free_exception
	movq	%rbp, %rdi
	call	_Unwind_Resume
.LEHE3:
	.cfi_endproc
.LFE14090:
	.section	.gcc_except_table._ZNK5boost16exception_detail10clone_implINS0_10bad_alloc_EE7rethrowEv,"aG",@progbits,_ZNK5boost16exception_detail10clone_implINS0_10bad_alloc_EE7rethrowEv,comdat
.LLSDA14090:
	.byte	0xff
	.byte	0xff
	.byte	0x1
	.uleb128 .LLSDACSE14090-.LLSDACSB14090
.LLSDACSB14090:
	.uleb128 .LEHB2-.LFB14090
	.uleb128 .LEHE2-.LEHB2
	.uleb128 .L124-.LFB14090
	.uleb128 0
	.uleb128 .LEHB3-.LFB14090
	.uleb128 .LEHE3-.LEHB3
	.uleb128 0
	.uleb128 0
.LLSDACSE14090:
	.section	.text._ZNK5boost16exception_detail10clone_implINS0_10bad_alloc_EE7rethrowEv,"axG",@progbits,_ZNK5boost16exception_detail10clone_implINS0_10bad_alloc_EE7rethrowEv,comdat
	.size	_ZNK5boost16exception_detail10clone_implINS0_10bad_alloc_EE7rethrowEv, .-_ZNK5boost16exception_detail10clone_implINS0_10bad_alloc_EE7rethrowEv
	.set	.LTHUNK259,_ZNK5boost16exception_detail10clone_implINS0_10bad_alloc_EE7rethrowEv
	.p2align 4,,15
	.weak	_ZTv0_n32_NK5boost16exception_detail10clone_implINS0_10bad_alloc_EE7rethrowEv
	.type	_ZTv0_n32_NK5boost16exception_detail10clone_implINS0_10bad_alloc_EE7rethrowEv, @function
_ZTv0_n32_NK5boost16exception_detail10clone_implINS0_10bad_alloc_EE7rethrowEv:
.LFB14793:
	.cfi_startproc
	movq	(%rdi), %r10
	addq	-32(%r10), %rdi
	jmp	.LTHUNK259
	.cfi_endproc
.LFE14793:
	.size	_ZTv0_n32_NK5boost16exception_detail10clone_implINS0_10bad_alloc_EE7rethrowEv, .-_ZTv0_n32_NK5boost16exception_detail10clone_implINS0_10bad_alloc_EE7rethrowEv
	.section	.text._ZNK5boost16exception_detail10clone_implINS_17unknown_exceptionEE7rethrowEv,"axG",@progbits,_ZNK5boost16exception_detail10clone_implINS_17unknown_exceptionEE7rethrowEv,comdat
	.align 2
	.p2align 4,,15
	.weak	_ZNK5boost16exception_detail10clone_implINS_17unknown_exceptionEE7rethrowEv
	.type	_ZNK5boost16exception_detail10clone_implINS_17unknown_exceptionEE7rethrowEv, @function
_ZNK5boost16exception_detail10clone_implINS_17unknown_exceptionEE7rethrowEv:
.LFB14092:
	.cfi_startproc
	.cfi_personality 0x3,__gxx_personality_v0
	.cfi_lsda 0x3,.LLSDA14092
	pushq	%rbp
	.cfi_def_cfa_offset 16
	.cfi_offset 6, -16
	pushq	%rbx
	.cfi_def_cfa_offset 24
	.cfi_offset 3, -24
	movq	%rdi, %rbp
	movl	$56, %edi
	subq	$8, %rsp
	.cfi_def_cfa_offset 32
	call	__cxa_allocate_exception
	movq	8(%rbp), %rdi
	movq	%rax, %rbx
	movq	$_ZTVN5boost16exception_detail10clone_baseE+16, 48(%rax)
	movq	$_ZTVN5boost9exceptionE+16, (%rax)
	testq	%rdi, %rdi
	movq	%rdi, 8(%rax)
	je	.L128
	movq	(%rdi), %rax
.LEHB4:
	call	*24(%rax)
.LEHE4:
.L128:
	movq	16(%rbp), %rax
	movl	$_ZN5boost16exception_detail10clone_implINS_17unknown_exceptionEED1Ev, %edx
	movl	$_ZTIN5boost16exception_detail10clone_implINS_17unknown_exceptionEEE, %esi
	movq	%rbx, %rdi
	movq	$_ZTVN5boost16exception_detail10clone_implINS_17unknown_exceptionEEE+24, (%rbx)
	movq	$_ZTVN5boost16exception_detail10clone_implINS_17unknown_exceptionEEE+72, 40(%rbx)
	movq	$_ZTVN5boost16exception_detail10clone_implINS_17unknown_exceptionEEE+136, 48(%rbx)
	movq	%rax, 16(%rbx)
	movq	24(%rbp), %rax
	movq	%rax, 24(%rbx)
	movl	32(%rbp), %eax
	movl	%eax, 32(%rbx)
.LEHB5:
	call	__cxa_throw
.L130:
	movq	%rax, %rbp
	movq	%rbx, %rdi
	call	__cxa_free_exception
	movq	%rbp, %rdi
	call	_Unwind_Resume
.LEHE5:
	.cfi_endproc
.LFE14092:
	.section	.gcc_except_table._ZNK5boost16exception_detail10clone_implINS_17unknown_exceptionEE7rethrowEv,"aG",@progbits,_ZNK5boost16exception_detail10clone_implINS_17unknown_exceptionEE7rethrowEv,comdat
.LLSDA14092:
	.byte	0xff
	.byte	0xff
	.byte	0x1
	.uleb128 .LLSDACSE14092-.LLSDACSB14092
.LLSDACSB14092:
	.uleb128 .LEHB4-.LFB14092
	.uleb128 .LEHE4-.LEHB4
	.uleb128 .L130-.LFB14092
	.uleb128 0
	.uleb128 .LEHB5-.LFB14092
	.uleb128 .LEHE5-.LEHB5
	.uleb128 0
	.uleb128 0
.LLSDACSE14092:
	.section	.text._ZNK5boost16exception_detail10clone_implINS_17unknown_exceptionEE7rethrowEv,"axG",@progbits,_ZNK5boost16exception_detail10clone_implINS_17unknown_exceptionEE7rethrowEv,comdat
	.size	_ZNK5boost16exception_detail10clone_implINS_17unknown_exceptionEE7rethrowEv, .-_ZNK5boost16exception_detail10clone_implINS_17unknown_exceptionEE7rethrowEv
	.set	.LTHUNK261,_ZNK5boost16exception_detail10clone_implINS_17unknown_exceptionEE7rethrowEv
	.p2align 4,,15
	.weak	_ZTv0_n32_NK5boost16exception_detail10clone_implINS_17unknown_exceptionEE7rethrowEv
	.type	_ZTv0_n32_NK5boost16exception_detail10clone_implINS_17unknown_exceptionEE7rethrowEv, @function
_ZTv0_n32_NK5boost16exception_detail10clone_implINS_17unknown_exceptionEE7rethrowEv:
.LFB14794:
	.cfi_startproc
	movq	(%rdi), %r10
	addq	-32(%r10), %rdi
	jmp	.LTHUNK261
	.cfi_endproc
.LFE14794:
	.size	_ZTv0_n32_NK5boost16exception_detail10clone_implINS_17unknown_exceptionEE7rethrowEv, .-_ZTv0_n32_NK5boost16exception_detail10clone_implINS_17unknown_exceptionEE7rethrowEv
	.section	.text._ZN5boost12future_errorD2Ev,"axG",@progbits,_ZN5boost12future_errorD5Ev,comdat
	.align 2
	.p2align 4,,15
	.weak	_ZN5boost12future_errorD2Ev
	.type	_ZN5boost12future_errorD2Ev, @function
_ZN5boost12future_errorD2Ev:
.LFB7040:
	.cfi_startproc
	movq	$_ZTVN5boost12future_errorE+16, (%rdi)
	jmp	_ZNSt11logic_errorD2Ev
	.cfi_endproc
.LFE7040:
	.size	_ZN5boost12future_errorD2Ev, .-_ZN5boost12future_errorD2Ev
	.weak	_ZN5boost12future_errorD1Ev
	.set	_ZN5boost12future_errorD1Ev,_ZN5boost12future_errorD2Ev
	.section	.text._ZN5boost12future_errorD0Ev,"axG",@progbits,_ZN5boost12future_errorD5Ev,comdat
	.align 2
	.p2align 4,,15
	.weak	_ZN5boost12future_errorD0Ev
	.type	_ZN5boost12future_errorD0Ev, @function
_ZN5boost12future_errorD0Ev:
.LFB7042:
	.cfi_startproc
	pushq	%rbx
	.cfi_def_cfa_offset 16
	.cfi_offset 3, -16
	movq	%rdi, %rbx
	movq	$_ZTVN5boost12future_errorE+16, (%rdi)
	call	_ZNSt11logic_errorD2Ev
	movq	%rbx, %rdi
	movl	$32, %esi
	popq	%rbx
	.cfi_def_cfa_offset 8
	jmp	_ZdlPvm
	.cfi_endproc
.LFE7042:
	.size	_ZN5boost12future_errorD0Ev, .-_ZN5boost12future_errorD0Ev
	.section	.text._ZN5boost10task_movedD2Ev,"axG",@progbits,_ZN5boost10task_movedD5Ev,comdat
	.align 2
	.p2align 4,,15
	.weak	_ZN5boost10task_movedD2Ev
	.type	_ZN5boost10task_movedD2Ev, @function
_ZN5boost10task_movedD2Ev:
.LFB12931:
	.cfi_startproc
	movq	$_ZTVN5boost12future_errorE+16, (%rdi)
	jmp	_ZNSt11logic_errorD2Ev
	.cfi_endproc
.LFE12931:
	.size	_ZN5boost10task_movedD2Ev, .-_ZN5boost10task_movedD2Ev
	.weak	_ZN5boost10task_movedD1Ev
	.set	_ZN5boost10task_movedD1Ev,_ZN5boost10task_movedD2Ev
	.section	.text._ZN5boost10task_movedD0Ev,"axG",@progbits,_ZN5boost10task_movedD5Ev,comdat
	.align 2
	.p2align 4,,15
	.weak	_ZN5boost10task_movedD0Ev
	.type	_ZN5boost10task_movedD0Ev, @function
_ZN5boost10task_movedD0Ev:
.LFB12933:
	.cfi_startproc
	pushq	%rbx
	.cfi_def_cfa_offset 16
	.cfi_offset 3, -16
	movq	%rdi, %rbx
	movq	$_ZTVN5boost12future_errorE+16, (%rdi)
	call	_ZNSt11logic_errorD2Ev
	movq	%rbx, %rdi
	movl	$32, %esi
	popq	%rbx
	.cfi_def_cfa_offset 8
	jmp	_ZdlPvm
	.cfi_endproc
.LFE12933:
	.size	_ZN5boost10task_movedD0Ev, .-_ZN5boost10task_movedD0Ev
	.section	.text._ZN5boost20task_already_startedD2Ev,"axG",@progbits,_ZN5boost20task_already_startedD5Ev,comdat
	.align 2
	.p2align 4,,15
	.weak	_ZN5boost20task_already_startedD2Ev
	.type	_ZN5boost20task_already_startedD2Ev, @function
_ZN5boost20task_already_startedD2Ev:
.LFB13894:
	.cfi_startproc
	movq	$_ZTVN5boost12future_errorE+16, (%rdi)
	jmp	_ZNSt11logic_errorD2Ev
	.cfi_endproc
.LFE13894:
	.size	_ZN5boost20task_already_startedD2Ev, .-_ZN5boost20task_already_startedD2Ev
	.weak	_ZN5boost20task_already_startedD1Ev
	.set	_ZN5boost20task_already_startedD1Ev,_ZN5boost20task_already_startedD2Ev
	.section	.text._ZN5boost20task_already_startedD0Ev,"axG",@progbits,_ZN5boost20task_already_startedD5Ev,comdat
	.align 2
	.p2align 4,,15
	.weak	_ZN5boost20task_already_startedD0Ev
	.type	_ZN5boost20task_already_startedD0Ev, @function
_ZN5boost20task_already_startedD0Ev:
.LFB13896:
	.cfi_startproc
	pushq	%rbx
	.cfi_def_cfa_offset 16
	.cfi_offset 3, -16
	movq	%rdi, %rbx
	movq	$_ZTVN5boost12future_errorE+16, (%rdi)
	call	_ZNSt11logic_errorD2Ev
	movq	%rbx, %rdi
	movl	$32, %esi
	popq	%rbx
	.cfi_def_cfa_offset 8
	jmp	_ZdlPvm
	.cfi_endproc
.LFE13896:
	.size	_ZN5boost20task_already_startedD0Ev, .-_ZN5boost20task_already_startedD0Ev
	.section	.text._ZN5boost20future_uninitializedD2Ev,"axG",@progbits,_ZN5boost20future_uninitializedD5Ev,comdat
	.align 2
	.p2align 4,,15
	.weak	_ZN5boost20future_uninitializedD2Ev
	.type	_ZN5boost20future_uninitializedD2Ev, @function
_ZN5boost20future_uninitializedD2Ev:
.LFB11487:
	.cfi_startproc
	movq	$_ZTVN5boost12future_errorE+16, (%rdi)
	jmp	_ZNSt11logic_errorD2Ev
	.cfi_endproc
.LFE11487:
	.size	_ZN5boost20future_uninitializedD2Ev, .-_ZN5boost20future_uninitializedD2Ev
	.weak	_ZN5boost20future_uninitializedD1Ev
	.set	_ZN5boost20future_uninitializedD1Ev,_ZN5boost20future_uninitializedD2Ev
	.section	.text._ZN5boost20future_uninitializedD0Ev,"axG",@progbits,_ZN5boost20future_uninitializedD5Ev,comdat
	.align 2
	.p2align 4,,15
	.weak	_ZN5boost20future_uninitializedD0Ev
	.type	_ZN5boost20future_uninitializedD0Ev, @function
_ZN5boost20future_uninitializedD0Ev:
.LFB11489:
	.cfi_startproc
	pushq	%rbx
	.cfi_def_cfa_offset 16
	.cfi_offset 3, -16
	movq	%rdi, %rbx
	movq	$_ZTVN5boost12future_errorE+16, (%rdi)
	call	_ZNSt11logic_errorD2Ev
	movq	%rbx, %rdi
	movl	$32, %esi
	popq	%rbx
	.cfi_def_cfa_offset 8
	jmp	_ZdlPvm
	.cfi_endproc
.LFE11489:
	.size	_ZN5boost20future_uninitializedD0Ev, .-_ZN5boost20future_uninitializedD0Ev
	.section	.text._ZN5boost24future_already_retrievedD2Ev,"axG",@progbits,_ZN5boost24future_already_retrievedD5Ev,comdat
	.align 2
	.p2align 4,,15
	.weak	_ZN5boost24future_already_retrievedD2Ev
	.type	_ZN5boost24future_already_retrievedD2Ev, @function
_ZN5boost24future_already_retrievedD2Ev:
.LFB12306:
	.cfi_startproc
	movq	$_ZTVN5boost12future_errorE+16, (%rdi)
	jmp	_ZNSt11logic_errorD2Ev
	.cfi_endproc
.LFE12306:
	.size	_ZN5boost24future_already_retrievedD2Ev, .-_ZN5boost24future_already_retrievedD2Ev
	.weak	_ZN5boost24future_already_retrievedD1Ev
	.set	_ZN5boost24future_already_retrievedD1Ev,_ZN5boost24future_already_retrievedD2Ev
	.section	.text._ZN5boost24future_already_retrievedD0Ev,"axG",@progbits,_ZN5boost24future_already_retrievedD5Ev,comdat
	.align 2
	.p2align 4,,15
	.weak	_ZN5boost24future_already_retrievedD0Ev
	.type	_ZN5boost24future_already_retrievedD0Ev, @function
_ZN5boost24future_already_retrievedD0Ev:
.LFB12308:
	.cfi_startproc
	pushq	%rbx
	.cfi_def_cfa_offset 16
	.cfi_offset 3, -16
	movq	%rdi, %rbx
	movq	$_ZTVN5boost12future_errorE+16, (%rdi)
	call	_ZNSt11logic_errorD2Ev
	movq	%rbx, %rdi
	movl	$32, %esi
	popq	%rbx
	.cfi_def_cfa_offset 8
	jmp	_ZdlPvm
	.cfi_endproc
.LFE12308:
	.size	_ZN5boost24future_already_retrievedD0Ev, .-_ZN5boost24future_already_retrievedD0Ev
	.section	.text._ZN5boost14broken_promiseD2Ev,"axG",@progbits,_ZN5boost14broken_promiseD5Ev,comdat
	.align 2
	.p2align 4,,15
	.weak	_ZN5boost14broken_promiseD2Ev
	.type	_ZN5boost14broken_promiseD2Ev, @function
_ZN5boost14broken_promiseD2Ev:
.LFB12281:
	.cfi_startproc
	movq	$_ZTVN5boost12future_errorE+16, (%rdi)
	jmp	_ZNSt11logic_errorD2Ev
	.cfi_endproc
.LFE12281:
	.size	_ZN5boost14broken_promiseD2Ev, .-_ZN5boost14broken_promiseD2Ev
	.weak	_ZN5boost14broken_promiseD1Ev
	.set	_ZN5boost14broken_promiseD1Ev,_ZN5boost14broken_promiseD2Ev
	.section	.text._ZN5boost14broken_promiseD0Ev,"axG",@progbits,_ZN5boost14broken_promiseD5Ev,comdat
	.align 2
	.p2align 4,,15
	.weak	_ZN5boost14broken_promiseD0Ev
	.type	_ZN5boost14broken_promiseD0Ev, @function
_ZN5boost14broken_promiseD0Ev:
.LFB12283:
	.cfi_startproc
	pushq	%rbx
	.cfi_def_cfa_offset 16
	.cfi_offset 3, -16
	movq	%rdi, %rbx
	movq	$_ZTVN5boost12future_errorE+16, (%rdi)
	call	_ZNSt11logic_errorD2Ev
	movq	%rbx, %rdi
	movl	$32, %esi
	popq	%rbx
	.cfi_def_cfa_offset 8
	jmp	_ZdlPvm
	.cfi_endproc
.LFE12283:
	.size	_ZN5boost14broken_promiseD0Ev, .-_ZN5boost14broken_promiseD0Ev
	.section	.text._ZN5boost25promise_already_satisfiedD2Ev,"axG",@progbits,_ZN5boost25promise_already_satisfiedD5Ev,comdat
	.align 2
	.p2align 4,,15
	.weak	_ZN5boost25promise_already_satisfiedD2Ev
	.type	_ZN5boost25promise_already_satisfiedD2Ev, @function
_ZN5boost25promise_already_satisfiedD2Ev:
.LFB12227:
	.cfi_startproc
	movq	$_ZTVN5boost12future_errorE+16, (%rdi)
	jmp	_ZNSt11logic_errorD2Ev
	.cfi_endproc
.LFE12227:
	.size	_ZN5boost25promise_already_satisfiedD2Ev, .-_ZN5boost25promise_already_satisfiedD2Ev
	.weak	_ZN5boost25promise_already_satisfiedD1Ev
	.set	_ZN5boost25promise_already_satisfiedD1Ev,_ZN5boost25promise_already_satisfiedD2Ev
	.section	.text._ZN5boost25promise_already_satisfiedD0Ev,"axG",@progbits,_ZN5boost25promise_already_satisfiedD5Ev,comdat
	.align 2
	.p2align 4,,15
	.weak	_ZN5boost25promise_already_satisfiedD0Ev
	.type	_ZN5boost25promise_already_satisfiedD0Ev, @function
_ZN5boost25promise_already_satisfiedD0Ev:
.LFB12229:
	.cfi_startproc
	pushq	%rbx
	.cfi_def_cfa_offset 16
	.cfi_offset 3, -16
	movq	%rdi, %rbx
	movq	$_ZTVN5boost12future_errorE+16, (%rdi)
	call	_ZNSt11logic_errorD2Ev
	movq	%rbx, %rdi
	movl	$32, %esi
	popq	%rbx
	.cfi_def_cfa_offset 8
	jmp	_ZdlPvm
	.cfi_endproc
.LFE12229:
	.size	_ZN5boost25promise_already_satisfiedD0Ev, .-_ZN5boost25promise_already_satisfiedD0Ev
	.section	.text._ZN5boost16exception_detail10clone_implINS_14broken_promiseEED1Ev,"axG",@progbits,_ZN5boost16exception_detail10clone_implINS_14broken_promiseEED1Ev,comdat
	.align 2
	.p2align 4,,15
	.weak	_ZN5boost16exception_detail10clone_implINS_14broken_promiseEED1Ev
	.type	_ZN5boost16exception_detail10clone_implINS_14broken_promiseEED1Ev, @function
_ZN5boost16exception_detail10clone_implINS_14broken_promiseEED1Ev:
.LFB12285:
	.cfi_startproc
	movq	$_ZTVN5boost16exception_detail10clone_implINS_14broken_promiseEEE+104, 32(%rdi)
	movq	$_ZTVN5boost12future_errorE+16, (%rdi)
	jmp	_ZNSt11logic_errorD2Ev
	.cfi_endproc
.LFE12285:
	.size	_ZN5boost16exception_detail10clone_implINS_14broken_promiseEED1Ev, .-_ZN5boost16exception_detail10clone_implINS_14broken_promiseEED1Ev
	.section	.text._ZN5boost16exception_detail10clone_implINS_14broken_promiseEED0Ev,"axG",@progbits,_ZN5boost16exception_detail10clone_implINS_14broken_promiseEED0Ev,comdat
	.align 2
	.p2align 4,,15
	.weak	_ZN5boost16exception_detail10clone_implINS_14broken_promiseEED0Ev
	.type	_ZN5boost16exception_detail10clone_implINS_14broken_promiseEED0Ev, @function
_ZN5boost16exception_detail10clone_implINS_14broken_promiseEED0Ev:
.LFB12286:
	.cfi_startproc
	pushq	%rbx
	.cfi_def_cfa_offset 16
	.cfi_offset 3, -16
	movq	%rdi, %rbx
	movq	$_ZTVN5boost16exception_detail10clone_implINS_14broken_promiseEEE+104, 32(%rdi)
	movq	$_ZTVN5boost12future_errorE+16, (%rdi)
	call	_ZNSt11logic_errorD2Ev
	movq	%rbx, %rdi
	movl	$40, %esi
	popq	%rbx
	.cfi_def_cfa_offset 8
	jmp	_ZdlPvm
	.cfi_endproc
.LFE12286:
	.size	_ZN5boost16exception_detail10clone_implINS_14broken_promiseEED0Ev, .-_ZN5boost16exception_detail10clone_implINS_14broken_promiseEED0Ev
	.section	.text._ZN5boost16exception_detail19error_info_injectorINS_10task_movedEED2Ev,"axG",@progbits,_ZN5boost16exception_detail19error_info_injectorINS_10task_movedEED5Ev,comdat
	.align 2
	.p2align 4,,15
	.weak	_ZN5boost16exception_detail19error_info_injectorINS_10task_movedEED2Ev
	.type	_ZN5boost16exception_detail19error_info_injectorINS_10task_movedEED2Ev, @function
_ZN5boost16exception_detail19error_info_injectorINS_10task_movedEED2Ev:
.LFB13566:
	.cfi_startproc
	.cfi_personality 0x3,__gxx_personality_v0
	.cfi_lsda 0x3,.LLSDA13566
	pushq	%rbx
	.cfi_def_cfa_offset 16
	.cfi_offset 3, -16
	movq	%rdi, %rbx
	movq	$_ZTVN5boost16exception_detail19error_info_injectorINS_10task_movedEEE+16, (%rdi)
	movq	$_ZTVN5boost9exceptionE+16, 32(%rdi)
	movq	40(%rdi), %rdi
	testq	%rdi, %rdi
	je	.L157
	movq	(%rdi), %rax
	call	*32(%rax)
.L157:
	movq	$_ZTVN5boost12future_errorE+16, (%rbx)
	movq	%rbx, %rdi
	popq	%rbx
	.cfi_def_cfa_offset 8
	jmp	_ZNSt11logic_errorD2Ev
	.cfi_endproc
.LFE13566:
	.section	.gcc_except_table._ZN5boost16exception_detail19error_info_injectorINS_10task_movedEED2Ev,"aG",@progbits,_ZN5boost16exception_detail19error_info_injectorINS_10task_movedEED5Ev,comdat
.LLSDA13566:
	.byte	0xff
	.byte	0xff
	.byte	0x1
	.uleb128 .LLSDACSE13566-.LLSDACSB13566
.LLSDACSB13566:
.LLSDACSE13566:
	.section	.text._ZN5boost16exception_detail19error_info_injectorINS_10task_movedEED2Ev,"axG",@progbits,_ZN5boost16exception_detail19error_info_injectorINS_10task_movedEED5Ev,comdat
	.size	_ZN5boost16exception_detail19error_info_injectorINS_10task_movedEED2Ev, .-_ZN5boost16exception_detail19error_info_injectorINS_10task_movedEED2Ev
	.weak	_ZN5boost16exception_detail19error_info_injectorINS_10task_movedEED1Ev
	.set	_ZN5boost16exception_detail19error_info_injectorINS_10task_movedEED1Ev,_ZN5boost16exception_detail19error_info_injectorINS_10task_movedEED2Ev
	.set	.LTHUNK200,_ZN5boost16exception_detail19error_info_injectorINS_10task_movedEED1Ev
	.p2align 4,,15
	.weak	_ZThn32_N5boost16exception_detail19error_info_injectorINS_10task_movedEED1Ev
	.type	_ZThn32_N5boost16exception_detail19error_info_injectorINS_10task_movedEED1Ev, @function
_ZThn32_N5boost16exception_detail19error_info_injectorINS_10task_movedEED1Ev:
.LFB14797:
	.cfi_startproc
	subq	$32, %rdi
	jmp	.LTHUNK200
	.cfi_endproc
.LFE14797:
	.size	_ZThn32_N5boost16exception_detail19error_info_injectorINS_10task_movedEED1Ev, .-_ZThn32_N5boost16exception_detail19error_info_injectorINS_10task_movedEED1Ev
	.section	.text._ZN5boost16exception_detail19error_info_injectorINS_10task_movedEED0Ev,"axG",@progbits,_ZN5boost16exception_detail19error_info_injectorINS_10task_movedEED5Ev,comdat
	.align 2
	.p2align 4,,15
	.weak	_ZN5boost16exception_detail19error_info_injectorINS_10task_movedEED0Ev
	.type	_ZN5boost16exception_detail19error_info_injectorINS_10task_movedEED0Ev, @function
_ZN5boost16exception_detail19error_info_injectorINS_10task_movedEED0Ev:
.LFB13568:
	.cfi_startproc
	pushq	%rbx
	.cfi_def_cfa_offset 16
	.cfi_offset 3, -16
	movq	%rdi, %rbx
	call	_ZN5boost16exception_detail19error_info_injectorINS_10task_movedEED1Ev
	movq	%rbx, %rdi
	movl	$72, %esi
	popq	%rbx
	.cfi_def_cfa_offset 8
	jmp	_ZdlPvm
	.cfi_endproc
.LFE13568:
	.size	_ZN5boost16exception_detail19error_info_injectorINS_10task_movedEED0Ev, .-_ZN5boost16exception_detail19error_info_injectorINS_10task_movedEED0Ev
	.section	.text._ZN5boost16exception_detail10clone_implINS0_19error_info_injectorINS_10task_movedEEEED1Ev,"axG",@progbits,_ZN5boost16exception_detail10clone_implINS0_19error_info_injectorINS_10task_movedEEEED1Ev,comdat
	.align 2
	.p2align 4,,15
	.weak	_ZN5boost16exception_detail10clone_implINS0_19error_info_injectorINS_10task_movedEEEED1Ev
	.type	_ZN5boost16exception_detail10clone_implINS0_19error_info_injectorINS_10task_movedEEEED1Ev, @function
_ZN5boost16exception_detail10clone_implINS0_19error_info_injectorINS_10task_movedEEEED1Ev:
.LFB13572:
	.cfi_startproc
	movq	$_ZTVN5boost16exception_detail10clone_implINS0_19error_info_injectorINS_10task_movedEEEEE+24, (%rdi)
	movq	$_ZTVN5boost16exception_detail10clone_implINS0_19error_info_injectorINS_10task_movedEEEEE+80, 32(%rdi)
	movq	$_ZTVN5boost16exception_detail10clone_implINS0_19error_info_injectorINS_10task_movedEEEEE+136, 72(%rdi)
	jmp	_ZN5boost16exception_detail19error_info_injectorINS_10task_movedEED2Ev
	.cfi_endproc
.LFE13572:
	.size	_ZN5boost16exception_detail10clone_implINS0_19error_info_injectorINS_10task_movedEEEED1Ev, .-_ZN5boost16exception_detail10clone_implINS0_19error_info_injectorINS_10task_movedEEEED1Ev
	.section	.text._ZN5boost16exception_detail10clone_implINS0_19error_info_injectorINS_10task_movedEEEED0Ev,"axG",@progbits,_ZN5boost16exception_detail10clone_implINS0_19error_info_injectorINS_10task_movedEEEED0Ev,comdat
	.align 2
	.p2align 4,,15
	.weak	_ZN5boost16exception_detail10clone_implINS0_19error_info_injectorINS_10task_movedEEEED0Ev
	.type	_ZN5boost16exception_detail10clone_implINS0_19error_info_injectorINS_10task_movedEEEED0Ev, @function
_ZN5boost16exception_detail10clone_implINS0_19error_info_injectorINS_10task_movedEEEED0Ev:
.LFB13573:
	.cfi_startproc
	pushq	%rbx
	.cfi_def_cfa_offset 16
	.cfi_offset 3, -16
	movq	%rdi, %rbx
	movq	$_ZTVN5boost16exception_detail10clone_implINS0_19error_info_injectorINS_10task_movedEEEEE+24, (%rdi)
	movq	$_ZTVN5boost16exception_detail10clone_implINS0_19error_info_injectorINS_10task_movedEEEEE+80, 32(%rdi)
	movq	$_ZTVN5boost16exception_detail10clone_implINS0_19error_info_injectorINS_10task_movedEEEEE+136, 72(%rdi)
	call	_ZN5boost16exception_detail19error_info_injectorINS_10task_movedEED2Ev
	movq	%rbx, %rdi
	movl	$80, %esi
	popq	%rbx
	.cfi_def_cfa_offset 8
	jmp	_ZdlPvm
	.cfi_endproc
.LFE13573:
	.size	_ZN5boost16exception_detail10clone_implINS0_19error_info_injectorINS_10task_movedEEEED0Ev, .-_ZN5boost16exception_detail10clone_implINS0_19error_info_injectorINS_10task_movedEEEED0Ev
	.section	.text._ZN5boost16exception_detail19error_info_injectorINS_20task_already_startedEED2Ev,"axG",@progbits,_ZN5boost16exception_detail19error_info_injectorINS_20task_already_startedEED5Ev,comdat
	.align 2
	.p2align 4,,15
	.weak	_ZN5boost16exception_detail19error_info_injectorINS_20task_already_startedEED2Ev
	.type	_ZN5boost16exception_detail19error_info_injectorINS_20task_already_startedEED2Ev, @function
_ZN5boost16exception_detail19error_info_injectorINS_20task_already_startedEED2Ev:
.LFB14254:
	.cfi_startproc
	.cfi_personality 0x3,__gxx_personality_v0
	.cfi_lsda 0x3,.LLSDA14254
	pushq	%rbx
	.cfi_def_cfa_offset 16
	.cfi_offset 3, -16
	movq	%rdi, %rbx
	movq	$_ZTVN5boost16exception_detail19error_info_injectorINS_20task_already_startedEEE+16, (%rdi)
	movq	$_ZTVN5boost9exceptionE+16, 32(%rdi)
	movq	40(%rdi), %rdi
	testq	%rdi, %rdi
	je	.L168
	movq	(%rdi), %rax
	call	*32(%rax)
.L168:
	movq	$_ZTVN5boost12future_errorE+16, (%rbx)
	movq	%rbx, %rdi
	popq	%rbx
	.cfi_def_cfa_offset 8
	jmp	_ZNSt11logic_errorD2Ev
	.cfi_endproc
.LFE14254:
	.section	.gcc_except_table._ZN5boost16exception_detail19error_info_injectorINS_20task_already_startedEED2Ev,"aG",@progbits,_ZN5boost16exception_detail19error_info_injectorINS_20task_already_startedEED5Ev,comdat
.LLSDA14254:
	.byte	0xff
	.byte	0xff
	.byte	0x1
	.uleb128 .LLSDACSE14254-.LLSDACSB14254
.LLSDACSB14254:
.LLSDACSE14254:
	.section	.text._ZN5boost16exception_detail19error_info_injectorINS_20task_already_startedEED2Ev,"axG",@progbits,_ZN5boost16exception_detail19error_info_injectorINS_20task_already_startedEED5Ev,comdat
	.size	_ZN5boost16exception_detail19error_info_injectorINS_20task_already_startedEED2Ev, .-_ZN5boost16exception_detail19error_info_injectorINS_20task_already_startedEED2Ev
	.weak	_ZN5boost16exception_detail19error_info_injectorINS_20task_already_startedEED1Ev
	.set	_ZN5boost16exception_detail19error_info_injectorINS_20task_already_startedEED1Ev,_ZN5boost16exception_detail19error_info_injectorINS_20task_already_startedEED2Ev
	.set	.LTHUNK276,_ZN5boost16exception_detail19error_info_injectorINS_20task_already_startedEED1Ev
	.p2align 4,,15
	.weak	_ZThn32_N5boost16exception_detail19error_info_injectorINS_20task_already_startedEED1Ev
	.type	_ZThn32_N5boost16exception_detail19error_info_injectorINS_20task_already_startedEED1Ev, @function
_ZThn32_N5boost16exception_detail19error_info_injectorINS_20task_already_startedEED1Ev:
.LFB14801:
	.cfi_startproc
	subq	$32, %rdi
	jmp	.LTHUNK276
	.cfi_endproc
.LFE14801:
	.size	_ZThn32_N5boost16exception_detail19error_info_injectorINS_20task_already_startedEED1Ev, .-_ZThn32_N5boost16exception_detail19error_info_injectorINS_20task_already_startedEED1Ev
	.section	.text._ZN5boost16exception_detail19error_info_injectorINS_20task_already_startedEED0Ev,"axG",@progbits,_ZN5boost16exception_detail19error_info_injectorINS_20task_already_startedEED5Ev,comdat
	.align 2
	.p2align 4,,15
	.weak	_ZN5boost16exception_detail19error_info_injectorINS_20task_already_startedEED0Ev
	.type	_ZN5boost16exception_detail19error_info_injectorINS_20task_already_startedEED0Ev, @function
_ZN5boost16exception_detail19error_info_injectorINS_20task_already_startedEED0Ev:
.LFB14256:
	.cfi_startproc
	pushq	%rbx
	.cfi_def_cfa_offset 16
	.cfi_offset 3, -16
	movq	%rdi, %rbx
	call	_ZN5boost16exception_detail19error_info_injectorINS_20task_already_startedEED1Ev
	movq	%rbx, %rdi
	movl	$72, %esi
	popq	%rbx
	.cfi_def_cfa_offset 8
	jmp	_ZdlPvm
	.cfi_endproc
.LFE14256:
	.size	_ZN5boost16exception_detail19error_info_injectorINS_20task_already_startedEED0Ev, .-_ZN5boost16exception_detail19error_info_injectorINS_20task_already_startedEED0Ev
	.section	.text._ZN5boost16exception_detail10clone_implINS0_19error_info_injectorINS_20task_already_startedEEEED1Ev,"axG",@progbits,_ZN5boost16exception_detail10clone_implINS0_19error_info_injectorINS_20task_already_startedEEEED1Ev,comdat
	.align 2
	.p2align 4,,15
	.weak	_ZN5boost16exception_detail10clone_implINS0_19error_info_injectorINS_20task_already_startedEEEED1Ev
	.type	_ZN5boost16exception_detail10clone_implINS0_19error_info_injectorINS_20task_already_startedEEEED1Ev, @function
_ZN5boost16exception_detail10clone_implINS0_19error_info_injectorINS_20task_already_startedEEEED1Ev:
.LFB14260:
	.cfi_startproc
	movq	$_ZTVN5boost16exception_detail10clone_implINS0_19error_info_injectorINS_20task_already_startedEEEEE+24, (%rdi)
	movq	$_ZTVN5boost16exception_detail10clone_implINS0_19error_info_injectorINS_20task_already_startedEEEEE+80, 32(%rdi)
	movq	$_ZTVN5boost16exception_detail10clone_implINS0_19error_info_injectorINS_20task_already_startedEEEEE+136, 72(%rdi)
	jmp	_ZN5boost16exception_detail19error_info_injectorINS_20task_already_startedEED2Ev
	.cfi_endproc
.LFE14260:
	.size	_ZN5boost16exception_detail10clone_implINS0_19error_info_injectorINS_20task_already_startedEEEED1Ev, .-_ZN5boost16exception_detail10clone_implINS0_19error_info_injectorINS_20task_already_startedEEEED1Ev
	.section	.text._ZN5boost16exception_detail10clone_implINS0_19error_info_injectorINS_20task_already_startedEEEED0Ev,"axG",@progbits,_ZN5boost16exception_detail10clone_implINS0_19error_info_injectorINS_20task_already_startedEEEED0Ev,comdat
	.align 2
	.p2align 4,,15
	.weak	_ZN5boost16exception_detail10clone_implINS0_19error_info_injectorINS_20task_already_startedEEEED0Ev
	.type	_ZN5boost16exception_detail10clone_implINS0_19error_info_injectorINS_20task_already_startedEEEED0Ev, @function
_ZN5boost16exception_detail10clone_implINS0_19error_info_injectorINS_20task_already_startedEEEED0Ev:
.LFB14261:
	.cfi_startproc
	pushq	%rbx
	.cfi_def_cfa_offset 16
	.cfi_offset 3, -16
	movq	%rdi, %rbx
	movq	$_ZTVN5boost16exception_detail10clone_implINS0_19error_info_injectorINS_20task_already_startedEEEEE+24, (%rdi)
	movq	$_ZTVN5boost16exception_detail10clone_implINS0_19error_info_injectorINS_20task_already_startedEEEEE+80, 32(%rdi)
	movq	$_ZTVN5boost16exception_detail10clone_implINS0_19error_info_injectorINS_20task_already_startedEEEEE+136, 72(%rdi)
	call	_ZN5boost16exception_detail19error_info_injectorINS_20task_already_startedEED2Ev
	movq	%rbx, %rdi
	movl	$80, %esi
	popq	%rbx
	.cfi_def_cfa_offset 8
	jmp	_ZdlPvm
	.cfi_endproc
.LFE14261:
	.size	_ZN5boost16exception_detail10clone_implINS0_19error_info_injectorINS_20task_already_startedEEEED0Ev, .-_ZN5boost16exception_detail10clone_implINS0_19error_info_injectorINS_20task_already_startedEEEED0Ev
	.section	.text._ZN5boost16exception_detail19error_info_injectorINS_20future_uninitializedEED2Ev,"axG",@progbits,_ZN5boost16exception_detail19error_info_injectorINS_20future_uninitializedEED5Ev,comdat
	.align 2
	.p2align 4,,15
	.weak	_ZN5boost16exception_detail19error_info_injectorINS_20future_uninitializedEED2Ev
	.type	_ZN5boost16exception_detail19error_info_injectorINS_20future_uninitializedEED2Ev, @function
_ZN5boost16exception_detail19error_info_injectorINS_20future_uninitializedEED2Ev:
.LFB12946:
	.cfi_startproc
	.cfi_personality 0x3,__gxx_personality_v0
	.cfi_lsda 0x3,.LLSDA12946
	pushq	%rbx
	.cfi_def_cfa_offset 16
	.cfi_offset 3, -16
	movq	%rdi, %rbx
	movq	$_ZTVN5boost16exception_detail19error_info_injectorINS_20future_uninitializedEEE+16, (%rdi)
	movq	$_ZTVN5boost9exceptionE+16, 32(%rdi)
	movq	40(%rdi), %rdi
	testq	%rdi, %rdi
	je	.L179
	movq	(%rdi), %rax
	call	*32(%rax)
.L179:
	movq	$_ZTVN5boost12future_errorE+16, (%rbx)
	movq	%rbx, %rdi
	popq	%rbx
	.cfi_def_cfa_offset 8
	jmp	_ZNSt11logic_errorD2Ev
	.cfi_endproc
.LFE12946:
	.section	.gcc_except_table._ZN5boost16exception_detail19error_info_injectorINS_20future_uninitializedEED2Ev,"aG",@progbits,_ZN5boost16exception_detail19error_info_injectorINS_20future_uninitializedEED5Ev,comdat
.LLSDA12946:
	.byte	0xff
	.byte	0xff
	.byte	0x1
	.uleb128 .LLSDACSE12946-.LLSDACSB12946
.LLSDACSB12946:
.LLSDACSE12946:
	.section	.text._ZN5boost16exception_detail19error_info_injectorINS_20future_uninitializedEED2Ev,"axG",@progbits,_ZN5boost16exception_detail19error_info_injectorINS_20future_uninitializedEED5Ev,comdat
	.size	_ZN5boost16exception_detail19error_info_injectorINS_20future_uninitializedEED2Ev, .-_ZN5boost16exception_detail19error_info_injectorINS_20future_uninitializedEED2Ev
	.weak	_ZN5boost16exception_detail19error_info_injectorINS_20future_uninitializedEED1Ev
	.set	_ZN5boost16exception_detail19error_info_injectorINS_20future_uninitializedEED1Ev,_ZN5boost16exception_detail19error_info_injectorINS_20future_uninitializedEED2Ev
	.set	.LTHUNK170,_ZN5boost16exception_detail19error_info_injectorINS_20future_uninitializedEED1Ev
	.p2align 4,,15
	.weak	_ZThn32_N5boost16exception_detail19error_info_injectorINS_20future_uninitializedEED1Ev
	.type	_ZThn32_N5boost16exception_detail19error_info_injectorINS_20future_uninitializedEED1Ev, @function
_ZThn32_N5boost16exception_detail19error_info_injectorINS_20future_uninitializedEED1Ev:
.LFB14805:
	.cfi_startproc
	subq	$32, %rdi
	jmp	.LTHUNK170
	.cfi_endproc
.LFE14805:
	.size	_ZThn32_N5boost16exception_detail19error_info_injectorINS_20future_uninitializedEED1Ev, .-_ZThn32_N5boost16exception_detail19error_info_injectorINS_20future_uninitializedEED1Ev
	.section	.text._ZN5boost16exception_detail19error_info_injectorINS_20future_uninitializedEED0Ev,"axG",@progbits,_ZN5boost16exception_detail19error_info_injectorINS_20future_uninitializedEED5Ev,comdat
	.align 2
	.p2align 4,,15
	.weak	_ZN5boost16exception_detail19error_info_injectorINS_20future_uninitializedEED0Ev
	.type	_ZN5boost16exception_detail19error_info_injectorINS_20future_uninitializedEED0Ev, @function
_ZN5boost16exception_detail19error_info_injectorINS_20future_uninitializedEED0Ev:
.LFB12948:
	.cfi_startproc
	pushq	%rbx
	.cfi_def_cfa_offset 16
	.cfi_offset 3, -16
	movq	%rdi, %rbx
	call	_ZN5boost16exception_detail19error_info_injectorINS_20future_uninitializedEED1Ev
	movq	%rbx, %rdi
	movl	$72, %esi
	popq	%rbx
	.cfi_def_cfa_offset 8
	jmp	_ZdlPvm
	.cfi_endproc
.LFE12948:
	.size	_ZN5boost16exception_detail19error_info_injectorINS_20future_uninitializedEED0Ev, .-_ZN5boost16exception_detail19error_info_injectorINS_20future_uninitializedEED0Ev
	.section	.text._ZN5boost16exception_detail10clone_implINS0_19error_info_injectorINS_20future_uninitializedEEEED1Ev,"axG",@progbits,_ZN5boost16exception_detail10clone_implINS0_19error_info_injectorINS_20future_uninitializedEEEED1Ev,comdat
	.align 2
	.p2align 4,,15
	.weak	_ZN5boost16exception_detail10clone_implINS0_19error_info_injectorINS_20future_uninitializedEEEED1Ev
	.type	_ZN5boost16exception_detail10clone_implINS0_19error_info_injectorINS_20future_uninitializedEEEED1Ev, @function
_ZN5boost16exception_detail10clone_implINS0_19error_info_injectorINS_20future_uninitializedEEEED1Ev:
.LFB12952:
	.cfi_startproc
	movq	$_ZTVN5boost16exception_detail10clone_implINS0_19error_info_injectorINS_20future_uninitializedEEEEE+24, (%rdi)
	movq	$_ZTVN5boost16exception_detail10clone_implINS0_19error_info_injectorINS_20future_uninitializedEEEEE+80, 32(%rdi)
	movq	$_ZTVN5boost16exception_detail10clone_implINS0_19error_info_injectorINS_20future_uninitializedEEEEE+136, 72(%rdi)
	jmp	_ZN5boost16exception_detail19error_info_injectorINS_20future_uninitializedEED2Ev
	.cfi_endproc
.LFE12952:
	.size	_ZN5boost16exception_detail10clone_implINS0_19error_info_injectorINS_20future_uninitializedEEEED1Ev, .-_ZN5boost16exception_detail10clone_implINS0_19error_info_injectorINS_20future_uninitializedEEEED1Ev
	.section	.text._ZN5boost16exception_detail10clone_implINS0_19error_info_injectorINS_20future_uninitializedEEEED0Ev,"axG",@progbits,_ZN5boost16exception_detail10clone_implINS0_19error_info_injectorINS_20future_uninitializedEEEED0Ev,comdat
	.align 2
	.p2align 4,,15
	.weak	_ZN5boost16exception_detail10clone_implINS0_19error_info_injectorINS_20future_uninitializedEEEED0Ev
	.type	_ZN5boost16exception_detail10clone_implINS0_19error_info_injectorINS_20future_uninitializedEEEED0Ev, @function
_ZN5boost16exception_detail10clone_implINS0_19error_info_injectorINS_20future_uninitializedEEEED0Ev:
.LFB12953:
	.cfi_startproc
	pushq	%rbx
	.cfi_def_cfa_offset 16
	.cfi_offset 3, -16
	movq	%rdi, %rbx
	movq	$_ZTVN5boost16exception_detail10clone_implINS0_19error_info_injectorINS_20future_uninitializedEEEEE+24, (%rdi)
	movq	$_ZTVN5boost16exception_detail10clone_implINS0_19error_info_injectorINS_20future_uninitializedEEEEE+80, 32(%rdi)
	movq	$_ZTVN5boost16exception_detail10clone_implINS0_19error_info_injectorINS_20future_uninitializedEEEEE+136, 72(%rdi)
	call	_ZN5boost16exception_detail19error_info_injectorINS_20future_uninitializedEED2Ev
	movq	%rbx, %rdi
	movl	$80, %esi
	popq	%rbx
	.cfi_def_cfa_offset 8
	jmp	_ZdlPvm
	.cfi_endproc
.LFE12953:
	.size	_ZN5boost16exception_detail10clone_implINS0_19error_info_injectorINS_20future_uninitializedEEEED0Ev, .-_ZN5boost16exception_detail10clone_implINS0_19error_info_injectorINS_20future_uninitializedEEEED0Ev
	.section	.text._ZN5boost16exception_detail39current_exception_std_exception_wrapperISt11logic_errorED2Ev,"axG",@progbits,_ZN5boost16exception_detail39current_exception_std_exception_wrapperISt11logic_errorED5Ev,comdat
	.align 2
	.p2align 4,,15
	.weak	_ZN5boost16exception_detail39current_exception_std_exception_wrapperISt11logic_errorED2Ev
	.type	_ZN5boost16exception_detail39current_exception_std_exception_wrapperISt11logic_errorED2Ev, @function
_ZN5boost16exception_detail39current_exception_std_exception_wrapperISt11logic_errorED2Ev:
.LFB11995:
	.cfi_startproc
	.cfi_personality 0x3,__gxx_personality_v0
	.cfi_lsda 0x3,.LLSDA11995
	pushq	%rbx
	.cfi_def_cfa_offset 16
	.cfi_offset 3, -16
	movq	%rdi, %rbx
	movq	$_ZTVN5boost16exception_detail39current_exception_std_exception_wrapperISt11logic_errorEE+16, (%rdi)
	movq	$_ZTVN5boost9exceptionE+16, 16(%rdi)
	movq	24(%rdi), %rdi
	testq	%rdi, %rdi
	je	.L190
	movq	(%rdi), %rax
	call	*32(%rax)
.L190:
	movq	%rbx, %rdi
	popq	%rbx
	.cfi_def_cfa_offset 8
	jmp	_ZNSt11logic_errorD2Ev
	.cfi_endproc
.LFE11995:
	.section	.gcc_except_table._ZN5boost16exception_detail39current_exception_std_exception_wrapperISt11logic_errorED2Ev,"aG",@progbits,_ZN5boost16exception_detail39current_exception_std_exception_wrapperISt11logic_errorED5Ev,comdat
.LLSDA11995:
	.byte	0xff
	.byte	0xff
	.byte	0x1
	.uleb128 .LLSDACSE11995-.LLSDACSB11995
.LLSDACSB11995:
.LLSDACSE11995:
	.section	.text._ZN5boost16exception_detail39current_exception_std_exception_wrapperISt11logic_errorED2Ev,"axG",@progbits,_ZN5boost16exception_detail39current_exception_std_exception_wrapperISt11logic_errorED5Ev,comdat
	.size	_ZN5boost16exception_detail39current_exception_std_exception_wrapperISt11logic_errorED2Ev, .-_ZN5boost16exception_detail39current_exception_std_exception_wrapperISt11logic_errorED2Ev
	.weak	_ZN5boost16exception_detail39current_exception_std_exception_wrapperISt11logic_errorED1Ev
	.set	_ZN5boost16exception_detail39current_exception_std_exception_wrapperISt11logic_errorED1Ev,_ZN5boost16exception_detail39current_exception_std_exception_wrapperISt11logic_errorED2Ev
	.set	.LTHUNK68,_ZN5boost16exception_detail39current_exception_std_exception_wrapperISt11logic_errorED1Ev
	.p2align 4,,15
	.weak	_ZThn16_N5boost16exception_detail39current_exception_std_exception_wrapperISt11logic_errorED1Ev
	.type	_ZThn16_N5boost16exception_detail39current_exception_std_exception_wrapperISt11logic_errorED1Ev, @function
_ZThn16_N5boost16exception_detail39current_exception_std_exception_wrapperISt11logic_errorED1Ev:
.LFB14809:
	.cfi_startproc
	subq	$16, %rdi
	jmp	.LTHUNK68
	.cfi_endproc
.LFE14809:
	.size	_ZThn16_N5boost16exception_detail39current_exception_std_exception_wrapperISt11logic_errorED1Ev, .-_ZThn16_N5boost16exception_detail39current_exception_std_exception_wrapperISt11logic_errorED1Ev
	.section	.text._ZN5boost16exception_detail39current_exception_std_exception_wrapperISt11logic_errorED0Ev,"axG",@progbits,_ZN5boost16exception_detail39current_exception_std_exception_wrapperISt11logic_errorED5Ev,comdat
	.align 2
	.p2align 4,,15
	.weak	_ZN5boost16exception_detail39current_exception_std_exception_wrapperISt11logic_errorED0Ev
	.type	_ZN5boost16exception_detail39current_exception_std_exception_wrapperISt11logic_errorED0Ev, @function
_ZN5boost16exception_detail39current_exception_std_exception_wrapperISt11logic_errorED0Ev:
.LFB11997:
	.cfi_startproc
	pushq	%rbx
	.cfi_def_cfa_offset 16
	.cfi_offset 3, -16
	movq	%rdi, %rbx
	call	_ZN5boost16exception_detail39current_exception_std_exception_wrapperISt11logic_errorED1Ev
	movq	%rbx, %rdi
	movl	$56, %esi
	popq	%rbx
	.cfi_def_cfa_offset 8
	jmp	_ZdlPvm
	.cfi_endproc
.LFE11997:
	.size	_ZN5boost16exception_detail39current_exception_std_exception_wrapperISt11logic_errorED0Ev, .-_ZN5boost16exception_detail39current_exception_std_exception_wrapperISt11logic_errorED0Ev
	.section	.text._ZN5boost16exception_detail10clone_implINS0_39current_exception_std_exception_wrapperISt11logic_errorEEED1Ev,"axG",@progbits,_ZN5boost16exception_detail10clone_implINS0_39current_exception_std_exception_wrapperISt11logic_errorEEED1Ev,comdat
	.align 2
	.p2align 4,,15
	.weak	_ZN5boost16exception_detail10clone_implINS0_39current_exception_std_exception_wrapperISt11logic_errorEEED1Ev
	.type	_ZN5boost16exception_detail10clone_implINS0_39current_exception_std_exception_wrapperISt11logic_errorEEED1Ev, @function
_ZN5boost16exception_detail10clone_implINS0_39current_exception_std_exception_wrapperISt11logic_errorEEED1Ev:
.LFB12710:
	.cfi_startproc
	movq	$_ZTVN5boost16exception_detail10clone_implINS0_39current_exception_std_exception_wrapperISt11logic_errorEEEE+24, (%rdi)
	movq	$_ZTVN5boost16exception_detail10clone_implINS0_39current_exception_std_exception_wrapperISt11logic_errorEEEE+80, 16(%rdi)
	movq	$_ZTVN5boost16exception_detail10clone_implINS0_39current_exception_std_exception_wrapperISt11logic_errorEEEE+136, 56(%rdi)
	jmp	_ZN5boost16exception_detail39current_exception_std_exception_wrapperISt11logic_errorED2Ev
	.cfi_endproc
.LFE12710:
	.size	_ZN5boost16exception_detail10clone_implINS0_39current_exception_std_exception_wrapperISt11logic_errorEEED1Ev, .-_ZN5boost16exception_detail10clone_implINS0_39current_exception_std_exception_wrapperISt11logic_errorEEED1Ev
	.section	.text._ZN5boost16exception_detail10clone_implINS0_39current_exception_std_exception_wrapperISt11logic_errorEEED0Ev,"axG",@progbits,_ZN5boost16exception_detail10clone_implINS0_39current_exception_std_exception_wrapperISt11logic_errorEEED0Ev,comdat
	.align 2
	.p2align 4,,15
	.weak	_ZN5boost16exception_detail10clone_implINS0_39current_exception_std_exception_wrapperISt11logic_errorEEED0Ev
	.type	_ZN5boost16exception_detail10clone_implINS0_39current_exception_std_exception_wrapperISt11logic_errorEEED0Ev, @function
_ZN5boost16exception_detail10clone_implINS0_39current_exception_std_exception_wrapperISt11logic_errorEEED0Ev:
.LFB12711:
	.cfi_startproc
	pushq	%rbx
	.cfi_def_cfa_offset 16
	.cfi_offset 3, -16
	movq	%rdi, %rbx
	movq	$_ZTVN5boost16exception_detail10clone_implINS0_39current_exception_std_exception_wrapperISt11logic_errorEEEE+24, (%rdi)
	movq	$_ZTVN5boost16exception_detail10clone_implINS0_39current_exception_std_exception_wrapperISt11logic_errorEEEE+80, 16(%rdi)
	movq	$_ZTVN5boost16exception_detail10clone_implINS0_39current_exception_std_exception_wrapperISt11logic_errorEEEE+136, 56(%rdi)
	call	_ZN5boost16exception_detail39current_exception_std_exception_wrapperISt11logic_errorED2Ev
	movq	%rbx, %rdi
	movl	$64, %esi
	popq	%rbx
	.cfi_def_cfa_offset 8
	jmp	_ZdlPvm
	.cfi_endproc
.LFE12711:
	.size	_ZN5boost16exception_detail10clone_implINS0_39current_exception_std_exception_wrapperISt11logic_errorEEED0Ev, .-_ZN5boost16exception_detail10clone_implINS0_39current_exception_std_exception_wrapperISt11logic_errorEEED0Ev
	.section	.text._ZN5boost16exception_detail19error_info_injectorINS_24future_already_retrievedEED2Ev,"axG",@progbits,_ZN5boost16exception_detail19error_info_injectorINS_24future_already_retrievedEED5Ev,comdat
	.align 2
	.p2align 4,,15
	.weak	_ZN5boost16exception_detail19error_info_injectorINS_24future_already_retrievedEED2Ev
	.type	_ZN5boost16exception_detail19error_info_injectorINS_24future_already_retrievedEED2Ev, @function
_ZN5boost16exception_detail19error_info_injectorINS_24future_already_retrievedEED2Ev:
.LFB12309:
	.cfi_startproc
	.cfi_personality 0x3,__gxx_personality_v0
	.cfi_lsda 0x3,.LLSDA12309
	pushq	%rbx
	.cfi_def_cfa_offset 16
	.cfi_offset 3, -16
	movq	%rdi, %rbx
	movq	$_ZTVN5boost16exception_detail19error_info_injectorINS_24future_already_retrievedEEE+16, (%rdi)
	movq	$_ZTVN5boost9exceptionE+16, 32(%rdi)
	movq	40(%rdi), %rdi
	testq	%rdi, %rdi
	je	.L201
	movq	(%rdi), %rax
	call	*32(%rax)
.L201:
	movq	$_ZTVN5boost12future_errorE+16, (%rbx)
	movq	%rbx, %rdi
	popq	%rbx
	.cfi_def_cfa_offset 8
	jmp	_ZNSt11logic_errorD2Ev
	.cfi_endproc
.LFE12309:
	.section	.gcc_except_table._ZN5boost16exception_detail19error_info_injectorINS_24future_already_retrievedEED2Ev,"aG",@progbits,_ZN5boost16exception_detail19error_info_injectorINS_24future_already_retrievedEED5Ev,comdat
.LLSDA12309:
	.byte	0xff
	.byte	0xff
	.byte	0x1
	.uleb128 .LLSDACSE12309-.LLSDACSB12309
.LLSDACSB12309:
.LLSDACSE12309:
	.section	.text._ZN5boost16exception_detail19error_info_injectorINS_24future_already_retrievedEED2Ev,"axG",@progbits,_ZN5boost16exception_detail19error_info_injectorINS_24future_already_retrievedEED5Ev,comdat
	.size	_ZN5boost16exception_detail19error_info_injectorINS_24future_already_retrievedEED2Ev, .-_ZN5boost16exception_detail19error_info_injectorINS_24future_already_retrievedEED2Ev
	.weak	_ZN5boost16exception_detail19error_info_injectorINS_24future_already_retrievedEED1Ev
	.set	_ZN5boost16exception_detail19error_info_injectorINS_24future_already_retrievedEED1Ev,_ZN5boost16exception_detail19error_info_injectorINS_24future_already_retrievedEED2Ev
	.set	.LTHUNK102,_ZN5boost16exception_detail19error_info_injectorINS_24future_already_retrievedEED1Ev
	.p2align 4,,15
	.weak	_ZThn32_N5boost16exception_detail19error_info_injectorINS_24future_already_retrievedEED1Ev
	.type	_ZThn32_N5boost16exception_detail19error_info_injectorINS_24future_already_retrievedEED1Ev, @function
_ZThn32_N5boost16exception_detail19error_info_injectorINS_24future_already_retrievedEED1Ev:
.LFB14813:
	.cfi_startproc
	subq	$32, %rdi
	jmp	.LTHUNK102
	.cfi_endproc
.LFE14813:
	.size	_ZThn32_N5boost16exception_detail19error_info_injectorINS_24future_already_retrievedEED1Ev, .-_ZThn32_N5boost16exception_detail19error_info_injectorINS_24future_already_retrievedEED1Ev
	.section	.text._ZN5boost16exception_detail19error_info_injectorINS_24future_already_retrievedEED0Ev,"axG",@progbits,_ZN5boost16exception_detail19error_info_injectorINS_24future_already_retrievedEED5Ev,comdat
	.align 2
	.p2align 4,,15
	.weak	_ZN5boost16exception_detail19error_info_injectorINS_24future_already_retrievedEED0Ev
	.type	_ZN5boost16exception_detail19error_info_injectorINS_24future_already_retrievedEED0Ev, @function
_ZN5boost16exception_detail19error_info_injectorINS_24future_already_retrievedEED0Ev:
.LFB12311:
	.cfi_startproc
	pushq	%rbx
	.cfi_def_cfa_offset 16
	.cfi_offset 3, -16
	movq	%rdi, %rbx
	call	_ZN5boost16exception_detail19error_info_injectorINS_24future_already_retrievedEED1Ev
	movq	%rbx, %rdi
	movl	$72, %esi
	popq	%rbx
	.cfi_def_cfa_offset 8
	jmp	_ZdlPvm
	.cfi_endproc
.LFE12311:
	.size	_ZN5boost16exception_detail19error_info_injectorINS_24future_already_retrievedEED0Ev, .-_ZN5boost16exception_detail19error_info_injectorINS_24future_already_retrievedEED0Ev
	.section	.text._ZN5boost16exception_detail10clone_implINS0_19error_info_injectorINS_24future_already_retrievedEEEED1Ev,"axG",@progbits,_ZN5boost16exception_detail10clone_implINS0_19error_info_injectorINS_24future_already_retrievedEEEED1Ev,comdat
	.align 2
	.p2align 4,,15
	.weak	_ZN5boost16exception_detail10clone_implINS0_19error_info_injectorINS_24future_already_retrievedEEEED1Ev
	.type	_ZN5boost16exception_detail10clone_implINS0_19error_info_injectorINS_24future_already_retrievedEEEED1Ev, @function
_ZN5boost16exception_detail10clone_implINS0_19error_info_injectorINS_24future_already_retrievedEEEED1Ev:
.LFB12315:
	.cfi_startproc
	movq	$_ZTVN5boost16exception_detail10clone_implINS0_19error_info_injectorINS_24future_already_retrievedEEEEE+24, (%rdi)
	movq	$_ZTVN5boost16exception_detail10clone_implINS0_19error_info_injectorINS_24future_already_retrievedEEEEE+80, 32(%rdi)
	movq	$_ZTVN5boost16exception_detail10clone_implINS0_19error_info_injectorINS_24future_already_retrievedEEEEE+136, 72(%rdi)
	jmp	_ZN5boost16exception_detail19error_info_injectorINS_24future_already_retrievedEED2Ev
	.cfi_endproc
.LFE12315:
	.size	_ZN5boost16exception_detail10clone_implINS0_19error_info_injectorINS_24future_already_retrievedEEEED1Ev, .-_ZN5boost16exception_detail10clone_implINS0_19error_info_injectorINS_24future_already_retrievedEEEED1Ev
	.section	.text._ZN5boost16exception_detail10clone_implINS0_19error_info_injectorINS_24future_already_retrievedEEEED0Ev,"axG",@progbits,_ZN5boost16exception_detail10clone_implINS0_19error_info_injectorINS_24future_already_retrievedEEEED0Ev,comdat
	.align 2
	.p2align 4,,15
	.weak	_ZN5boost16exception_detail10clone_implINS0_19error_info_injectorINS_24future_already_retrievedEEEED0Ev
	.type	_ZN5boost16exception_detail10clone_implINS0_19error_info_injectorINS_24future_already_retrievedEEEED0Ev, @function
_ZN5boost16exception_detail10clone_implINS0_19error_info_injectorINS_24future_already_retrievedEEEED0Ev:
.LFB12316:
	.cfi_startproc
	pushq	%rbx
	.cfi_def_cfa_offset 16
	.cfi_offset 3, -16
	movq	%rdi, %rbx
	movq	$_ZTVN5boost16exception_detail10clone_implINS0_19error_info_injectorINS_24future_already_retrievedEEEEE+24, (%rdi)
	movq	$_ZTVN5boost16exception_detail10clone_implINS0_19error_info_injectorINS_24future_already_retrievedEEEEE+80, 32(%rdi)
	movq	$_ZTVN5boost16exception_detail10clone_implINS0_19error_info_injectorINS_24future_already_retrievedEEEEE+136, 72(%rdi)
	call	_ZN5boost16exception_detail19error_info_injectorINS_24future_already_retrievedEED2Ev
	movq	%rbx, %rdi
	movl	$80, %esi
	popq	%rbx
	.cfi_def_cfa_offset 8
	jmp	_ZdlPvm
	.cfi_endproc
.LFE12316:
	.size	_ZN5boost16exception_detail10clone_implINS0_19error_info_injectorINS_24future_already_retrievedEEEED0Ev, .-_ZN5boost16exception_detail10clone_implINS0_19error_info_injectorINS_24future_already_retrievedEEEED0Ev
	.section	.text._ZN5boost16exception_detail19error_info_injectorINS_25promise_already_satisfiedEED2Ev,"axG",@progbits,_ZN5boost16exception_detail19error_info_injectorINS_25promise_already_satisfiedEED5Ev,comdat
	.align 2
	.p2align 4,,15
	.weak	_ZN5boost16exception_detail19error_info_injectorINS_25promise_already_satisfiedEED2Ev
	.type	_ZN5boost16exception_detail19error_info_injectorINS_25promise_already_satisfiedEED2Ev, @function
_ZN5boost16exception_detail19error_info_injectorINS_25promise_already_satisfiedEED2Ev:
.LFB12230:
	.cfi_startproc
	.cfi_personality 0x3,__gxx_personality_v0
	.cfi_lsda 0x3,.LLSDA12230
	pushq	%rbx
	.cfi_def_cfa_offset 16
	.cfi_offset 3, -16
	movq	%rdi, %rbx
	movq	$_ZTVN5boost16exception_detail19error_info_injectorINS_25promise_already_satisfiedEEE+16, (%rdi)
	movq	$_ZTVN5boost9exceptionE+16, 32(%rdi)
	movq	40(%rdi), %rdi
	testq	%rdi, %rdi
	je	.L212
	movq	(%rdi), %rax
	call	*32(%rax)
.L212:
	movq	$_ZTVN5boost12future_errorE+16, (%rbx)
	movq	%rbx, %rdi
	popq	%rbx
	.cfi_def_cfa_offset 8
	jmp	_ZNSt11logic_errorD2Ev
	.cfi_endproc
.LFE12230:
	.section	.gcc_except_table._ZN5boost16exception_detail19error_info_injectorINS_25promise_already_satisfiedEED2Ev,"aG",@progbits,_ZN5boost16exception_detail19error_info_injectorINS_25promise_already_satisfiedEED5Ev,comdat
.LLSDA12230:
	.byte	0xff
	.byte	0xff
	.byte	0x1
	.uleb128 .LLSDACSE12230-.LLSDACSB12230
.LLSDACSB12230:
.LLSDACSE12230:
	.section	.text._ZN5boost16exception_detail19error_info_injectorINS_25promise_already_satisfiedEED2Ev,"axG",@progbits,_ZN5boost16exception_detail19error_info_injectorINS_25promise_already_satisfiedEED5Ev,comdat
	.size	_ZN5boost16exception_detail19error_info_injectorINS_25promise_already_satisfiedEED2Ev, .-_ZN5boost16exception_detail19error_info_injectorINS_25promise_already_satisfiedEED2Ev
	.weak	_ZN5boost16exception_detail19error_info_injectorINS_25promise_already_satisfiedEED1Ev
	.set	_ZN5boost16exception_detail19error_info_injectorINS_25promise_already_satisfiedEED1Ev,_ZN5boost16exception_detail19error_info_injectorINS_25promise_already_satisfiedEED2Ev
	.set	.LTHUNK88,_ZN5boost16exception_detail19error_info_injectorINS_25promise_already_satisfiedEED1Ev
	.p2align 4,,15
	.weak	_ZThn32_N5boost16exception_detail19error_info_injectorINS_25promise_already_satisfiedEED1Ev
	.type	_ZThn32_N5boost16exception_detail19error_info_injectorINS_25promise_already_satisfiedEED1Ev, @function
_ZThn32_N5boost16exception_detail19error_info_injectorINS_25promise_already_satisfiedEED1Ev:
.LFB14817:
	.cfi_startproc
	subq	$32, %rdi
	jmp	.LTHUNK88
	.cfi_endproc
.LFE14817:
	.size	_ZThn32_N5boost16exception_detail19error_info_injectorINS_25promise_already_satisfiedEED1Ev, .-_ZThn32_N5boost16exception_detail19error_info_injectorINS_25promise_already_satisfiedEED1Ev
	.section	.text._ZN5boost16exception_detail19error_info_injectorINS_25promise_already_satisfiedEED0Ev,"axG",@progbits,_ZN5boost16exception_detail19error_info_injectorINS_25promise_already_satisfiedEED5Ev,comdat
	.align 2
	.p2align 4,,15
	.weak	_ZN5boost16exception_detail19error_info_injectorINS_25promise_already_satisfiedEED0Ev
	.type	_ZN5boost16exception_detail19error_info_injectorINS_25promise_already_satisfiedEED0Ev, @function
_ZN5boost16exception_detail19error_info_injectorINS_25promise_already_satisfiedEED0Ev:
.LFB12232:
	.cfi_startproc
	pushq	%rbx
	.cfi_def_cfa_offset 16
	.cfi_offset 3, -16
	movq	%rdi, %rbx
	call	_ZN5boost16exception_detail19error_info_injectorINS_25promise_already_satisfiedEED1Ev
	movq	%rbx, %rdi
	movl	$72, %esi
	popq	%rbx
	.cfi_def_cfa_offset 8
	jmp	_ZdlPvm
	.cfi_endproc
.LFE12232:
	.size	_ZN5boost16exception_detail19error_info_injectorINS_25promise_already_satisfiedEED0Ev, .-_ZN5boost16exception_detail19error_info_injectorINS_25promise_already_satisfiedEED0Ev
	.section	.text._ZN5boost16exception_detail10clone_implINS0_19error_info_injectorINS_25promise_already_satisfiedEEEED1Ev,"axG",@progbits,_ZN5boost16exception_detail10clone_implINS0_19error_info_injectorINS_25promise_already_satisfiedEEEED1Ev,comdat
	.align 2
	.p2align 4,,15
	.weak	_ZN5boost16exception_detail10clone_implINS0_19error_info_injectorINS_25promise_already_satisfiedEEEED1Ev
	.type	_ZN5boost16exception_detail10clone_implINS0_19error_info_injectorINS_25promise_already_satisfiedEEEED1Ev, @function
_ZN5boost16exception_detail10clone_implINS0_19error_info_injectorINS_25promise_already_satisfiedEEEED1Ev:
.LFB12236:
	.cfi_startproc
	movq	$_ZTVN5boost16exception_detail10clone_implINS0_19error_info_injectorINS_25promise_already_satisfiedEEEEE+24, (%rdi)
	movq	$_ZTVN5boost16exception_detail10clone_implINS0_19error_info_injectorINS_25promise_already_satisfiedEEEEE+80, 32(%rdi)
	movq	$_ZTVN5boost16exception_detail10clone_implINS0_19error_info_injectorINS_25promise_already_satisfiedEEEEE+136, 72(%rdi)
	jmp	_ZN5boost16exception_detail19error_info_injectorINS_25promise_already_satisfiedEED2Ev
	.cfi_endproc
.LFE12236:
	.size	_ZN5boost16exception_detail10clone_implINS0_19error_info_injectorINS_25promise_already_satisfiedEEEED1Ev, .-_ZN5boost16exception_detail10clone_implINS0_19error_info_injectorINS_25promise_already_satisfiedEEEED1Ev
	.section	.text._ZN5boost16exception_detail10clone_implINS0_19error_info_injectorINS_25promise_already_satisfiedEEEED0Ev,"axG",@progbits,_ZN5boost16exception_detail10clone_implINS0_19error_info_injectorINS_25promise_already_satisfiedEEEED0Ev,comdat
	.align 2
	.p2align 4,,15
	.weak	_ZN5boost16exception_detail10clone_implINS0_19error_info_injectorINS_25promise_already_satisfiedEEEED0Ev
	.type	_ZN5boost16exception_detail10clone_implINS0_19error_info_injectorINS_25promise_already_satisfiedEEEED0Ev, @function
_ZN5boost16exception_detail10clone_implINS0_19error_info_injectorINS_25promise_already_satisfiedEEEED0Ev:
.LFB12237:
	.cfi_startproc
	pushq	%rbx
	.cfi_def_cfa_offset 16
	.cfi_offset 3, -16
	movq	%rdi, %rbx
	movq	$_ZTVN5boost16exception_detail10clone_implINS0_19error_info_injectorINS_25promise_already_satisfiedEEEEE+24, (%rdi)
	movq	$_ZTVN5boost16exception_detail10clone_implINS0_19error_info_injectorINS_25promise_already_satisfiedEEEEE+80, 32(%rdi)
	movq	$_ZTVN5boost16exception_detail10clone_implINS0_19error_info_injectorINS_25promise_already_satisfiedEEEEE+136, 72(%rdi)
	call	_ZN5boost16exception_detail19error_info_injectorINS_25promise_already_satisfiedEED2Ev
	movq	%rbx, %rdi
	movl	$80, %esi
	popq	%rbx
	.cfi_def_cfa_offset 8
	jmp	_ZdlPvm
	.cfi_endproc
.LFE12237:
	.size	_ZN5boost16exception_detail10clone_implINS0_19error_info_injectorINS_25promise_already_satisfiedEEEED0Ev, .-_ZN5boost16exception_detail10clone_implINS0_19error_info_injectorINS_25promise_already_satisfiedEEEED0Ev
	.section	.text._ZNK5boost16exception_detail10clone_implINS_14broken_promiseEE7rethrowEv,"axG",@progbits,_ZNK5boost16exception_detail10clone_implINS_14broken_promiseEE7rethrowEv,comdat
	.align 2
	.p2align 4,,15
	.weak	_ZNK5boost16exception_detail10clone_implINS_14broken_promiseEE7rethrowEv
	.type	_ZNK5boost16exception_detail10clone_implINS_14broken_promiseEE7rethrowEv, @function
_ZNK5boost16exception_detail10clone_implINS_14broken_promiseEE7rethrowEv:
.LFB14077:
	.cfi_startproc
	pushq	%rbp
	.cfi_def_cfa_offset 16
	.cfi_offset 6, -16
	pushq	%rbx
	.cfi_def_cfa_offset 24
	.cfi_offset 3, -24
	movq	%rdi, %rbp
	movl	$40, %edi
	subq	$8, %rsp
	.cfi_def_cfa_offset 32
	call	__cxa_allocate_exception
	movq	%rbp, %rsi
	movq	%rax, %rdi
	movq	$_ZTVN5boost16exception_detail10clone_baseE+16, 32(%rax)
	movq	%rax, %rbx
	call	_ZNSt11logic_errorC2ERKS_
	movdqu	16(%rbp), %xmm0
	movl	$_ZN5boost16exception_detail10clone_implINS_14broken_promiseEED1Ev, %edx
	movl	$_ZTIN5boost16exception_detail10clone_implINS_14broken_promiseEEE, %esi
	movq	%rbx, %rdi
	movq	$_ZTVN5boost16exception_detail10clone_implINS_14broken_promiseEEE+24, (%rbx)
	movups	%xmm0, 16(%rbx)
	movq	$_ZTVN5boost16exception_detail10clone_implINS_14broken_promiseEEE+104, 32(%rbx)
	call	__cxa_throw
	.cfi_endproc
.LFE14077:
	.size	_ZNK5boost16exception_detail10clone_implINS_14broken_promiseEE7rethrowEv, .-_ZNK5boost16exception_detail10clone_implINS_14broken_promiseEE7rethrowEv
	.section	.text._ZNK5boost16exception_detail10clone_implINS_14broken_promiseEE5cloneEv,"axG",@progbits,_ZNK5boost16exception_detail10clone_implINS_14broken_promiseEE5cloneEv,comdat
	.align 2
	.p2align 4,,15
	.weak	_ZNK5boost16exception_detail10clone_implINS_14broken_promiseEE5cloneEv
	.type	_ZNK5boost16exception_detail10clone_implINS_14broken_promiseEE5cloneEv, @function
_ZNK5boost16exception_detail10clone_implINS_14broken_promiseEE5cloneEv:
.LFB14076:
	.cfi_startproc
	pushq	%rbp
	.cfi_def_cfa_offset 16
	.cfi_offset 6, -16
	pushq	%rbx
	.cfi_def_cfa_offset 24
	.cfi_offset 3, -24
	movq	%rdi, %rbp
	movl	$40, %edi
	subq	$8, %rsp
	.cfi_def_cfa_offset 32
	call	_Znwm
	movq	%rbp, %rsi
	movq	$_ZTVN5boost16exception_detail10clone_baseE+16, 32(%rax)
	movq	%rax, %rdi
	movq	%rax, %rbx
	call	_ZNSt11logic_errorC2ERKS_
	movdqu	16(%rbp), %xmm0
	leaq	32(%rbx), %rax
	movq	$_ZTVN5boost16exception_detail10clone_implINS_14broken_promiseEEE+24, (%rbx)
	movq	$_ZTVN5boost16exception_detail10clone_implINS_14broken_promiseEEE+104, 32(%rbx)
	movups	%xmm0, 16(%rbx)
	addq	$8, %rsp
	.cfi_def_cfa_offset 24
	popq	%rbx
	.cfi_def_cfa_offset 16
	popq	%rbp
	.cfi_def_cfa_offset 8
	ret
	.cfi_endproc
.LFE14076:
	.size	_ZNK5boost16exception_detail10clone_implINS_14broken_promiseEE5cloneEv, .-_ZNK5boost16exception_detail10clone_implINS_14broken_promiseEE5cloneEv
	.section	.text._ZN5boost16exception_detail14bad_exception_D2Ev,"axG",@progbits,_ZN5boost16exception_detail14bad_exception_D5Ev,comdat
	.align 2
	.p2align 4,,15
	.weak	_ZN5boost16exception_detail14bad_exception_D2Ev
	.type	_ZN5boost16exception_detail14bad_exception_D2Ev, @function
_ZN5boost16exception_detail14bad_exception_D2Ev:
.LFB6972:
	.cfi_startproc
	.cfi_personality 0x3,__gxx_personality_v0
	.cfi_lsda 0x3,.LLSDA6972
	pushq	%rbx
	.cfi_def_cfa_offset 16
	.cfi_offset 3, -16
	movq	$_ZTVN5boost16exception_detail14bad_exception_E+16, (%rdi)
	movq	%rdi, %rbx
	movq	$_ZTVN5boost16exception_detail14bad_exception_E+48, 40(%rdi)
	addq	$40, %rdi
	call	_ZNSt13bad_exceptionD2Ev
	movq	8(%rbx), %rdi
	movq	$_ZTVN5boost9exceptionE+16, (%rbx)
	testq	%rdi, %rdi
	je	.L226
	movq	(%rdi), %rax
	popq	%rbx
	.cfi_remember_state
	.cfi_def_cfa_offset 8
	movq	32(%rax), %rax
	jmp	*%rax
	.p2align 4,,10
	.p2align 3
.L226:
	.cfi_restore_state
	popq	%rbx
	.cfi_def_cfa_offset 8
	ret
	.cfi_endproc
.LFE6972:
	.section	.gcc_except_table._ZN5boost16exception_detail14bad_exception_D2Ev,"aG",@progbits,_ZN5boost16exception_detail14bad_exception_D5Ev,comdat
.LLSDA6972:
	.byte	0xff
	.byte	0xff
	.byte	0x1
	.uleb128 .LLSDACSE6972-.LLSDACSB6972
.LLSDACSB6972:
.LLSDACSE6972:
	.section	.text._ZN5boost16exception_detail14bad_exception_D2Ev,"axG",@progbits,_ZN5boost16exception_detail14bad_exception_D5Ev,comdat
	.size	_ZN5boost16exception_detail14bad_exception_D2Ev, .-_ZN5boost16exception_detail14bad_exception_D2Ev
	.set	.LTHUNK2,_ZN5boost16exception_detail14bad_exception_D2Ev
	.p2align 4,,15
	.weak	_ZThn40_N5boost16exception_detail14bad_exception_D1Ev
	.type	_ZThn40_N5boost16exception_detail14bad_exception_D1Ev, @function
_ZThn40_N5boost16exception_detail14bad_exception_D1Ev:
.LFB14823:
	.cfi_startproc
	subq	$40, %rdi
	jmp	.LTHUNK2
	.cfi_endproc
.LFE14823:
	.size	_ZThn40_N5boost16exception_detail14bad_exception_D1Ev, .-_ZThn40_N5boost16exception_detail14bad_exception_D1Ev
	.weak	_ZN5boost16exception_detail14bad_exception_D1Ev
	.set	_ZN5boost16exception_detail14bad_exception_D1Ev,_ZN5boost16exception_detail14bad_exception_D2Ev
	.section	.text._ZN5boost16exception_detail14bad_exception_D0Ev,"axG",@progbits,_ZN5boost16exception_detail14bad_exception_D5Ev,comdat
	.align 2
	.p2align 4,,15
	.weak	_ZN5boost16exception_detail14bad_exception_D0Ev
	.type	_ZN5boost16exception_detail14bad_exception_D0Ev, @function
_ZN5boost16exception_detail14bad_exception_D0Ev:
.LFB6974:
	.cfi_startproc
	pushq	%rbx
	.cfi_def_cfa_offset 16
	.cfi_offset 3, -16
	movq	%rdi, %rbx
	call	_ZN5boost16exception_detail14bad_exception_D1Ev
	movq	%rbx, %rdi
	movl	$48, %esi
	popq	%rbx
	.cfi_def_cfa_offset 8
	jmp	_ZdlPvm
	.cfi_endproc
.LFE6974:
	.size	_ZN5boost16exception_detail14bad_exception_D0Ev, .-_ZN5boost16exception_detail14bad_exception_D0Ev
	.section	.text._ZN5boost16exception_detail10clone_implINS0_14bad_exception_EED1Ev,"axG",@progbits,_ZN5boost16exception_detail10clone_implINS0_14bad_exception_EED1Ev,comdat
	.align 2
	.p2align 4,,15
	.weak	_ZN5boost16exception_detail10clone_implINS0_14bad_exception_EED1Ev
	.type	_ZN5boost16exception_detail10clone_implINS0_14bad_exception_EED1Ev, @function
_ZN5boost16exception_detail10clone_implINS0_14bad_exception_EED1Ev:
.LFB11922:
	.cfi_startproc
	movq	$_ZTVN5boost16exception_detail10clone_implINS0_14bad_exception_EEE+24, (%rdi)
	movq	$_ZTVN5boost16exception_detail10clone_implINS0_14bad_exception_EEE+72, 40(%rdi)
	movq	$_ZTVN5boost16exception_detail10clone_implINS0_14bad_exception_EEE+136, 48(%rdi)
	jmp	_ZN5boost16exception_detail14bad_exception_D2Ev
	.cfi_endproc
.LFE11922:
	.size	_ZN5boost16exception_detail10clone_implINS0_14bad_exception_EED1Ev, .-_ZN5boost16exception_detail10clone_implINS0_14bad_exception_EED1Ev
	.section	.text._ZN5boost16exception_detail10clone_implINS0_14bad_exception_EED0Ev,"axG",@progbits,_ZN5boost16exception_detail10clone_implINS0_14bad_exception_EED0Ev,comdat
	.align 2
	.p2align 4,,15
	.weak	_ZN5boost16exception_detail10clone_implINS0_14bad_exception_EED0Ev
	.type	_ZN5boost16exception_detail10clone_implINS0_14bad_exception_EED0Ev, @function
_ZN5boost16exception_detail10clone_implINS0_14bad_exception_EED0Ev:
.LFB11923:
	.cfi_startproc
	pushq	%rbx
	.cfi_def_cfa_offset 16
	.cfi_offset 3, -16
	movq	%rdi, %rbx
	movq	$_ZTVN5boost16exception_detail10clone_implINS0_14bad_exception_EEE+24, (%rdi)
	movq	$_ZTVN5boost16exception_detail10clone_implINS0_14bad_exception_EEE+72, 40(%rdi)
	movq	$_ZTVN5boost16exception_detail10clone_implINS0_14bad_exception_EEE+136, 48(%rdi)
	call	_ZN5boost16exception_detail14bad_exception_D2Ev
	movq	%rbx, %rdi
	movl	$56, %esi
	popq	%rbx
	.cfi_def_cfa_offset 8
	jmp	_ZdlPvm
	.cfi_endproc
.LFE11923:
	.size	_ZN5boost16exception_detail10clone_implINS0_14bad_exception_EED0Ev, .-_ZN5boost16exception_detail10clone_implINS0_14bad_exception_EED0Ev
	.section	.text._ZN5boost16exception_detail39current_exception_std_exception_wrapperISt13bad_exceptionED2Ev,"axG",@progbits,_ZN5boost16exception_detail39current_exception_std_exception_wrapperISt13bad_exceptionED5Ev,comdat
	.align 2
	.p2align 4,,15
	.weak	_ZN5boost16exception_detail39current_exception_std_exception_wrapperISt13bad_exceptionED2Ev
	.type	_ZN5boost16exception_detail39current_exception_std_exception_wrapperISt13bad_exceptionED2Ev, @function
_ZN5boost16exception_detail39current_exception_std_exception_wrapperISt13bad_exceptionED2Ev:
.LFB12124:
	.cfi_startproc
	.cfi_personality 0x3,__gxx_personality_v0
	.cfi_lsda 0x3,.LLSDA12124
	pushq	%rbx
	.cfi_def_cfa_offset 16
	.cfi_offset 3, -16
	movq	%rdi, %rbx
	movq	$_ZTVN5boost16exception_detail39current_exception_std_exception_wrapperISt13bad_exceptionEE+16, (%rdi)
	movq	$_ZTVN5boost9exceptionE+16, 8(%rdi)
	movq	16(%rdi), %rdi
	testq	%rdi, %rdi
	je	.L235
	movq	(%rdi), %rax
	call	*32(%rax)
.L235:
	movq	%rbx, %rdi
	popq	%rbx
	.cfi_def_cfa_offset 8
	jmp	_ZNSt13bad_exceptionD2Ev
	.cfi_endproc
.LFE12124:
	.section	.gcc_except_table._ZN5boost16exception_detail39current_exception_std_exception_wrapperISt13bad_exceptionED2Ev,"aG",@progbits,_ZN5boost16exception_detail39current_exception_std_exception_wrapperISt13bad_exceptionED5Ev,comdat
.LLSDA12124:
	.byte	0xff
	.byte	0xff
	.byte	0x1
	.uleb128 .LLSDACSE12124-.LLSDACSB12124
.LLSDACSB12124:
.LLSDACSE12124:
	.section	.text._ZN5boost16exception_detail39current_exception_std_exception_wrapperISt13bad_exceptionED2Ev,"axG",@progbits,_ZN5boost16exception_detail39current_exception_std_exception_wrapperISt13bad_exceptionED5Ev,comdat
	.size	_ZN5boost16exception_detail39current_exception_std_exception_wrapperISt13bad_exceptionED2Ev, .-_ZN5boost16exception_detail39current_exception_std_exception_wrapperISt13bad_exceptionED2Ev
	.weak	_ZN5boost16exception_detail39current_exception_std_exception_wrapperISt13bad_exceptionED1Ev
	.set	_ZN5boost16exception_detail39current_exception_std_exception_wrapperISt13bad_exceptionED1Ev,_ZN5boost16exception_detail39current_exception_std_exception_wrapperISt13bad_exceptionED2Ev
	.set	.LTHUNK86,_ZN5boost16exception_detail39current_exception_std_exception_wrapperISt13bad_exceptionED1Ev
	.p2align 4,,15
	.weak	_ZThn8_N5boost16exception_detail39current_exception_std_exception_wrapperISt13bad_exceptionED1Ev
	.type	_ZThn8_N5boost16exception_detail39current_exception_std_exception_wrapperISt13bad_exceptionED1Ev, @function
_ZThn8_N5boost16exception_detail39current_exception_std_exception_wrapperISt13bad_exceptionED1Ev:
.LFB14827:
	.cfi_startproc
	subq	$8, %rdi
	jmp	.LTHUNK86
	.cfi_endproc
.LFE14827:
	.size	_ZThn8_N5boost16exception_detail39current_exception_std_exception_wrapperISt13bad_exceptionED1Ev, .-_ZThn8_N5boost16exception_detail39current_exception_std_exception_wrapperISt13bad_exceptionED1Ev
	.section	.text._ZN5boost16exception_detail39current_exception_std_exception_wrapperISt13bad_exceptionED0Ev,"axG",@progbits,_ZN5boost16exception_detail39current_exception_std_exception_wrapperISt13bad_exceptionED5Ev,comdat
	.align 2
	.p2align 4,,15
	.weak	_ZN5boost16exception_detail39current_exception_std_exception_wrapperISt13bad_exceptionED0Ev
	.type	_ZN5boost16exception_detail39current_exception_std_exception_wrapperISt13bad_exceptionED0Ev, @function
_ZN5boost16exception_detail39current_exception_std_exception_wrapperISt13bad_exceptionED0Ev:
.LFB12126:
	.cfi_startproc
	pushq	%rbx
	.cfi_def_cfa_offset 16
	.cfi_offset 3, -16
	movq	%rdi, %rbx
	call	_ZN5boost16exception_detail39current_exception_std_exception_wrapperISt13bad_exceptionED1Ev
	movq	%rbx, %rdi
	movl	$48, %esi
	popq	%rbx
	.cfi_def_cfa_offset 8
	jmp	_ZdlPvm
	.cfi_endproc
.LFE12126:
	.size	_ZN5boost16exception_detail39current_exception_std_exception_wrapperISt13bad_exceptionED0Ev, .-_ZN5boost16exception_detail39current_exception_std_exception_wrapperISt13bad_exceptionED0Ev
	.section	.text._ZN5boost16exception_detail10clone_implINS0_39current_exception_std_exception_wrapperISt13bad_exceptionEEED1Ev,"axG",@progbits,_ZN5boost16exception_detail10clone_implINS0_39current_exception_std_exception_wrapperISt13bad_exceptionEEED1Ev,comdat
	.align 2
	.p2align 4,,15
	.weak	_ZN5boost16exception_detail10clone_implINS0_39current_exception_std_exception_wrapperISt13bad_exceptionEEED1Ev
	.type	_ZN5boost16exception_detail10clone_implINS0_39current_exception_std_exception_wrapperISt13bad_exceptionEEED1Ev, @function
_ZN5boost16exception_detail10clone_implINS0_39current_exception_std_exception_wrapperISt13bad_exceptionEEED1Ev:
.LFB12764:
	.cfi_startproc
	movq	$_ZTVN5boost16exception_detail10clone_implINS0_39current_exception_std_exception_wrapperISt13bad_exceptionEEEE+24, (%rdi)
	movq	$_ZTVN5boost16exception_detail10clone_implINS0_39current_exception_std_exception_wrapperISt13bad_exceptionEEEE+80, 8(%rdi)
	movq	$_ZTVN5boost16exception_detail10clone_implINS0_39current_exception_std_exception_wrapperISt13bad_exceptionEEEE+136, 48(%rdi)
	jmp	_ZN5boost16exception_detail39current_exception_std_exception_wrapperISt13bad_exceptionED2Ev
	.cfi_endproc
.LFE12764:
	.size	_ZN5boost16exception_detail10clone_implINS0_39current_exception_std_exception_wrapperISt13bad_exceptionEEED1Ev, .-_ZN5boost16exception_detail10clone_implINS0_39current_exception_std_exception_wrapperISt13bad_exceptionEEED1Ev
	.section	.text._ZN5boost16exception_detail10clone_implINS0_39current_exception_std_exception_wrapperISt13bad_exceptionEEED0Ev,"axG",@progbits,_ZN5boost16exception_detail10clone_implINS0_39current_exception_std_exception_wrapperISt13bad_exceptionEEED0Ev,comdat
	.align 2
	.p2align 4,,15
	.weak	_ZN5boost16exception_detail10clone_implINS0_39current_exception_std_exception_wrapperISt13bad_exceptionEEED0Ev
	.type	_ZN5boost16exception_detail10clone_implINS0_39current_exception_std_exception_wrapperISt13bad_exceptionEEED0Ev, @function
_ZN5boost16exception_detail10clone_implINS0_39current_exception_std_exception_wrapperISt13bad_exceptionEEED0Ev:
.LFB12765:
	.cfi_startproc
	pushq	%rbx
	.cfi_def_cfa_offset 16
	.cfi_offset 3, -16
	movq	%rdi, %rbx
	movq	$_ZTVN5boost16exception_detail10clone_implINS0_39current_exception_std_exception_wrapperISt13bad_exceptionEEEE+24, (%rdi)
	movq	$_ZTVN5boost16exception_detail10clone_implINS0_39current_exception_std_exception_wrapperISt13bad_exceptionEEEE+80, 8(%rdi)
	movq	$_ZTVN5boost16exception_detail10clone_implINS0_39current_exception_std_exception_wrapperISt13bad_exceptionEEEE+136, 48(%rdi)
	call	_ZN5boost16exception_detail39current_exception_std_exception_wrapperISt13bad_exceptionED2Ev
	movq	%rbx, %rdi
	movl	$56, %esi
	popq	%rbx
	.cfi_def_cfa_offset 8
	jmp	_ZdlPvm
	.cfi_endproc
.LFE12765:
	.size	_ZN5boost16exception_detail10clone_implINS0_39current_exception_std_exception_wrapperISt13bad_exceptionEEED0Ev, .-_ZN5boost16exception_detail10clone_implINS0_39current_exception_std_exception_wrapperISt13bad_exceptionEEED0Ev
	.section	.text._ZN5boost16exception_detail10bad_alloc_D2Ev,"axG",@progbits,_ZN5boost16exception_detail10bad_alloc_D5Ev,comdat
	.align 2
	.p2align 4,,15
	.weak	_ZN5boost16exception_detail10bad_alloc_D2Ev
	.type	_ZN5boost16exception_detail10bad_alloc_D2Ev, @function
_ZN5boost16exception_detail10bad_alloc_D2Ev:
.LFB6968:
	.cfi_startproc
	.cfi_personality 0x3,__gxx_personality_v0
	.cfi_lsda 0x3,.LLSDA6968
	pushq	%rbx
	.cfi_def_cfa_offset 16
	.cfi_offset 3, -16
	movq	$_ZTVN5boost16exception_detail10bad_alloc_E+16, (%rdi)
	movq	%rdi, %rbx
	movq	$_ZTVN5boost16exception_detail10bad_alloc_E+48, 40(%rdi)
	addq	$40, %rdi
	call	_ZNSt9bad_allocD2Ev
	movq	8(%rbx), %rdi
	movq	$_ZTVN5boost9exceptionE+16, (%rbx)
	testq	%rdi, %rdi
	je	.L245
	movq	(%rdi), %rax
	popq	%rbx
	.cfi_remember_state
	.cfi_def_cfa_offset 8
	movq	32(%rax), %rax
	jmp	*%rax
	.p2align 4,,10
	.p2align 3
.L245:
	.cfi_restore_state
	popq	%rbx
	.cfi_def_cfa_offset 8
	ret
	.cfi_endproc
.LFE6968:
	.section	.gcc_except_table._ZN5boost16exception_detail10bad_alloc_D2Ev,"aG",@progbits,_ZN5boost16exception_detail10bad_alloc_D5Ev,comdat
.LLSDA6968:
	.byte	0xff
	.byte	0xff
	.byte	0x1
	.uleb128 .LLSDACSE6968-.LLSDACSB6968
.LLSDACSB6968:
.LLSDACSE6968:
	.section	.text._ZN5boost16exception_detail10bad_alloc_D2Ev,"axG",@progbits,_ZN5boost16exception_detail10bad_alloc_D5Ev,comdat
	.size	_ZN5boost16exception_detail10bad_alloc_D2Ev, .-_ZN5boost16exception_detail10bad_alloc_D2Ev
	.set	.LTHUNK0,_ZN5boost16exception_detail10bad_alloc_D2Ev
	.p2align 4,,15
	.weak	_ZThn40_N5boost16exception_detail10bad_alloc_D1Ev
	.type	_ZThn40_N5boost16exception_detail10bad_alloc_D1Ev, @function
_ZThn40_N5boost16exception_detail10bad_alloc_D1Ev:
.LFB14831:
	.cfi_startproc
	subq	$40, %rdi
	jmp	.LTHUNK0
	.cfi_endproc
.LFE14831:
	.size	_ZThn40_N5boost16exception_detail10bad_alloc_D1Ev, .-_ZThn40_N5boost16exception_detail10bad_alloc_D1Ev
	.weak	_ZN5boost16exception_detail10bad_alloc_D1Ev
	.set	_ZN5boost16exception_detail10bad_alloc_D1Ev,_ZN5boost16exception_detail10bad_alloc_D2Ev
	.section	.text._ZN5boost16exception_detail10bad_alloc_D0Ev,"axG",@progbits,_ZN5boost16exception_detail10bad_alloc_D5Ev,comdat
	.align 2
	.p2align 4,,15
	.weak	_ZN5boost16exception_detail10bad_alloc_D0Ev
	.type	_ZN5boost16exception_detail10bad_alloc_D0Ev, @function
_ZN5boost16exception_detail10bad_alloc_D0Ev:
.LFB6970:
	.cfi_startproc
	pushq	%rbx
	.cfi_def_cfa_offset 16
	.cfi_offset 3, -16
	movq	%rdi, %rbx
	call	_ZN5boost16exception_detail10bad_alloc_D1Ev
	movq	%rbx, %rdi
	movl	$48, %esi
	popq	%rbx
	.cfi_def_cfa_offset 8
	jmp	_ZdlPvm
	.cfi_endproc
.LFE6970:
	.size	_ZN5boost16exception_detail10bad_alloc_D0Ev, .-_ZN5boost16exception_detail10bad_alloc_D0Ev
	.section	.text._ZN5boost16exception_detail10clone_implINS0_10bad_alloc_EED1Ev,"axG",@progbits,_ZN5boost16exception_detail10clone_implINS0_10bad_alloc_EED1Ev,comdat
	.align 2
	.p2align 4,,15
	.weak	_ZN5boost16exception_detail10clone_implINS0_10bad_alloc_EED1Ev
	.type	_ZN5boost16exception_detail10clone_implINS0_10bad_alloc_EED1Ev, @function
_ZN5boost16exception_detail10clone_implINS0_10bad_alloc_EED1Ev:
.LFB11906:
	.cfi_startproc
	movq	$_ZTVN5boost16exception_detail10clone_implINS0_10bad_alloc_EEE+24, (%rdi)
	movq	$_ZTVN5boost16exception_detail10clone_implINS0_10bad_alloc_EEE+72, 40(%rdi)
	movq	$_ZTVN5boost16exception_detail10clone_implINS0_10bad_alloc_EEE+136, 48(%rdi)
	jmp	_ZN5boost16exception_detail10bad_alloc_D2Ev
	.cfi_endproc
.LFE11906:
	.size	_ZN5boost16exception_detail10clone_implINS0_10bad_alloc_EED1Ev, .-_ZN5boost16exception_detail10clone_implINS0_10bad_alloc_EED1Ev
	.section	.text._ZN5boost16exception_detail10clone_implINS0_10bad_alloc_EED0Ev,"axG",@progbits,_ZN5boost16exception_detail10clone_implINS0_10bad_alloc_EED0Ev,comdat
	.align 2
	.p2align 4,,15
	.weak	_ZN5boost16exception_detail10clone_implINS0_10bad_alloc_EED0Ev
	.type	_ZN5boost16exception_detail10clone_implINS0_10bad_alloc_EED0Ev, @function
_ZN5boost16exception_detail10clone_implINS0_10bad_alloc_EED0Ev:
.LFB11907:
	.cfi_startproc
	pushq	%rbx
	.cfi_def_cfa_offset 16
	.cfi_offset 3, -16
	movq	%rdi, %rbx
	movq	$_ZTVN5boost16exception_detail10clone_implINS0_10bad_alloc_EEE+24, (%rdi)
	movq	$_ZTVN5boost16exception_detail10clone_implINS0_10bad_alloc_EEE+72, 40(%rdi)
	movq	$_ZTVN5boost16exception_detail10clone_implINS0_10bad_alloc_EEE+136, 48(%rdi)
	call	_ZN5boost16exception_detail10bad_alloc_D2Ev
	movq	%rbx, %rdi
	movl	$56, %esi
	popq	%rbx
	.cfi_def_cfa_offset 8
	jmp	_ZdlPvm
	.cfi_endproc
.LFE11907:
	.size	_ZN5boost16exception_detail10clone_implINS0_10bad_alloc_EED0Ev, .-_ZN5boost16exception_detail10clone_implINS0_10bad_alloc_EED0Ev
	.section	.text._ZN5boost16exception_detail39current_exception_std_exception_wrapperISt9bad_allocED2Ev,"axG",@progbits,_ZN5boost16exception_detail39current_exception_std_exception_wrapperISt9bad_allocED5Ev,comdat
	.align 2
	.p2align 4,,15
	.weak	_ZN5boost16exception_detail39current_exception_std_exception_wrapperISt9bad_allocED2Ev
	.type	_ZN5boost16exception_detail39current_exception_std_exception_wrapperISt9bad_allocED2Ev, @function
_ZN5boost16exception_detail39current_exception_std_exception_wrapperISt9bad_allocED2Ev:
.LFB12082:
	.cfi_startproc
	.cfi_personality 0x3,__gxx_personality_v0
	.cfi_lsda 0x3,.LLSDA12082
	pushq	%rbx
	.cfi_def_cfa_offset 16
	.cfi_offset 3, -16
	movq	%rdi, %rbx
	movq	$_ZTVN5boost16exception_detail39current_exception_std_exception_wrapperISt9bad_allocEE+16, (%rdi)
	movq	$_ZTVN5boost9exceptionE+16, 8(%rdi)
	movq	16(%rdi), %rdi
	testq	%rdi, %rdi
	je	.L254
	movq	(%rdi), %rax
	call	*32(%rax)
.L254:
	movq	%rbx, %rdi
	popq	%rbx
	.cfi_def_cfa_offset 8
	jmp	_ZNSt9bad_allocD2Ev
	.cfi_endproc
.LFE12082:
	.section	.gcc_except_table._ZN5boost16exception_detail39current_exception_std_exception_wrapperISt9bad_allocED2Ev,"aG",@progbits,_ZN5boost16exception_detail39current_exception_std_exception_wrapperISt9bad_allocED5Ev,comdat
.LLSDA12082:
	.byte	0xff
	.byte	0xff
	.byte	0x1
	.uleb128 .LLSDACSE12082-.LLSDACSB12082
.LLSDACSB12082:
.LLSDACSE12082:
	.section	.text._ZN5boost16exception_detail39current_exception_std_exception_wrapperISt9bad_allocED2Ev,"axG",@progbits,_ZN5boost16exception_detail39current_exception_std_exception_wrapperISt9bad_allocED5Ev,comdat
	.size	_ZN5boost16exception_detail39current_exception_std_exception_wrapperISt9bad_allocED2Ev, .-_ZN5boost16exception_detail39current_exception_std_exception_wrapperISt9bad_allocED2Ev
	.weak	_ZN5boost16exception_detail39current_exception_std_exception_wrapperISt9bad_allocED1Ev
	.set	_ZN5boost16exception_detail39current_exception_std_exception_wrapperISt9bad_allocED1Ev,_ZN5boost16exception_detail39current_exception_std_exception_wrapperISt9bad_allocED2Ev
	.set	.LTHUNK80,_ZN5boost16exception_detail39current_exception_std_exception_wrapperISt9bad_allocED1Ev
	.p2align 4,,15
	.weak	_ZThn8_N5boost16exception_detail39current_exception_std_exception_wrapperISt9bad_allocED1Ev
	.type	_ZThn8_N5boost16exception_detail39current_exception_std_exception_wrapperISt9bad_allocED1Ev, @function
_ZThn8_N5boost16exception_detail39current_exception_std_exception_wrapperISt9bad_allocED1Ev:
.LFB14835:
	.cfi_startproc
	subq	$8, %rdi
	jmp	.LTHUNK80
	.cfi_endproc
.LFE14835:
	.size	_ZThn8_N5boost16exception_detail39current_exception_std_exception_wrapperISt9bad_allocED1Ev, .-_ZThn8_N5boost16exception_detail39current_exception_std_exception_wrapperISt9bad_allocED1Ev
	.section	.text._ZN5boost16exception_detail39current_exception_std_exception_wrapperISt9bad_allocED0Ev,"axG",@progbits,_ZN5boost16exception_detail39current_exception_std_exception_wrapperISt9bad_allocED5Ev,comdat
	.align 2
	.p2align 4,,15
	.weak	_ZN5boost16exception_detail39current_exception_std_exception_wrapperISt9bad_allocED0Ev
	.type	_ZN5boost16exception_detail39current_exception_std_exception_wrapperISt9bad_allocED0Ev, @function
_ZN5boost16exception_detail39current_exception_std_exception_wrapperISt9bad_allocED0Ev:
.LFB12084:
	.cfi_startproc
	pushq	%rbx
	.cfi_def_cfa_offset 16
	.cfi_offset 3, -16
	movq	%rdi, %rbx
	call	_ZN5boost16exception_detail39current_exception_std_exception_wrapperISt9bad_allocED1Ev
	movq	%rbx, %rdi
	movl	$48, %esi
	popq	%rbx
	.cfi_def_cfa_offset 8
	jmp	_ZdlPvm
	.cfi_endproc
.LFE12084:
	.size	_ZN5boost16exception_detail39current_exception_std_exception_wrapperISt9bad_allocED0Ev, .-_ZN5boost16exception_detail39current_exception_std_exception_wrapperISt9bad_allocED0Ev
	.section	.text._ZN5boost16exception_detail10clone_implINS0_39current_exception_std_exception_wrapperISt9bad_allocEEED1Ev,"axG",@progbits,_ZN5boost16exception_detail10clone_implINS0_39current_exception_std_exception_wrapperISt9bad_allocEEED1Ev,comdat
	.align 2
	.p2align 4,,15
	.weak	_ZN5boost16exception_detail10clone_implINS0_39current_exception_std_exception_wrapperISt9bad_allocEEED1Ev
	.type	_ZN5boost16exception_detail10clone_implINS0_39current_exception_std_exception_wrapperISt9bad_allocEEED1Ev, @function
_ZN5boost16exception_detail10clone_implINS0_39current_exception_std_exception_wrapperISt9bad_allocEEED1Ev:
.LFB12746:
	.cfi_startproc
	movq	$_ZTVN5boost16exception_detail10clone_implINS0_39current_exception_std_exception_wrapperISt9bad_allocEEEE+24, (%rdi)
	movq	$_ZTVN5boost16exception_detail10clone_implINS0_39current_exception_std_exception_wrapperISt9bad_allocEEEE+80, 8(%rdi)
	movq	$_ZTVN5boost16exception_detail10clone_implINS0_39current_exception_std_exception_wrapperISt9bad_allocEEEE+136, 48(%rdi)
	jmp	_ZN5boost16exception_detail39current_exception_std_exception_wrapperISt9bad_allocED2Ev
	.cfi_endproc
.LFE12746:
	.size	_ZN5boost16exception_detail10clone_implINS0_39current_exception_std_exception_wrapperISt9bad_allocEEED1Ev, .-_ZN5boost16exception_detail10clone_implINS0_39current_exception_std_exception_wrapperISt9bad_allocEEED1Ev
	.section	.text._ZN5boost16exception_detail10clone_implINS0_39current_exception_std_exception_wrapperISt9bad_allocEEED0Ev,"axG",@progbits,_ZN5boost16exception_detail10clone_implINS0_39current_exception_std_exception_wrapperISt9bad_allocEEED0Ev,comdat
	.align 2
	.p2align 4,,15
	.weak	_ZN5boost16exception_detail10clone_implINS0_39current_exception_std_exception_wrapperISt9bad_allocEEED0Ev
	.type	_ZN5boost16exception_detail10clone_implINS0_39current_exception_std_exception_wrapperISt9bad_allocEEED0Ev, @function
_ZN5boost16exception_detail10clone_implINS0_39current_exception_std_exception_wrapperISt9bad_allocEEED0Ev:
.LFB12747:
	.cfi_startproc
	pushq	%rbx
	.cfi_def_cfa_offset 16
	.cfi_offset 3, -16
	movq	%rdi, %rbx
	movq	$_ZTVN5boost16exception_detail10clone_implINS0_39current_exception_std_exception_wrapperISt9bad_allocEEEE+24, (%rdi)
	movq	$_ZTVN5boost16exception_detail10clone_implINS0_39current_exception_std_exception_wrapperISt9bad_allocEEEE+80, 8(%rdi)
	movq	$_ZTVN5boost16exception_detail10clone_implINS0_39current_exception_std_exception_wrapperISt9bad_allocEEEE+136, 48(%rdi)
	call	_ZN5boost16exception_detail39current_exception_std_exception_wrapperISt9bad_allocED2Ev
	movq	%rbx, %rdi
	movl	$56, %esi
	popq	%rbx
	.cfi_def_cfa_offset 8
	jmp	_ZdlPvm
	.cfi_endproc
.LFE12747:
	.size	_ZN5boost16exception_detail10clone_implINS0_39current_exception_std_exception_wrapperISt9bad_allocEEED0Ev, .-_ZN5boost16exception_detail10clone_implINS0_39current_exception_std_exception_wrapperISt9bad_allocEEED0Ev
	.section	.text._ZN5boost16exception_detail39current_exception_std_exception_wrapperISt12out_of_rangeED2Ev,"axG",@progbits,_ZN5boost16exception_detail39current_exception_std_exception_wrapperISt12out_of_rangeED5Ev,comdat
	.align 2
	.p2align 4,,15
	.weak	_ZN5boost16exception_detail39current_exception_std_exception_wrapperISt12out_of_rangeED2Ev
	.type	_ZN5boost16exception_detail39current_exception_std_exception_wrapperISt12out_of_rangeED2Ev, @function
_ZN5boost16exception_detail39current_exception_std_exception_wrapperISt12out_of_rangeED2Ev:
.LFB11983:
	.cfi_startproc
	.cfi_personality 0x3,__gxx_personality_v0
	.cfi_lsda 0x3,.LLSDA11983
	pushq	%rbx
	.cfi_def_cfa_offset 16
	.cfi_offset 3, -16
	movq	%rdi, %rbx
	movq	$_ZTVN5boost16exception_detail39current_exception_std_exception_wrapperISt12out_of_rangeEE+16, (%rdi)
	movq	$_ZTVN5boost9exceptionE+16, 16(%rdi)
	movq	24(%rdi), %rdi
	testq	%rdi, %rdi
	je	.L265
	movq	(%rdi), %rax
	call	*32(%rax)
.L265:
	movq	%rbx, %rdi
	popq	%rbx
	.cfi_def_cfa_offset 8
	jmp	_ZNSt12out_of_rangeD2Ev
	.cfi_endproc
.LFE11983:
	.section	.gcc_except_table._ZN5boost16exception_detail39current_exception_std_exception_wrapperISt12out_of_rangeED2Ev,"aG",@progbits,_ZN5boost16exception_detail39current_exception_std_exception_wrapperISt12out_of_rangeED5Ev,comdat
.LLSDA11983:
	.byte	0xff
	.byte	0xff
	.byte	0x1
	.uleb128 .LLSDACSE11983-.LLSDACSB11983
.LLSDACSB11983:
.LLSDACSE11983:
	.section	.text._ZN5boost16exception_detail39current_exception_std_exception_wrapperISt12out_of_rangeED2Ev,"axG",@progbits,_ZN5boost16exception_detail39current_exception_std_exception_wrapperISt12out_of_rangeED5Ev,comdat
	.size	_ZN5boost16exception_detail39current_exception_std_exception_wrapperISt12out_of_rangeED2Ev, .-_ZN5boost16exception_detail39current_exception_std_exception_wrapperISt12out_of_rangeED2Ev
	.weak	_ZN5boost16exception_detail39current_exception_std_exception_wrapperISt12out_of_rangeED1Ev
	.set	_ZN5boost16exception_detail39current_exception_std_exception_wrapperISt12out_of_rangeED1Ev,_ZN5boost16exception_detail39current_exception_std_exception_wrapperISt12out_of_rangeED2Ev
	.set	.LTHUNK66,_ZN5boost16exception_detail39current_exception_std_exception_wrapperISt12out_of_rangeED1Ev
	.p2align 4,,15
	.weak	_ZThn16_N5boost16exception_detail39current_exception_std_exception_wrapperISt12out_of_rangeED1Ev
	.type	_ZThn16_N5boost16exception_detail39current_exception_std_exception_wrapperISt12out_of_rangeED1Ev, @function
_ZThn16_N5boost16exception_detail39current_exception_std_exception_wrapperISt12out_of_rangeED1Ev:
.LFB14839:
	.cfi_startproc
	subq	$16, %rdi
	jmp	.LTHUNK66
	.cfi_endproc
.LFE14839:
	.size	_ZThn16_N5boost16exception_detail39current_exception_std_exception_wrapperISt12out_of_rangeED1Ev, .-_ZThn16_N5boost16exception_detail39current_exception_std_exception_wrapperISt12out_of_rangeED1Ev
	.section	.text._ZN5boost16exception_detail39current_exception_std_exception_wrapperISt12out_of_rangeED0Ev,"axG",@progbits,_ZN5boost16exception_detail39current_exception_std_exception_wrapperISt12out_of_rangeED5Ev,comdat
	.align 2
	.p2align 4,,15
	.weak	_ZN5boost16exception_detail39current_exception_std_exception_wrapperISt12out_of_rangeED0Ev
	.type	_ZN5boost16exception_detail39current_exception_std_exception_wrapperISt12out_of_rangeED0Ev, @function
_ZN5boost16exception_detail39current_exception_std_exception_wrapperISt12out_of_rangeED0Ev:
.LFB11985:
	.cfi_startproc
	pushq	%rbx
	.cfi_def_cfa_offset 16
	.cfi_offset 3, -16
	movq	%rdi, %rbx
	call	_ZN5boost16exception_detail39current_exception_std_exception_wrapperISt12out_of_rangeED1Ev
	movq	%rbx, %rdi
	movl	$56, %esi
	popq	%rbx
	.cfi_def_cfa_offset 8
	jmp	_ZdlPvm
	.cfi_endproc
.LFE11985:
	.size	_ZN5boost16exception_detail39current_exception_std_exception_wrapperISt12out_of_rangeED0Ev, .-_ZN5boost16exception_detail39current_exception_std_exception_wrapperISt12out_of_rangeED0Ev
	.section	.text._ZN5boost16exception_detail10clone_implINS0_39current_exception_std_exception_wrapperISt12out_of_rangeEEED1Ev,"axG",@progbits,_ZN5boost16exception_detail10clone_implINS0_39current_exception_std_exception_wrapperISt12out_of_rangeEEED1Ev,comdat
	.align 2
	.p2align 4,,15
	.weak	_ZN5boost16exception_detail10clone_implINS0_39current_exception_std_exception_wrapperISt12out_of_rangeEEED1Ev
	.type	_ZN5boost16exception_detail10clone_implINS0_39current_exception_std_exception_wrapperISt12out_of_rangeEEED1Ev, @function
_ZN5boost16exception_detail10clone_implINS0_39current_exception_std_exception_wrapperISt12out_of_rangeEEED1Ev:
.LFB12704:
	.cfi_startproc
	movq	$_ZTVN5boost16exception_detail10clone_implINS0_39current_exception_std_exception_wrapperISt12out_of_rangeEEEE+24, (%rdi)
	movq	$_ZTVN5boost16exception_detail10clone_implINS0_39current_exception_std_exception_wrapperISt12out_of_rangeEEEE+80, 16(%rdi)
	movq	$_ZTVN5boost16exception_detail10clone_implINS0_39current_exception_std_exception_wrapperISt12out_of_rangeEEEE+136, 56(%rdi)
	jmp	_ZN5boost16exception_detail39current_exception_std_exception_wrapperISt12out_of_rangeED2Ev
	.cfi_endproc
.LFE12704:
	.size	_ZN5boost16exception_detail10clone_implINS0_39current_exception_std_exception_wrapperISt12out_of_rangeEEED1Ev, .-_ZN5boost16exception_detail10clone_implINS0_39current_exception_std_exception_wrapperISt12out_of_rangeEEED1Ev
	.section	.text._ZN5boost16exception_detail10clone_implINS0_39current_exception_std_exception_wrapperISt12out_of_rangeEEED0Ev,"axG",@progbits,_ZN5boost16exception_detail10clone_implINS0_39current_exception_std_exception_wrapperISt12out_of_rangeEEED0Ev,comdat
	.align 2
	.p2align 4,,15
	.weak	_ZN5boost16exception_detail10clone_implINS0_39current_exception_std_exception_wrapperISt12out_of_rangeEEED0Ev
	.type	_ZN5boost16exception_detail10clone_implINS0_39current_exception_std_exception_wrapperISt12out_of_rangeEEED0Ev, @function
_ZN5boost16exception_detail10clone_implINS0_39current_exception_std_exception_wrapperISt12out_of_rangeEEED0Ev:
.LFB12705:
	.cfi_startproc
	pushq	%rbx
	.cfi_def_cfa_offset 16
	.cfi_offset 3, -16
	movq	%rdi, %rbx
	movq	$_ZTVN5boost16exception_detail10clone_implINS0_39current_exception_std_exception_wrapperISt12out_of_rangeEEEE+24, (%rdi)
	movq	$_ZTVN5boost16exception_detail10clone_implINS0_39current_exception_std_exception_wrapperISt12out_of_rangeEEEE+80, 16(%rdi)
	movq	$_ZTVN5boost16exception_detail10clone_implINS0_39current_exception_std_exception_wrapperISt12out_of_rangeEEEE+136, 56(%rdi)
	call	_ZN5boost16exception_detail39current_exception_std_exception_wrapperISt12out_of_rangeED2Ev
	movq	%rbx, %rdi
	movl	$64, %esi
	popq	%rbx
	.cfi_def_cfa_offset 8
	jmp	_ZdlPvm
	.cfi_endproc
.LFE12705:
	.size	_ZN5boost16exception_detail10clone_implINS0_39current_exception_std_exception_wrapperISt12out_of_rangeEEED0Ev, .-_ZN5boost16exception_detail10clone_implINS0_39current_exception_std_exception_wrapperISt12out_of_rangeEEED0Ev
	.section	.text._ZN5boost16exception_detail39current_exception_std_exception_wrapperISt10bad_typeidED2Ev,"axG",@progbits,_ZN5boost16exception_detail39current_exception_std_exception_wrapperISt10bad_typeidED5Ev,comdat
	.align 2
	.p2align 4,,15
	.weak	_ZN5boost16exception_detail39current_exception_std_exception_wrapperISt10bad_typeidED2Ev
	.type	_ZN5boost16exception_detail39current_exception_std_exception_wrapperISt10bad_typeidED2Ev, @function
_ZN5boost16exception_detail39current_exception_std_exception_wrapperISt10bad_typeidED2Ev:
.LFB12112:
	.cfi_startproc
	.cfi_personality 0x3,__gxx_personality_v0
	.cfi_lsda 0x3,.LLSDA12112
	pushq	%rbx
	.cfi_def_cfa_offset 16
	.cfi_offset 3, -16
	movq	%rdi, %rbx
	movq	$_ZTVN5boost16exception_detail39current_exception_std_exception_wrapperISt10bad_typeidEE+16, (%rdi)
	movq	$_ZTVN5boost9exceptionE+16, 8(%rdi)
	movq	16(%rdi), %rdi
	testq	%rdi, %rdi
	je	.L276
	movq	(%rdi), %rax
	call	*32(%rax)
.L276:
	movq	%rbx, %rdi
	popq	%rbx
	.cfi_def_cfa_offset 8
	jmp	_ZNSt10bad_typeidD2Ev
	.cfi_endproc
.LFE12112:
	.section	.gcc_except_table._ZN5boost16exception_detail39current_exception_std_exception_wrapperISt10bad_typeidED2Ev,"aG",@progbits,_ZN5boost16exception_detail39current_exception_std_exception_wrapperISt10bad_typeidED5Ev,comdat
.LLSDA12112:
	.byte	0xff
	.byte	0xff
	.byte	0x1
	.uleb128 .LLSDACSE12112-.LLSDACSB12112
.LLSDACSB12112:
.LLSDACSE12112:
	.section	.text._ZN5boost16exception_detail39current_exception_std_exception_wrapperISt10bad_typeidED2Ev,"axG",@progbits,_ZN5boost16exception_detail39current_exception_std_exception_wrapperISt10bad_typeidED5Ev,comdat
	.size	_ZN5boost16exception_detail39current_exception_std_exception_wrapperISt10bad_typeidED2Ev, .-_ZN5boost16exception_detail39current_exception_std_exception_wrapperISt10bad_typeidED2Ev
	.weak	_ZN5boost16exception_detail39current_exception_std_exception_wrapperISt10bad_typeidED1Ev
	.set	_ZN5boost16exception_detail39current_exception_std_exception_wrapperISt10bad_typeidED1Ev,_ZN5boost16exception_detail39current_exception_std_exception_wrapperISt10bad_typeidED2Ev
	.set	.LTHUNK84,_ZN5boost16exception_detail39current_exception_std_exception_wrapperISt10bad_typeidED1Ev
	.p2align 4,,15
	.weak	_ZThn8_N5boost16exception_detail39current_exception_std_exception_wrapperISt10bad_typeidED1Ev
	.type	_ZThn8_N5boost16exception_detail39current_exception_std_exception_wrapperISt10bad_typeidED1Ev, @function
_ZThn8_N5boost16exception_detail39current_exception_std_exception_wrapperISt10bad_typeidED1Ev:
.LFB14843:
	.cfi_startproc
	subq	$8, %rdi
	jmp	.LTHUNK84
	.cfi_endproc
.LFE14843:
	.size	_ZThn8_N5boost16exception_detail39current_exception_std_exception_wrapperISt10bad_typeidED1Ev, .-_ZThn8_N5boost16exception_detail39current_exception_std_exception_wrapperISt10bad_typeidED1Ev
	.section	.text._ZN5boost16exception_detail39current_exception_std_exception_wrapperISt10bad_typeidED0Ev,"axG",@progbits,_ZN5boost16exception_detail39current_exception_std_exception_wrapperISt10bad_typeidED5Ev,comdat
	.align 2
	.p2align 4,,15
	.weak	_ZN5boost16exception_detail39current_exception_std_exception_wrapperISt10bad_typeidED0Ev
	.type	_ZN5boost16exception_detail39current_exception_std_exception_wrapperISt10bad_typeidED0Ev, @function
_ZN5boost16exception_detail39current_exception_std_exception_wrapperISt10bad_typeidED0Ev:
.LFB12114:
	.cfi_startproc
	pushq	%rbx
	.cfi_def_cfa_offset 16
	.cfi_offset 3, -16
	movq	%rdi, %rbx
	call	_ZN5boost16exception_detail39current_exception_std_exception_wrapperISt10bad_typeidED1Ev
	movq	%rbx, %rdi
	movl	$48, %esi
	popq	%rbx
	.cfi_def_cfa_offset 8
	jmp	_ZdlPvm
	.cfi_endproc
.LFE12114:
	.size	_ZN5boost16exception_detail39current_exception_std_exception_wrapperISt10bad_typeidED0Ev, .-_ZN5boost16exception_detail39current_exception_std_exception_wrapperISt10bad_typeidED0Ev
	.section	.text._ZN5boost16exception_detail10clone_implINS0_39current_exception_std_exception_wrapperISt10bad_typeidEEED1Ev,"axG",@progbits,_ZN5boost16exception_detail10clone_implINS0_39current_exception_std_exception_wrapperISt10bad_typeidEEED1Ev,comdat
	.align 2
	.p2align 4,,15
	.weak	_ZN5boost16exception_detail10clone_implINS0_39current_exception_std_exception_wrapperISt10bad_typeidEEED1Ev
	.type	_ZN5boost16exception_detail10clone_implINS0_39current_exception_std_exception_wrapperISt10bad_typeidEEED1Ev, @function
_ZN5boost16exception_detail10clone_implINS0_39current_exception_std_exception_wrapperISt10bad_typeidEEED1Ev:
.LFB12758:
	.cfi_startproc
	movq	$_ZTVN5boost16exception_detail10clone_implINS0_39current_exception_std_exception_wrapperISt10bad_typeidEEEE+24, (%rdi)
	movq	$_ZTVN5boost16exception_detail10clone_implINS0_39current_exception_std_exception_wrapperISt10bad_typeidEEEE+80, 8(%rdi)
	movq	$_ZTVN5boost16exception_detail10clone_implINS0_39current_exception_std_exception_wrapperISt10bad_typeidEEEE+136, 48(%rdi)
	jmp	_ZN5boost16exception_detail39current_exception_std_exception_wrapperISt10bad_typeidED2Ev
	.cfi_endproc
.LFE12758:
	.size	_ZN5boost16exception_detail10clone_implINS0_39current_exception_std_exception_wrapperISt10bad_typeidEEED1Ev, .-_ZN5boost16exception_detail10clone_implINS0_39current_exception_std_exception_wrapperISt10bad_typeidEEED1Ev
	.section	.text._ZN5boost16exception_detail10clone_implINS0_39current_exception_std_exception_wrapperISt10bad_typeidEEED0Ev,"axG",@progbits,_ZN5boost16exception_detail10clone_implINS0_39current_exception_std_exception_wrapperISt10bad_typeidEEED0Ev,comdat
	.align 2
	.p2align 4,,15
	.weak	_ZN5boost16exception_detail10clone_implINS0_39current_exception_std_exception_wrapperISt10bad_typeidEEED0Ev
	.type	_ZN5boost16exception_detail10clone_implINS0_39current_exception_std_exception_wrapperISt10bad_typeidEEED0Ev, @function
_ZN5boost16exception_detail10clone_implINS0_39current_exception_std_exception_wrapperISt10bad_typeidEEED0Ev:
.LFB12759:
	.cfi_startproc
	pushq	%rbx
	.cfi_def_cfa_offset 16
	.cfi_offset 3, -16
	movq	%rdi, %rbx
	movq	$_ZTVN5boost16exception_detail10clone_implINS0_39current_exception_std_exception_wrapperISt10bad_typeidEEEE+24, (%rdi)
	movq	$_ZTVN5boost16exception_detail10clone_implINS0_39current_exception_std_exception_wrapperISt10bad_typeidEEEE+80, 8(%rdi)
	movq	$_ZTVN5boost16exception_detail10clone_implINS0_39current_exception_std_exception_wrapperISt10bad_typeidEEEE+136, 48(%rdi)
	call	_ZN5boost16exception_detail39current_exception_std_exception_wrapperISt10bad_typeidED2Ev
	movq	%rbx, %rdi
	movl	$56, %esi
	popq	%rbx
	.cfi_def_cfa_offset 8
	jmp	_ZdlPvm
	.cfi_endproc
.LFE12759:
	.size	_ZN5boost16exception_detail10clone_implINS0_39current_exception_std_exception_wrapperISt10bad_typeidEEED0Ev, .-_ZN5boost16exception_detail10clone_implINS0_39current_exception_std_exception_wrapperISt10bad_typeidEEED0Ev
	.section	.text._ZN5boost16exception_detail39current_exception_std_exception_wrapperISt8bad_castED2Ev,"axG",@progbits,_ZN5boost16exception_detail39current_exception_std_exception_wrapperISt8bad_castED5Ev,comdat
	.align 2
	.p2align 4,,15
	.weak	_ZN5boost16exception_detail39current_exception_std_exception_wrapperISt8bad_castED2Ev
	.type	_ZN5boost16exception_detail39current_exception_std_exception_wrapperISt8bad_castED2Ev, @function
_ZN5boost16exception_detail39current_exception_std_exception_wrapperISt8bad_castED2Ev:
.LFB12097:
	.cfi_startproc
	.cfi_personality 0x3,__gxx_personality_v0
	.cfi_lsda 0x3,.LLSDA12097
	pushq	%rbx
	.cfi_def_cfa_offset 16
	.cfi_offset 3, -16
	movq	%rdi, %rbx
	movq	$_ZTVN5boost16exception_detail39current_exception_std_exception_wrapperISt8bad_castEE+16, (%rdi)
	movq	$_ZTVN5boost9exceptionE+16, 8(%rdi)
	movq	16(%rdi), %rdi
	testq	%rdi, %rdi
	je	.L287
	movq	(%rdi), %rax
	call	*32(%rax)
.L287:
	movq	%rbx, %rdi
	popq	%rbx
	.cfi_def_cfa_offset 8
	jmp	_ZNSt8bad_castD2Ev
	.cfi_endproc
.LFE12097:
	.section	.gcc_except_table._ZN5boost16exception_detail39current_exception_std_exception_wrapperISt8bad_castED2Ev,"aG",@progbits,_ZN5boost16exception_detail39current_exception_std_exception_wrapperISt8bad_castED5Ev,comdat
.LLSDA12097:
	.byte	0xff
	.byte	0xff
	.byte	0x1
	.uleb128 .LLSDACSE12097-.LLSDACSB12097
.LLSDACSB12097:
.LLSDACSE12097:
	.section	.text._ZN5boost16exception_detail39current_exception_std_exception_wrapperISt8bad_castED2Ev,"axG",@progbits,_ZN5boost16exception_detail39current_exception_std_exception_wrapperISt8bad_castED5Ev,comdat
	.size	_ZN5boost16exception_detail39current_exception_std_exception_wrapperISt8bad_castED2Ev, .-_ZN5boost16exception_detail39current_exception_std_exception_wrapperISt8bad_castED2Ev
	.weak	_ZN5boost16exception_detail39current_exception_std_exception_wrapperISt8bad_castED1Ev
	.set	_ZN5boost16exception_detail39current_exception_std_exception_wrapperISt8bad_castED1Ev,_ZN5boost16exception_detail39current_exception_std_exception_wrapperISt8bad_castED2Ev
	.set	.LTHUNK82,_ZN5boost16exception_detail39current_exception_std_exception_wrapperISt8bad_castED1Ev
	.p2align 4,,15
	.weak	_ZThn8_N5boost16exception_detail39current_exception_std_exception_wrapperISt8bad_castED1Ev
	.type	_ZThn8_N5boost16exception_detail39current_exception_std_exception_wrapperISt8bad_castED1Ev, @function
_ZThn8_N5boost16exception_detail39current_exception_std_exception_wrapperISt8bad_castED1Ev:
.LFB14847:
	.cfi_startproc
	subq	$8, %rdi
	jmp	.LTHUNK82
	.cfi_endproc
.LFE14847:
	.size	_ZThn8_N5boost16exception_detail39current_exception_std_exception_wrapperISt8bad_castED1Ev, .-_ZThn8_N5boost16exception_detail39current_exception_std_exception_wrapperISt8bad_castED1Ev
	.section	.text._ZN5boost16exception_detail39current_exception_std_exception_wrapperISt8bad_castED0Ev,"axG",@progbits,_ZN5boost16exception_detail39current_exception_std_exception_wrapperISt8bad_castED5Ev,comdat
	.align 2
	.p2align 4,,15
	.weak	_ZN5boost16exception_detail39current_exception_std_exception_wrapperISt8bad_castED0Ev
	.type	_ZN5boost16exception_detail39current_exception_std_exception_wrapperISt8bad_castED0Ev, @function
_ZN5boost16exception_detail39current_exception_std_exception_wrapperISt8bad_castED0Ev:
.LFB12099:
	.cfi_startproc
	pushq	%rbx
	.cfi_def_cfa_offset 16
	.cfi_offset 3, -16
	movq	%rdi, %rbx
	call	_ZN5boost16exception_detail39current_exception_std_exception_wrapperISt8bad_castED1Ev
	movq	%rbx, %rdi
	movl	$48, %esi
	popq	%rbx
	.cfi_def_cfa_offset 8
	jmp	_ZdlPvm
	.cfi_endproc
.LFE12099:
	.size	_ZN5boost16exception_detail39current_exception_std_exception_wrapperISt8bad_castED0Ev, .-_ZN5boost16exception_detail39current_exception_std_exception_wrapperISt8bad_castED0Ev
	.section	.text._ZN5boost16exception_detail10clone_implINS0_39current_exception_std_exception_wrapperISt8bad_castEEED1Ev,"axG",@progbits,_ZN5boost16exception_detail10clone_implINS0_39current_exception_std_exception_wrapperISt8bad_castEEED1Ev,comdat
	.align 2
	.p2align 4,,15
	.weak	_ZN5boost16exception_detail10clone_implINS0_39current_exception_std_exception_wrapperISt8bad_castEEED1Ev
	.type	_ZN5boost16exception_detail10clone_implINS0_39current_exception_std_exception_wrapperISt8bad_castEEED1Ev, @function
_ZN5boost16exception_detail10clone_implINS0_39current_exception_std_exception_wrapperISt8bad_castEEED1Ev:
.LFB12752:
	.cfi_startproc
	movq	$_ZTVN5boost16exception_detail10clone_implINS0_39current_exception_std_exception_wrapperISt8bad_castEEEE+24, (%rdi)
	movq	$_ZTVN5boost16exception_detail10clone_implINS0_39current_exception_std_exception_wrapperISt8bad_castEEEE+80, 8(%rdi)
	movq	$_ZTVN5boost16exception_detail10clone_implINS0_39current_exception_std_exception_wrapperISt8bad_castEEEE+136, 48(%rdi)
	jmp	_ZN5boost16exception_detail39current_exception_std_exception_wrapperISt8bad_castED2Ev
	.cfi_endproc
.LFE12752:
	.size	_ZN5boost16exception_detail10clone_implINS0_39current_exception_std_exception_wrapperISt8bad_castEEED1Ev, .-_ZN5boost16exception_detail10clone_implINS0_39current_exception_std_exception_wrapperISt8bad_castEEED1Ev
	.section	.text._ZN5boost16exception_detail10clone_implINS0_39current_exception_std_exception_wrapperISt8bad_castEEED0Ev,"axG",@progbits,_ZN5boost16exception_detail10clone_implINS0_39current_exception_std_exception_wrapperISt8bad_castEEED0Ev,comdat
	.align 2
	.p2align 4,,15
	.weak	_ZN5boost16exception_detail10clone_implINS0_39current_exception_std_exception_wrapperISt8bad_castEEED0Ev
	.type	_ZN5boost16exception_detail10clone_implINS0_39current_exception_std_exception_wrapperISt8bad_castEEED0Ev, @function
_ZN5boost16exception_detail10clone_implINS0_39current_exception_std_exception_wrapperISt8bad_castEEED0Ev:
.LFB12753:
	.cfi_startproc
	pushq	%rbx
	.cfi_def_cfa_offset 16
	.cfi_offset 3, -16
	movq	%rdi, %rbx
	movq	$_ZTVN5boost16exception_detail10clone_implINS0_39current_exception_std_exception_wrapperISt8bad_castEEEE+24, (%rdi)
	movq	$_ZTVN5boost16exception_detail10clone_implINS0_39current_exception_std_exception_wrapperISt8bad_castEEEE+80, 8(%rdi)
	movq	$_ZTVN5boost16exception_detail10clone_implINS0_39current_exception_std_exception_wrapperISt8bad_castEEEE+136, 48(%rdi)
	call	_ZN5boost16exception_detail39current_exception_std_exception_wrapperISt8bad_castED2Ev
	movq	%rbx, %rdi
	movl	$56, %esi
	popq	%rbx
	.cfi_def_cfa_offset 8
	jmp	_ZdlPvm
	.cfi_endproc
.LFE12753:
	.size	_ZN5boost16exception_detail10clone_implINS0_39current_exception_std_exception_wrapperISt8bad_castEEED0Ev, .-_ZN5boost16exception_detail10clone_implINS0_39current_exception_std_exception_wrapperISt8bad_castEEED0Ev
	.section	.text._ZN5boost16exception_detail39current_exception_std_exception_wrapperINSt8ios_base7failureB5cxx11EED2Ev,"axG",@progbits,_ZN5boost16exception_detail39current_exception_std_exception_wrapperINSt8ios_base7failureB5cxx11EED5Ev,comdat
	.align 2
	.p2align 4,,15
	.weak	_ZN5boost16exception_detail39current_exception_std_exception_wrapperINSt8ios_base7failureB5cxx11EED2Ev
	.type	_ZN5boost16exception_detail39current_exception_std_exception_wrapperINSt8ios_base7failureB5cxx11EED2Ev, @function
_ZN5boost16exception_detail39current_exception_std_exception_wrapperINSt8ios_base7failureB5cxx11EED2Ev:
.LFB12058:
	.cfi_startproc
	.cfi_personality 0x3,__gxx_personality_v0
	.cfi_lsda 0x3,.LLSDA12058
	pushq	%rbx
	.cfi_def_cfa_offset 16
	.cfi_offset 3, -16
	movq	%rdi, %rbx
	movq	$_ZTVN5boost16exception_detail39current_exception_std_exception_wrapperINSt8ios_base7failureB5cxx11EEE+16, (%rdi)
	movq	$_ZTVN5boost9exceptionE+16, 32(%rdi)
	movq	40(%rdi), %rdi
	testq	%rdi, %rdi
	je	.L298
	movq	(%rdi), %rax
	call	*32(%rax)
.L298:
	movq	%rbx, %rdi
	popq	%rbx
	.cfi_def_cfa_offset 8
	jmp	_ZNSt8ios_base7failureB5cxx11D2Ev
	.cfi_endproc
.LFE12058:
	.section	.gcc_except_table._ZN5boost16exception_detail39current_exception_std_exception_wrapperINSt8ios_base7failureB5cxx11EED2Ev,"aG",@progbits,_ZN5boost16exception_detail39current_exception_std_exception_wrapperINSt8ios_base7failureB5cxx11EED5Ev,comdat
.LLSDA12058:
	.byte	0xff
	.byte	0xff
	.byte	0x1
	.uleb128 .LLSDACSE12058-.LLSDACSB12058
.LLSDACSB12058:
.LLSDACSE12058:
	.section	.text._ZN5boost16exception_detail39current_exception_std_exception_wrapperINSt8ios_base7failureB5cxx11EED2Ev,"axG",@progbits,_ZN5boost16exception_detail39current_exception_std_exception_wrapperINSt8ios_base7failureB5cxx11EED5Ev,comdat
	.size	_ZN5boost16exception_detail39current_exception_std_exception_wrapperINSt8ios_base7failureB5cxx11EED2Ev, .-_ZN5boost16exception_detail39current_exception_std_exception_wrapperINSt8ios_base7failureB5cxx11EED2Ev
	.weak	_ZN5boost16exception_detail39current_exception_std_exception_wrapperINSt8ios_base7failureB5cxx11EED1Ev
	.set	_ZN5boost16exception_detail39current_exception_std_exception_wrapperINSt8ios_base7failureB5cxx11EED1Ev,_ZN5boost16exception_detail39current_exception_std_exception_wrapperINSt8ios_base7failureB5cxx11EED2Ev
	.set	.LTHUNK76,_ZN5boost16exception_detail39current_exception_std_exception_wrapperINSt8ios_base7failureB5cxx11EED1Ev
	.p2align 4,,15
	.weak	_ZThn32_N5boost16exception_detail39current_exception_std_exception_wrapperINSt8ios_base7failureB5cxx11EED1Ev
	.type	_ZThn32_N5boost16exception_detail39current_exception_std_exception_wrapperINSt8ios_base7failureB5cxx11EED1Ev, @function
_ZThn32_N5boost16exception_detail39current_exception_std_exception_wrapperINSt8ios_base7failureB5cxx11EED1Ev:
.LFB14851:
	.cfi_startproc
	subq	$32, %rdi
	jmp	.LTHUNK76
	.cfi_endproc
.LFE14851:
	.size	_ZThn32_N5boost16exception_detail39current_exception_std_exception_wrapperINSt8ios_base7failureB5cxx11EED1Ev, .-_ZThn32_N5boost16exception_detail39current_exception_std_exception_wrapperINSt8ios_base7failureB5cxx11EED1Ev
	.section	.text._ZN5boost16exception_detail39current_exception_std_exception_wrapperINSt8ios_base7failureB5cxx11EED0Ev,"axG",@progbits,_ZN5boost16exception_detail39current_exception_std_exception_wrapperINSt8ios_base7failureB5cxx11EED5Ev,comdat
	.align 2
	.p2align 4,,15
	.weak	_ZN5boost16exception_detail39current_exception_std_exception_wrapperINSt8ios_base7failureB5cxx11EED0Ev
	.type	_ZN5boost16exception_detail39current_exception_std_exception_wrapperINSt8ios_base7failureB5cxx11EED0Ev, @function
_ZN5boost16exception_detail39current_exception_std_exception_wrapperINSt8ios_base7failureB5cxx11EED0Ev:
.LFB12060:
	.cfi_startproc
	pushq	%rbx
	.cfi_def_cfa_offset 16
	.cfi_offset 3, -16
	movq	%rdi, %rbx
	call	_ZN5boost16exception_detail39current_exception_std_exception_wrapperINSt8ios_base7failureB5cxx11EED1Ev
	movq	%rbx, %rdi
	movl	$72, %esi
	popq	%rbx
	.cfi_def_cfa_offset 8
	jmp	_ZdlPvm
	.cfi_endproc
.LFE12060:
	.size	_ZN5boost16exception_detail39current_exception_std_exception_wrapperINSt8ios_base7failureB5cxx11EED0Ev, .-_ZN5boost16exception_detail39current_exception_std_exception_wrapperINSt8ios_base7failureB5cxx11EED0Ev
	.section	.text._ZN5boost16exception_detail10clone_implINS0_39current_exception_std_exception_wrapperINSt8ios_base7failureB5cxx11EEEED1Ev,"axG",@progbits,_ZN5boost16exception_detail10clone_implINS0_39current_exception_std_exception_wrapperINSt8ios_base7failureB5cxx11EEEED1Ev,comdat
	.align 2
	.p2align 4,,15
	.weak	_ZN5boost16exception_detail10clone_implINS0_39current_exception_std_exception_wrapperINSt8ios_base7failureB5cxx11EEEED1Ev
	.type	_ZN5boost16exception_detail10clone_implINS0_39current_exception_std_exception_wrapperINSt8ios_base7failureB5cxx11EEEED1Ev, @function
_ZN5boost16exception_detail10clone_implINS0_39current_exception_std_exception_wrapperINSt8ios_base7failureB5cxx11EEEED1Ev:
.LFB12734:
	.cfi_startproc
	movq	$_ZTVN5boost16exception_detail10clone_implINS0_39current_exception_std_exception_wrapperINSt8ios_base7failureB5cxx11EEEEE+24, (%rdi)
	movq	$_ZTVN5boost16exception_detail10clone_implINS0_39current_exception_std_exception_wrapperINSt8ios_base7failureB5cxx11EEEEE+80, 32(%rdi)
	movq	$_ZTVN5boost16exception_detail10clone_implINS0_39current_exception_std_exception_wrapperINSt8ios_base7failureB5cxx11EEEEE+136, 72(%rdi)
	jmp	_ZN5boost16exception_detail39current_exception_std_exception_wrapperINSt8ios_base7failureB5cxx11EED2Ev
	.cfi_endproc
.LFE12734:
	.size	_ZN5boost16exception_detail10clone_implINS0_39current_exception_std_exception_wrapperINSt8ios_base7failureB5cxx11EEEED1Ev, .-_ZN5boost16exception_detail10clone_implINS0_39current_exception_std_exception_wrapperINSt8ios_base7failureB5cxx11EEEED1Ev
	.section	.text._ZN5boost16exception_detail10clone_implINS0_39current_exception_std_exception_wrapperINSt8ios_base7failureB5cxx11EEEED0Ev,"axG",@progbits,_ZN5boost16exception_detail10clone_implINS0_39current_exception_std_exception_wrapperINSt8ios_base7failureB5cxx11EEEED0Ev,comdat
	.align 2
	.p2align 4,,15
	.weak	_ZN5boost16exception_detail10clone_implINS0_39current_exception_std_exception_wrapperINSt8ios_base7failureB5cxx11EEEED0Ev
	.type	_ZN5boost16exception_detail10clone_implINS0_39current_exception_std_exception_wrapperINSt8ios_base7failureB5cxx11EEEED0Ev, @function
_ZN5boost16exception_detail10clone_implINS0_39current_exception_std_exception_wrapperINSt8ios_base7failureB5cxx11EEEED0Ev:
.LFB12735:
	.cfi_startproc
	pushq	%rbx
	.cfi_def_cfa_offset 16
	.cfi_offset 3, -16
	movq	%rdi, %rbx
	movq	$_ZTVN5boost16exception_detail10clone_implINS0_39current_exception_std_exception_wrapperINSt8ios_base7failureB5cxx11EEEEE+24, (%rdi)
	movq	$_ZTVN5boost16exception_detail10clone_implINS0_39current_exception_std_exception_wrapperINSt8ios_base7failureB5cxx11EEEEE+80, 32(%rdi)
	movq	$_ZTVN5boost16exception_detail10clone_implINS0_39current_exception_std_exception_wrapperINSt8ios_base7failureB5cxx11EEEEE+136, 72(%rdi)
	call	_ZN5boost16exception_detail39current_exception_std_exception_wrapperINSt8ios_base7failureB5cxx11EED2Ev
	movq	%rbx, %rdi
	movl	$80, %esi
	popq	%rbx
	.cfi_def_cfa_offset 8
	jmp	_ZdlPvm
	.cfi_endproc
.LFE12735:
	.size	_ZN5boost16exception_detail10clone_implINS0_39current_exception_std_exception_wrapperINSt8ios_base7failureB5cxx11EEEED0Ev, .-_ZN5boost16exception_detail10clone_implINS0_39current_exception_std_exception_wrapperINSt8ios_base7failureB5cxx11EEEED0Ev
	.section	.text._ZN5boost16exception_detail39current_exception_std_exception_wrapperISt15underflow_errorED2Ev,"axG",@progbits,_ZN5boost16exception_detail39current_exception_std_exception_wrapperISt15underflow_errorED5Ev,comdat
	.align 2
	.p2align 4,,15
	.weak	_ZN5boost16exception_detail39current_exception_std_exception_wrapperISt15underflow_errorED2Ev
	.type	_ZN5boost16exception_detail39current_exception_std_exception_wrapperISt15underflow_errorED2Ev, @function
_ZN5boost16exception_detail39current_exception_std_exception_wrapperISt15underflow_errorED2Ev:
.LFB12040:
	.cfi_startproc
	.cfi_personality 0x3,__gxx_personality_v0
	.cfi_lsda 0x3,.LLSDA12040
	pushq	%rbx
	.cfi_def_cfa_offset 16
	.cfi_offset 3, -16
	movq	%rdi, %rbx
	movq	$_ZTVN5boost16exception_detail39current_exception_std_exception_wrapperISt15underflow_errorEE+16, (%rdi)
	movq	$_ZTVN5boost9exceptionE+16, 16(%rdi)
	movq	24(%rdi), %rdi
	testq	%rdi, %rdi
	je	.L309
	movq	(%rdi), %rax
	call	*32(%rax)
.L309:
	movq	%rbx, %rdi
	popq	%rbx
	.cfi_def_cfa_offset 8
	jmp	_ZNSt15underflow_errorD2Ev
	.cfi_endproc
.LFE12040:
	.section	.gcc_except_table._ZN5boost16exception_detail39current_exception_std_exception_wrapperISt15underflow_errorED2Ev,"aG",@progbits,_ZN5boost16exception_detail39current_exception_std_exception_wrapperISt15underflow_errorED5Ev,comdat
.LLSDA12040:
	.byte	0xff
	.byte	0xff
	.byte	0x1
	.uleb128 .LLSDACSE12040-.LLSDACSB12040
.LLSDACSB12040:
.LLSDACSE12040:
	.section	.text._ZN5boost16exception_detail39current_exception_std_exception_wrapperISt15underflow_errorED2Ev,"axG",@progbits,_ZN5boost16exception_detail39current_exception_std_exception_wrapperISt15underflow_errorED5Ev,comdat
	.size	_ZN5boost16exception_detail39current_exception_std_exception_wrapperISt15underflow_errorED2Ev, .-_ZN5boost16exception_detail39current_exception_std_exception_wrapperISt15underflow_errorED2Ev
	.weak	_ZN5boost16exception_detail39current_exception_std_exception_wrapperISt15underflow_errorED1Ev
	.set	_ZN5boost16exception_detail39current_exception_std_exception_wrapperISt15underflow_errorED1Ev,_ZN5boost16exception_detail39current_exception_std_exception_wrapperISt15underflow_errorED2Ev
	.set	.LTHUNK74,_ZN5boost16exception_detail39current_exception_std_exception_wrapperISt15underflow_errorED1Ev
	.p2align 4,,15
	.weak	_ZThn16_N5boost16exception_detail39current_exception_std_exception_wrapperISt15underflow_errorED1Ev
	.type	_ZThn16_N5boost16exception_detail39current_exception_std_exception_wrapperISt15underflow_errorED1Ev, @function
_ZThn16_N5boost16exception_detail39current_exception_std_exception_wrapperISt15underflow_errorED1Ev:
.LFB14855:
	.cfi_startproc
	subq	$16, %rdi
	jmp	.LTHUNK74
	.cfi_endproc
.LFE14855:
	.size	_ZThn16_N5boost16exception_detail39current_exception_std_exception_wrapperISt15underflow_errorED1Ev, .-_ZThn16_N5boost16exception_detail39current_exception_std_exception_wrapperISt15underflow_errorED1Ev
	.section	.text._ZN5boost16exception_detail39current_exception_std_exception_wrapperISt15underflow_errorED0Ev,"axG",@progbits,_ZN5boost16exception_detail39current_exception_std_exception_wrapperISt15underflow_errorED5Ev,comdat
	.align 2
	.p2align 4,,15
	.weak	_ZN5boost16exception_detail39current_exception_std_exception_wrapperISt15underflow_errorED0Ev
	.type	_ZN5boost16exception_detail39current_exception_std_exception_wrapperISt15underflow_errorED0Ev, @function
_ZN5boost16exception_detail39current_exception_std_exception_wrapperISt15underflow_errorED0Ev:
.LFB12042:
	.cfi_startproc
	pushq	%rbx
	.cfi_def_cfa_offset 16
	.cfi_offset 3, -16
	movq	%rdi, %rbx
	call	_ZN5boost16exception_detail39current_exception_std_exception_wrapperISt15underflow_errorED1Ev
	movq	%rbx, %rdi
	movl	$56, %esi
	popq	%rbx
	.cfi_def_cfa_offset 8
	jmp	_ZdlPvm
	.cfi_endproc
.LFE12042:
	.size	_ZN5boost16exception_detail39current_exception_std_exception_wrapperISt15underflow_errorED0Ev, .-_ZN5boost16exception_detail39current_exception_std_exception_wrapperISt15underflow_errorED0Ev
	.section	.text._ZN5boost16exception_detail10clone_implINS0_39current_exception_std_exception_wrapperISt15underflow_errorEEED1Ev,"axG",@progbits,_ZN5boost16exception_detail10clone_implINS0_39current_exception_std_exception_wrapperISt15underflow_errorEEED1Ev,comdat
	.align 2
	.p2align 4,,15
	.weak	_ZN5boost16exception_detail10clone_implINS0_39current_exception_std_exception_wrapperISt15underflow_errorEEED1Ev
	.type	_ZN5boost16exception_detail10clone_implINS0_39current_exception_std_exception_wrapperISt15underflow_errorEEED1Ev, @function
_ZN5boost16exception_detail10clone_implINS0_39current_exception_std_exception_wrapperISt15underflow_errorEEED1Ev:
.LFB12728:
	.cfi_startproc
	movq	$_ZTVN5boost16exception_detail10clone_implINS0_39current_exception_std_exception_wrapperISt15underflow_errorEEEE+24, (%rdi)
	movq	$_ZTVN5boost16exception_detail10clone_implINS0_39current_exception_std_exception_wrapperISt15underflow_errorEEEE+80, 16(%rdi)
	movq	$_ZTVN5boost16exception_detail10clone_implINS0_39current_exception_std_exception_wrapperISt15underflow_errorEEEE+136, 56(%rdi)
	jmp	_ZN5boost16exception_detail39current_exception_std_exception_wrapperISt15underflow_errorED2Ev
	.cfi_endproc
.LFE12728:
	.size	_ZN5boost16exception_detail10clone_implINS0_39current_exception_std_exception_wrapperISt15underflow_errorEEED1Ev, .-_ZN5boost16exception_detail10clone_implINS0_39current_exception_std_exception_wrapperISt15underflow_errorEEED1Ev
	.section	.text._ZN5boost16exception_detail10clone_implINS0_39current_exception_std_exception_wrapperISt15underflow_errorEEED0Ev,"axG",@progbits,_ZN5boost16exception_detail10clone_implINS0_39current_exception_std_exception_wrapperISt15underflow_errorEEED0Ev,comdat
	.align 2
	.p2align 4,,15
	.weak	_ZN5boost16exception_detail10clone_implINS0_39current_exception_std_exception_wrapperISt15underflow_errorEEED0Ev
	.type	_ZN5boost16exception_detail10clone_implINS0_39current_exception_std_exception_wrapperISt15underflow_errorEEED0Ev, @function
_ZN5boost16exception_detail10clone_implINS0_39current_exception_std_exception_wrapperISt15underflow_errorEEED0Ev:
.LFB12729:
	.cfi_startproc
	pushq	%rbx
	.cfi_def_cfa_offset 16
	.cfi_offset 3, -16
	movq	%rdi, %rbx
	movq	$_ZTVN5boost16exception_detail10clone_implINS0_39current_exception_std_exception_wrapperISt15underflow_errorEEEE+24, (%rdi)
	movq	$_ZTVN5boost16exception_detail10clone_implINS0_39current_exception_std_exception_wrapperISt15underflow_errorEEEE+80, 16(%rdi)
	movq	$_ZTVN5boost16exception_detail10clone_implINS0_39current_exception_std_exception_wrapperISt15underflow_errorEEEE+136, 56(%rdi)
	call	_ZN5boost16exception_detail39current_exception_std_exception_wrapperISt15underflow_errorED2Ev
	movq	%rbx, %rdi
	movl	$64, %esi
	popq	%rbx
	.cfi_def_cfa_offset 8
	jmp	_ZdlPvm
	.cfi_endproc
.LFE12729:
	.size	_ZN5boost16exception_detail10clone_implINS0_39current_exception_std_exception_wrapperISt15underflow_errorEEED0Ev, .-_ZN5boost16exception_detail10clone_implINS0_39current_exception_std_exception_wrapperISt15underflow_errorEEED0Ev
	.section	.text._ZN5boost16exception_detail39current_exception_std_exception_wrapperISt14overflow_errorED2Ev,"axG",@progbits,_ZN5boost16exception_detail39current_exception_std_exception_wrapperISt14overflow_errorED5Ev,comdat
	.align 2
	.p2align 4,,15
	.weak	_ZN5boost16exception_detail39current_exception_std_exception_wrapperISt14overflow_errorED2Ev
	.type	_ZN5boost16exception_detail39current_exception_std_exception_wrapperISt14overflow_errorED2Ev, @function
_ZN5boost16exception_detail39current_exception_std_exception_wrapperISt14overflow_errorED2Ev:
.LFB12025:
	.cfi_startproc
	.cfi_personality 0x3,__gxx_personality_v0
	.cfi_lsda 0x3,.LLSDA12025
	pushq	%rbx
	.cfi_def_cfa_offset 16
	.cfi_offset 3, -16
	movq	%rdi, %rbx
	movq	$_ZTVN5boost16exception_detail39current_exception_std_exception_wrapperISt14overflow_errorEE+16, (%rdi)
	movq	$_ZTVN5boost9exceptionE+16, 16(%rdi)
	movq	24(%rdi), %rdi
	testq	%rdi, %rdi
	je	.L320
	movq	(%rdi), %rax
	call	*32(%rax)
.L320:
	movq	%rbx, %rdi
	popq	%rbx
	.cfi_def_cfa_offset 8
	jmp	_ZNSt14overflow_errorD2Ev
	.cfi_endproc
.LFE12025:
	.section	.gcc_except_table._ZN5boost16exception_detail39current_exception_std_exception_wrapperISt14overflow_errorED2Ev,"aG",@progbits,_ZN5boost16exception_detail39current_exception_std_exception_wrapperISt14overflow_errorED5Ev,comdat
.LLSDA12025:
	.byte	0xff
	.byte	0xff
	.byte	0x1
	.uleb128 .LLSDACSE12025-.LLSDACSB12025
.LLSDACSB12025:
.LLSDACSE12025:
	.section	.text._ZN5boost16exception_detail39current_exception_std_exception_wrapperISt14overflow_errorED2Ev,"axG",@progbits,_ZN5boost16exception_detail39current_exception_std_exception_wrapperISt14overflow_errorED5Ev,comdat
	.size	_ZN5boost16exception_detail39current_exception_std_exception_wrapperISt14overflow_errorED2Ev, .-_ZN5boost16exception_detail39current_exception_std_exception_wrapperISt14overflow_errorED2Ev
	.weak	_ZN5boost16exception_detail39current_exception_std_exception_wrapperISt14overflow_errorED1Ev
	.set	_ZN5boost16exception_detail39current_exception_std_exception_wrapperISt14overflow_errorED1Ev,_ZN5boost16exception_detail39current_exception_std_exception_wrapperISt14overflow_errorED2Ev
	.set	.LTHUNK72,_ZN5boost16exception_detail39current_exception_std_exception_wrapperISt14overflow_errorED1Ev
	.p2align 4,,15
	.weak	_ZThn16_N5boost16exception_detail39current_exception_std_exception_wrapperISt14overflow_errorED1Ev
	.type	_ZThn16_N5boost16exception_detail39current_exception_std_exception_wrapperISt14overflow_errorED1Ev, @function
_ZThn16_N5boost16exception_detail39current_exception_std_exception_wrapperISt14overflow_errorED1Ev:
.LFB14859:
	.cfi_startproc
	subq	$16, %rdi
	jmp	.LTHUNK72
	.cfi_endproc
.LFE14859:
	.size	_ZThn16_N5boost16exception_detail39current_exception_std_exception_wrapperISt14overflow_errorED1Ev, .-_ZThn16_N5boost16exception_detail39current_exception_std_exception_wrapperISt14overflow_errorED1Ev
	.section	.text._ZN5boost16exception_detail39current_exception_std_exception_wrapperISt14overflow_errorED0Ev,"axG",@progbits,_ZN5boost16exception_detail39current_exception_std_exception_wrapperISt14overflow_errorED5Ev,comdat
	.align 2
	.p2align 4,,15
	.weak	_ZN5boost16exception_detail39current_exception_std_exception_wrapperISt14overflow_errorED0Ev
	.type	_ZN5boost16exception_detail39current_exception_std_exception_wrapperISt14overflow_errorED0Ev, @function
_ZN5boost16exception_detail39current_exception_std_exception_wrapperISt14overflow_errorED0Ev:
.LFB12027:
	.cfi_startproc
	pushq	%rbx
	.cfi_def_cfa_offset 16
	.cfi_offset 3, -16
	movq	%rdi, %rbx
	call	_ZN5boost16exception_detail39current_exception_std_exception_wrapperISt14overflow_errorED1Ev
	movq	%rbx, %rdi
	movl	$56, %esi
	popq	%rbx
	.cfi_def_cfa_offset 8
	jmp	_ZdlPvm
	.cfi_endproc
.LFE12027:
	.size	_ZN5boost16exception_detail39current_exception_std_exception_wrapperISt14overflow_errorED0Ev, .-_ZN5boost16exception_detail39current_exception_std_exception_wrapperISt14overflow_errorED0Ev
	.section	.text._ZN5boost16exception_detail10clone_implINS0_39current_exception_std_exception_wrapperISt14overflow_errorEEED1Ev,"axG",@progbits,_ZN5boost16exception_detail10clone_implINS0_39current_exception_std_exception_wrapperISt14overflow_errorEEED1Ev,comdat
	.align 2
	.p2align 4,,15
	.weak	_ZN5boost16exception_detail10clone_implINS0_39current_exception_std_exception_wrapperISt14overflow_errorEEED1Ev
	.type	_ZN5boost16exception_detail10clone_implINS0_39current_exception_std_exception_wrapperISt14overflow_errorEEED1Ev, @function
_ZN5boost16exception_detail10clone_implINS0_39current_exception_std_exception_wrapperISt14overflow_errorEEED1Ev:
.LFB12722:
	.cfi_startproc
	movq	$_ZTVN5boost16exception_detail10clone_implINS0_39current_exception_std_exception_wrapperISt14overflow_errorEEEE+24, (%rdi)
	movq	$_ZTVN5boost16exception_detail10clone_implINS0_39current_exception_std_exception_wrapperISt14overflow_errorEEEE+80, 16(%rdi)
	movq	$_ZTVN5boost16exception_detail10clone_implINS0_39current_exception_std_exception_wrapperISt14overflow_errorEEEE+136, 56(%rdi)
	jmp	_ZN5boost16exception_detail39current_exception_std_exception_wrapperISt14overflow_errorED2Ev
	.cfi_endproc
.LFE12722:
	.size	_ZN5boost16exception_detail10clone_implINS0_39current_exception_std_exception_wrapperISt14overflow_errorEEED1Ev, .-_ZN5boost16exception_detail10clone_implINS0_39current_exception_std_exception_wrapperISt14overflow_errorEEED1Ev
	.section	.text._ZN5boost16exception_detail10clone_implINS0_39current_exception_std_exception_wrapperISt14overflow_errorEEED0Ev,"axG",@progbits,_ZN5boost16exception_detail10clone_implINS0_39current_exception_std_exception_wrapperISt14overflow_errorEEED0Ev,comdat
	.align 2
	.p2align 4,,15
	.weak	_ZN5boost16exception_detail10clone_implINS0_39current_exception_std_exception_wrapperISt14overflow_errorEEED0Ev
	.type	_ZN5boost16exception_detail10clone_implINS0_39current_exception_std_exception_wrapperISt14overflow_errorEEED0Ev, @function
_ZN5boost16exception_detail10clone_implINS0_39current_exception_std_exception_wrapperISt14overflow_errorEEED0Ev:
.LFB12723:
	.cfi_startproc
	pushq	%rbx
	.cfi_def_cfa_offset 16
	.cfi_offset 3, -16
	movq	%rdi, %rbx
	movq	$_ZTVN5boost16exception_detail10clone_implINS0_39current_exception_std_exception_wrapperISt14overflow_errorEEEE+24, (%rdi)
	movq	$_ZTVN5boost16exception_detail10clone_implINS0_39current_exception_std_exception_wrapperISt14overflow_errorEEEE+80, 16(%rdi)
	movq	$_ZTVN5boost16exception_detail10clone_implINS0_39current_exception_std_exception_wrapperISt14overflow_errorEEEE+136, 56(%rdi)
	call	_ZN5boost16exception_detail39current_exception_std_exception_wrapperISt14overflow_errorED2Ev
	movq	%rbx, %rdi
	movl	$64, %esi
	popq	%rbx
	.cfi_def_cfa_offset 8
	jmp	_ZdlPvm
	.cfi_endproc
.LFE12723:
	.size	_ZN5boost16exception_detail10clone_implINS0_39current_exception_std_exception_wrapperISt14overflow_errorEEED0Ev, .-_ZN5boost16exception_detail10clone_implINS0_39current_exception_std_exception_wrapperISt14overflow_errorEEED0Ev
	.section	.text._ZN5boost16exception_detail39current_exception_std_exception_wrapperISt11range_errorED2Ev,"axG",@progbits,_ZN5boost16exception_detail39current_exception_std_exception_wrapperISt11range_errorED5Ev,comdat
	.align 2
	.p2align 4,,15
	.weak	_ZN5boost16exception_detail39current_exception_std_exception_wrapperISt11range_errorED2Ev
	.type	_ZN5boost16exception_detail39current_exception_std_exception_wrapperISt11range_errorED2Ev, @function
_ZN5boost16exception_detail39current_exception_std_exception_wrapperISt11range_errorED2Ev:
.LFB12010:
	.cfi_startproc
	.cfi_personality 0x3,__gxx_personality_v0
	.cfi_lsda 0x3,.LLSDA12010
	pushq	%rbx
	.cfi_def_cfa_offset 16
	.cfi_offset 3, -16
	movq	%rdi, %rbx
	movq	$_ZTVN5boost16exception_detail39current_exception_std_exception_wrapperISt11range_errorEE+16, (%rdi)
	movq	$_ZTVN5boost9exceptionE+16, 16(%rdi)
	movq	24(%rdi), %rdi
	testq	%rdi, %rdi
	je	.L331
	movq	(%rdi), %rax
	call	*32(%rax)
.L331:
	movq	%rbx, %rdi
	popq	%rbx
	.cfi_def_cfa_offset 8
	jmp	_ZNSt11range_errorD2Ev
	.cfi_endproc
.LFE12010:
	.section	.gcc_except_table._ZN5boost16exception_detail39current_exception_std_exception_wrapperISt11range_errorED2Ev,"aG",@progbits,_ZN5boost16exception_detail39current_exception_std_exception_wrapperISt11range_errorED5Ev,comdat
.LLSDA12010:
	.byte	0xff
	.byte	0xff
	.byte	0x1
	.uleb128 .LLSDACSE12010-.LLSDACSB12010
.LLSDACSB12010:
.LLSDACSE12010:
	.section	.text._ZN5boost16exception_detail39current_exception_std_exception_wrapperISt11range_errorED2Ev,"axG",@progbits,_ZN5boost16exception_detail39current_exception_std_exception_wrapperISt11range_errorED5Ev,comdat
	.size	_ZN5boost16exception_detail39current_exception_std_exception_wrapperISt11range_errorED2Ev, .-_ZN5boost16exception_detail39current_exception_std_exception_wrapperISt11range_errorED2Ev
	.weak	_ZN5boost16exception_detail39current_exception_std_exception_wrapperISt11range_errorED1Ev
	.set	_ZN5boost16exception_detail39current_exception_std_exception_wrapperISt11range_errorED1Ev,_ZN5boost16exception_detail39current_exception_std_exception_wrapperISt11range_errorED2Ev
	.set	.LTHUNK70,_ZN5boost16exception_detail39current_exception_std_exception_wrapperISt11range_errorED1Ev
	.p2align 4,,15
	.weak	_ZThn16_N5boost16exception_detail39current_exception_std_exception_wrapperISt11range_errorED1Ev
	.type	_ZThn16_N5boost16exception_detail39current_exception_std_exception_wrapperISt11range_errorED1Ev, @function
_ZThn16_N5boost16exception_detail39current_exception_std_exception_wrapperISt11range_errorED1Ev:
.LFB14863:
	.cfi_startproc
	subq	$16, %rdi
	jmp	.LTHUNK70
	.cfi_endproc
.LFE14863:
	.size	_ZThn16_N5boost16exception_detail39current_exception_std_exception_wrapperISt11range_errorED1Ev, .-_ZThn16_N5boost16exception_detail39current_exception_std_exception_wrapperISt11range_errorED1Ev
	.section	.text._ZN5boost16exception_detail39current_exception_std_exception_wrapperISt11range_errorED0Ev,"axG",@progbits,_ZN5boost16exception_detail39current_exception_std_exception_wrapperISt11range_errorED5Ev,comdat
	.align 2
	.p2align 4,,15
	.weak	_ZN5boost16exception_detail39current_exception_std_exception_wrapperISt11range_errorED0Ev
	.type	_ZN5boost16exception_detail39current_exception_std_exception_wrapperISt11range_errorED0Ev, @function
_ZN5boost16exception_detail39current_exception_std_exception_wrapperISt11range_errorED0Ev:
.LFB12012:
	.cfi_startproc
	pushq	%rbx
	.cfi_def_cfa_offset 16
	.cfi_offset 3, -16
	movq	%rdi, %rbx
	call	_ZN5boost16exception_detail39current_exception_std_exception_wrapperISt11range_errorED1Ev
	movq	%rbx, %rdi
	movl	$56, %esi
	popq	%rbx
	.cfi_def_cfa_offset 8
	jmp	_ZdlPvm
	.cfi_endproc
.LFE12012:
	.size	_ZN5boost16exception_detail39current_exception_std_exception_wrapperISt11range_errorED0Ev, .-_ZN5boost16exception_detail39current_exception_std_exception_wrapperISt11range_errorED0Ev
	.section	.text._ZN5boost16exception_detail10clone_implINS0_39current_exception_std_exception_wrapperISt11range_errorEEED1Ev,"axG",@progbits,_ZN5boost16exception_detail10clone_implINS0_39current_exception_std_exception_wrapperISt11range_errorEEED1Ev,comdat
	.align 2
	.p2align 4,,15
	.weak	_ZN5boost16exception_detail10clone_implINS0_39current_exception_std_exception_wrapperISt11range_errorEEED1Ev
	.type	_ZN5boost16exception_detail10clone_implINS0_39current_exception_std_exception_wrapperISt11range_errorEEED1Ev, @function
_ZN5boost16exception_detail10clone_implINS0_39current_exception_std_exception_wrapperISt11range_errorEEED1Ev:
.LFB12716:
	.cfi_startproc
	movq	$_ZTVN5boost16exception_detail10clone_implINS0_39current_exception_std_exception_wrapperISt11range_errorEEEE+24, (%rdi)
	movq	$_ZTVN5boost16exception_detail10clone_implINS0_39current_exception_std_exception_wrapperISt11range_errorEEEE+80, 16(%rdi)
	movq	$_ZTVN5boost16exception_detail10clone_implINS0_39current_exception_std_exception_wrapperISt11range_errorEEEE+136, 56(%rdi)
	jmp	_ZN5boost16exception_detail39current_exception_std_exception_wrapperISt11range_errorED2Ev
	.cfi_endproc
.LFE12716:
	.size	_ZN5boost16exception_detail10clone_implINS0_39current_exception_std_exception_wrapperISt11range_errorEEED1Ev, .-_ZN5boost16exception_detail10clone_implINS0_39current_exception_std_exception_wrapperISt11range_errorEEED1Ev
	.section	.text._ZN5boost16exception_detail10clone_implINS0_39current_exception_std_exception_wrapperISt11range_errorEEED0Ev,"axG",@progbits,_ZN5boost16exception_detail10clone_implINS0_39current_exception_std_exception_wrapperISt11range_errorEEED0Ev,comdat
	.align 2
	.p2align 4,,15
	.weak	_ZN5boost16exception_detail10clone_implINS0_39current_exception_std_exception_wrapperISt11range_errorEEED0Ev
	.type	_ZN5boost16exception_detail10clone_implINS0_39current_exception_std_exception_wrapperISt11range_errorEEED0Ev, @function
_ZN5boost16exception_detail10clone_implINS0_39current_exception_std_exception_wrapperISt11range_errorEEED0Ev:
.LFB12717:
	.cfi_startproc
	pushq	%rbx
	.cfi_def_cfa_offset 16
	.cfi_offset 3, -16
	movq	%rdi, %rbx
	movq	$_ZTVN5boost16exception_detail10clone_implINS0_39current_exception_std_exception_wrapperISt11range_errorEEEE+24, (%rdi)
	movq	$_ZTVN5boost16exception_detail10clone_implINS0_39current_exception_std_exception_wrapperISt11range_errorEEEE+80, 16(%rdi)
	movq	$_ZTVN5boost16exception_detail10clone_implINS0_39current_exception_std_exception_wrapperISt11range_errorEEEE+136, 56(%rdi)
	call	_ZN5boost16exception_detail39current_exception_std_exception_wrapperISt11range_errorED2Ev
	movq	%rbx, %rdi
	movl	$64, %esi
	popq	%rbx
	.cfi_def_cfa_offset 8
	jmp	_ZdlPvm
	.cfi_endproc
.LFE12717:
	.size	_ZN5boost16exception_detail10clone_implINS0_39current_exception_std_exception_wrapperISt11range_errorEEED0Ev, .-_ZN5boost16exception_detail10clone_implINS0_39current_exception_std_exception_wrapperISt11range_errorEEED0Ev
	.section	.text._ZN5boost16exception_detail39current_exception_std_exception_wrapperISt12length_errorED2Ev,"axG",@progbits,_ZN5boost16exception_detail39current_exception_std_exception_wrapperISt12length_errorED5Ev,comdat
	.align 2
	.p2align 4,,15
	.weak	_ZN5boost16exception_detail39current_exception_std_exception_wrapperISt12length_errorED2Ev
	.type	_ZN5boost16exception_detail39current_exception_std_exception_wrapperISt12length_errorED2Ev, @function
_ZN5boost16exception_detail39current_exception_std_exception_wrapperISt12length_errorED2Ev:
.LFB11968:
	.cfi_startproc
	.cfi_personality 0x3,__gxx_personality_v0
	.cfi_lsda 0x3,.LLSDA11968
	pushq	%rbx
	.cfi_def_cfa_offset 16
	.cfi_offset 3, -16
	movq	%rdi, %rbx
	movq	$_ZTVN5boost16exception_detail39current_exception_std_exception_wrapperISt12length_errorEE+16, (%rdi)
	movq	$_ZTVN5boost9exceptionE+16, 16(%rdi)
	movq	24(%rdi), %rdi
	testq	%rdi, %rdi
	je	.L342
	movq	(%rdi), %rax
	call	*32(%rax)
.L342:
	movq	%rbx, %rdi
	popq	%rbx
	.cfi_def_cfa_offset 8
	jmp	_ZNSt12length_errorD2Ev
	.cfi_endproc
.LFE11968:
	.section	.gcc_except_table._ZN5boost16exception_detail39current_exception_std_exception_wrapperISt12length_errorED2Ev,"aG",@progbits,_ZN5boost16exception_detail39current_exception_std_exception_wrapperISt12length_errorED5Ev,comdat
.LLSDA11968:
	.byte	0xff
	.byte	0xff
	.byte	0x1
	.uleb128 .LLSDACSE11968-.LLSDACSB11968
.LLSDACSB11968:
.LLSDACSE11968:
	.section	.text._ZN5boost16exception_detail39current_exception_std_exception_wrapperISt12length_errorED2Ev,"axG",@progbits,_ZN5boost16exception_detail39current_exception_std_exception_wrapperISt12length_errorED5Ev,comdat
	.size	_ZN5boost16exception_detail39current_exception_std_exception_wrapperISt12length_errorED2Ev, .-_ZN5boost16exception_detail39current_exception_std_exception_wrapperISt12length_errorED2Ev
	.weak	_ZN5boost16exception_detail39current_exception_std_exception_wrapperISt12length_errorED1Ev
	.set	_ZN5boost16exception_detail39current_exception_std_exception_wrapperISt12length_errorED1Ev,_ZN5boost16exception_detail39current_exception_std_exception_wrapperISt12length_errorED2Ev
	.set	.LTHUNK64,_ZN5boost16exception_detail39current_exception_std_exception_wrapperISt12length_errorED1Ev
	.p2align 4,,15
	.weak	_ZThn16_N5boost16exception_detail39current_exception_std_exception_wrapperISt12length_errorED1Ev
	.type	_ZThn16_N5boost16exception_detail39current_exception_std_exception_wrapperISt12length_errorED1Ev, @function
_ZThn16_N5boost16exception_detail39current_exception_std_exception_wrapperISt12length_errorED1Ev:
.LFB14867:
	.cfi_startproc
	subq	$16, %rdi
	jmp	.LTHUNK64
	.cfi_endproc
.LFE14867:
	.size	_ZThn16_N5boost16exception_detail39current_exception_std_exception_wrapperISt12length_errorED1Ev, .-_ZThn16_N5boost16exception_detail39current_exception_std_exception_wrapperISt12length_errorED1Ev
	.section	.text._ZN5boost16exception_detail39current_exception_std_exception_wrapperISt12length_errorED0Ev,"axG",@progbits,_ZN5boost16exception_detail39current_exception_std_exception_wrapperISt12length_errorED5Ev,comdat
	.align 2
	.p2align 4,,15
	.weak	_ZN5boost16exception_detail39current_exception_std_exception_wrapperISt12length_errorED0Ev
	.type	_ZN5boost16exception_detail39current_exception_std_exception_wrapperISt12length_errorED0Ev, @function
_ZN5boost16exception_detail39current_exception_std_exception_wrapperISt12length_errorED0Ev:
.LFB11970:
	.cfi_startproc
	pushq	%rbx
	.cfi_def_cfa_offset 16
	.cfi_offset 3, -16
	movq	%rdi, %rbx
	call	_ZN5boost16exception_detail39current_exception_std_exception_wrapperISt12length_errorED1Ev
	movq	%rbx, %rdi
	movl	$56, %esi
	popq	%rbx
	.cfi_def_cfa_offset 8
	jmp	_ZdlPvm
	.cfi_endproc
.LFE11970:
	.size	_ZN5boost16exception_detail39current_exception_std_exception_wrapperISt12length_errorED0Ev, .-_ZN5boost16exception_detail39current_exception_std_exception_wrapperISt12length_errorED0Ev
	.section	.text._ZN5boost16exception_detail10clone_implINS0_39current_exception_std_exception_wrapperISt12length_errorEEED1Ev,"axG",@progbits,_ZN5boost16exception_detail10clone_implINS0_39current_exception_std_exception_wrapperISt12length_errorEEED1Ev,comdat
	.align 2
	.p2align 4,,15
	.weak	_ZN5boost16exception_detail10clone_implINS0_39current_exception_std_exception_wrapperISt12length_errorEEED1Ev
	.type	_ZN5boost16exception_detail10clone_implINS0_39current_exception_std_exception_wrapperISt12length_errorEEED1Ev, @function
_ZN5boost16exception_detail10clone_implINS0_39current_exception_std_exception_wrapperISt12length_errorEEED1Ev:
.LFB12698:
	.cfi_startproc
	movq	$_ZTVN5boost16exception_detail10clone_implINS0_39current_exception_std_exception_wrapperISt12length_errorEEEE+24, (%rdi)
	movq	$_ZTVN5boost16exception_detail10clone_implINS0_39current_exception_std_exception_wrapperISt12length_errorEEEE+80, 16(%rdi)
	movq	$_ZTVN5boost16exception_detail10clone_implINS0_39current_exception_std_exception_wrapperISt12length_errorEEEE+136, 56(%rdi)
	jmp	_ZN5boost16exception_detail39current_exception_std_exception_wrapperISt12length_errorED2Ev
	.cfi_endproc
.LFE12698:
	.size	_ZN5boost16exception_detail10clone_implINS0_39current_exception_std_exception_wrapperISt12length_errorEEED1Ev, .-_ZN5boost16exception_detail10clone_implINS0_39current_exception_std_exception_wrapperISt12length_errorEEED1Ev
	.section	.text._ZN5boost16exception_detail10clone_implINS0_39current_exception_std_exception_wrapperISt12length_errorEEED0Ev,"axG",@progbits,_ZN5boost16exception_detail10clone_implINS0_39current_exception_std_exception_wrapperISt12length_errorEEED0Ev,comdat
	.align 2
	.p2align 4,,15
	.weak	_ZN5boost16exception_detail10clone_implINS0_39current_exception_std_exception_wrapperISt12length_errorEEED0Ev
	.type	_ZN5boost16exception_detail10clone_implINS0_39current_exception_std_exception_wrapperISt12length_errorEEED0Ev, @function
_ZN5boost16exception_detail10clone_implINS0_39current_exception_std_exception_wrapperISt12length_errorEEED0Ev:
.LFB12699:
	.cfi_startproc
	pushq	%rbx
	.cfi_def_cfa_offset 16
	.cfi_offset 3, -16
	movq	%rdi, %rbx
	movq	$_ZTVN5boost16exception_detail10clone_implINS0_39current_exception_std_exception_wrapperISt12length_errorEEEE+24, (%rdi)
	movq	$_ZTVN5boost16exception_detail10clone_implINS0_39current_exception_std_exception_wrapperISt12length_errorEEEE+80, 16(%rdi)
	movq	$_ZTVN5boost16exception_detail10clone_implINS0_39current_exception_std_exception_wrapperISt12length_errorEEEE+136, 56(%rdi)
	call	_ZN5boost16exception_detail39current_exception_std_exception_wrapperISt12length_errorED2Ev
	movq	%rbx, %rdi
	movl	$64, %esi
	popq	%rbx
	.cfi_def_cfa_offset 8
	jmp	_ZdlPvm
	.cfi_endproc
.LFE12699:
	.size	_ZN5boost16exception_detail10clone_implINS0_39current_exception_std_exception_wrapperISt12length_errorEEED0Ev, .-_ZN5boost16exception_detail10clone_implINS0_39current_exception_std_exception_wrapperISt12length_errorEEED0Ev
	.section	.text._ZN5boost16exception_detail39current_exception_std_exception_wrapperISt16invalid_argumentED2Ev,"axG",@progbits,_ZN5boost16exception_detail39current_exception_std_exception_wrapperISt16invalid_argumentED5Ev,comdat
	.align 2
	.p2align 4,,15
	.weak	_ZN5boost16exception_detail39current_exception_std_exception_wrapperISt16invalid_argumentED2Ev
	.type	_ZN5boost16exception_detail39current_exception_std_exception_wrapperISt16invalid_argumentED2Ev, @function
_ZN5boost16exception_detail39current_exception_std_exception_wrapperISt16invalid_argumentED2Ev:
.LFB11953:
	.cfi_startproc
	.cfi_personality 0x3,__gxx_personality_v0
	.cfi_lsda 0x3,.LLSDA11953
	pushq	%rbx
	.cfi_def_cfa_offset 16
	.cfi_offset 3, -16
	movq	%rdi, %rbx
	movq	$_ZTVN5boost16exception_detail39current_exception_std_exception_wrapperISt16invalid_argumentEE+16, (%rdi)
	movq	$_ZTVN5boost9exceptionE+16, 16(%rdi)
	movq	24(%rdi), %rdi
	testq	%rdi, %rdi
	je	.L353
	movq	(%rdi), %rax
	call	*32(%rax)
.L353:
	movq	%rbx, %rdi
	popq	%rbx
	.cfi_def_cfa_offset 8
	jmp	_ZNSt16invalid_argumentD2Ev
	.cfi_endproc
.LFE11953:
	.section	.gcc_except_table._ZN5boost16exception_detail39current_exception_std_exception_wrapperISt16invalid_argumentED2Ev,"aG",@progbits,_ZN5boost16exception_detail39current_exception_std_exception_wrapperISt16invalid_argumentED5Ev,comdat
.LLSDA11953:
	.byte	0xff
	.byte	0xff
	.byte	0x1
	.uleb128 .LLSDACSE11953-.LLSDACSB11953
.LLSDACSB11953:
.LLSDACSE11953:
	.section	.text._ZN5boost16exception_detail39current_exception_std_exception_wrapperISt16invalid_argumentED2Ev,"axG",@progbits,_ZN5boost16exception_detail39current_exception_std_exception_wrapperISt16invalid_argumentED5Ev,comdat
	.size	_ZN5boost16exception_detail39current_exception_std_exception_wrapperISt16invalid_argumentED2Ev, .-_ZN5boost16exception_detail39current_exception_std_exception_wrapperISt16invalid_argumentED2Ev
	.weak	_ZN5boost16exception_detail39current_exception_std_exception_wrapperISt16invalid_argumentED1Ev
	.set	_ZN5boost16exception_detail39current_exception_std_exception_wrapperISt16invalid_argumentED1Ev,_ZN5boost16exception_detail39current_exception_std_exception_wrapperISt16invalid_argumentED2Ev
	.set	.LTHUNK62,_ZN5boost16exception_detail39current_exception_std_exception_wrapperISt16invalid_argumentED1Ev
	.p2align 4,,15
	.weak	_ZThn16_N5boost16exception_detail39current_exception_std_exception_wrapperISt16invalid_argumentED1Ev
	.type	_ZThn16_N5boost16exception_detail39current_exception_std_exception_wrapperISt16invalid_argumentED1Ev, @function
_ZThn16_N5boost16exception_detail39current_exception_std_exception_wrapperISt16invalid_argumentED1Ev:
.LFB14871:
	.cfi_startproc
	subq	$16, %rdi
	jmp	.LTHUNK62
	.cfi_endproc
.LFE14871:
	.size	_ZThn16_N5boost16exception_detail39current_exception_std_exception_wrapperISt16invalid_argumentED1Ev, .-_ZThn16_N5boost16exception_detail39current_exception_std_exception_wrapperISt16invalid_argumentED1Ev
	.section	.text._ZN5boost16exception_detail39current_exception_std_exception_wrapperISt16invalid_argumentED0Ev,"axG",@progbits,_ZN5boost16exception_detail39current_exception_std_exception_wrapperISt16invalid_argumentED5Ev,comdat
	.align 2
	.p2align 4,,15
	.weak	_ZN5boost16exception_detail39current_exception_std_exception_wrapperISt16invalid_argumentED0Ev
	.type	_ZN5boost16exception_detail39current_exception_std_exception_wrapperISt16invalid_argumentED0Ev, @function
_ZN5boost16exception_detail39current_exception_std_exception_wrapperISt16invalid_argumentED0Ev:
.LFB11955:
	.cfi_startproc
	pushq	%rbx
	.cfi_def_cfa_offset 16
	.cfi_offset 3, -16
	movq	%rdi, %rbx
	call	_ZN5boost16exception_detail39current_exception_std_exception_wrapperISt16invalid_argumentED1Ev
	movq	%rbx, %rdi
	movl	$56, %esi
	popq	%rbx
	.cfi_def_cfa_offset 8
	jmp	_ZdlPvm
	.cfi_endproc
.LFE11955:
	.size	_ZN5boost16exception_detail39current_exception_std_exception_wrapperISt16invalid_argumentED0Ev, .-_ZN5boost16exception_detail39current_exception_std_exception_wrapperISt16invalid_argumentED0Ev
	.section	.text._ZN5boost16exception_detail10clone_implINS0_39current_exception_std_exception_wrapperISt16invalid_argumentEEED1Ev,"axG",@progbits,_ZN5boost16exception_detail10clone_implINS0_39current_exception_std_exception_wrapperISt16invalid_argumentEEED1Ev,comdat
	.align 2
	.p2align 4,,15
	.weak	_ZN5boost16exception_detail10clone_implINS0_39current_exception_std_exception_wrapperISt16invalid_argumentEEED1Ev
	.type	_ZN5boost16exception_detail10clone_implINS0_39current_exception_std_exception_wrapperISt16invalid_argumentEEED1Ev, @function
_ZN5boost16exception_detail10clone_implINS0_39current_exception_std_exception_wrapperISt16invalid_argumentEEED1Ev:
.LFB12692:
	.cfi_startproc
	movq	$_ZTVN5boost16exception_detail10clone_implINS0_39current_exception_std_exception_wrapperISt16invalid_argumentEEEE+24, (%rdi)
	movq	$_ZTVN5boost16exception_detail10clone_implINS0_39current_exception_std_exception_wrapperISt16invalid_argumentEEEE+80, 16(%rdi)
	movq	$_ZTVN5boost16exception_detail10clone_implINS0_39current_exception_std_exception_wrapperISt16invalid_argumentEEEE+136, 56(%rdi)
	jmp	_ZN5boost16exception_detail39current_exception_std_exception_wrapperISt16invalid_argumentED2Ev
	.cfi_endproc
.LFE12692:
	.size	_ZN5boost16exception_detail10clone_implINS0_39current_exception_std_exception_wrapperISt16invalid_argumentEEED1Ev, .-_ZN5boost16exception_detail10clone_implINS0_39current_exception_std_exception_wrapperISt16invalid_argumentEEED1Ev
	.section	.text._ZN5boost16exception_detail10clone_implINS0_39current_exception_std_exception_wrapperISt16invalid_argumentEEED0Ev,"axG",@progbits,_ZN5boost16exception_detail10clone_implINS0_39current_exception_std_exception_wrapperISt16invalid_argumentEEED0Ev,comdat
	.align 2
	.p2align 4,,15
	.weak	_ZN5boost16exception_detail10clone_implINS0_39current_exception_std_exception_wrapperISt16invalid_argumentEEED0Ev
	.type	_ZN5boost16exception_detail10clone_implINS0_39current_exception_std_exception_wrapperISt16invalid_argumentEEED0Ev, @function
_ZN5boost16exception_detail10clone_implINS0_39current_exception_std_exception_wrapperISt16invalid_argumentEEED0Ev:
.LFB12693:
	.cfi_startproc
	pushq	%rbx
	.cfi_def_cfa_offset 16
	.cfi_offset 3, -16
	movq	%rdi, %rbx
	movq	$_ZTVN5boost16exception_detail10clone_implINS0_39current_exception_std_exception_wrapperISt16invalid_argumentEEEE+24, (%rdi)
	movq	$_ZTVN5boost16exception_detail10clone_implINS0_39current_exception_std_exception_wrapperISt16invalid_argumentEEEE+80, 16(%rdi)
	movq	$_ZTVN5boost16exception_detail10clone_implINS0_39current_exception_std_exception_wrapperISt16invalid_argumentEEEE+136, 56(%rdi)
	call	_ZN5boost16exception_detail39current_exception_std_exception_wrapperISt16invalid_argumentED2Ev
	movq	%rbx, %rdi
	movl	$64, %esi
	popq	%rbx
	.cfi_def_cfa_offset 8
	jmp	_ZdlPvm
	.cfi_endproc
.LFE12693:
	.size	_ZN5boost16exception_detail10clone_implINS0_39current_exception_std_exception_wrapperISt16invalid_argumentEEED0Ev, .-_ZN5boost16exception_detail10clone_implINS0_39current_exception_std_exception_wrapperISt16invalid_argumentEEED0Ev
	.section	.text._ZN5boost16exception_detail39current_exception_std_exception_wrapperISt12domain_errorED2Ev,"axG",@progbits,_ZN5boost16exception_detail39current_exception_std_exception_wrapperISt12domain_errorED5Ev,comdat
	.align 2
	.p2align 4,,15
	.weak	_ZN5boost16exception_detail39current_exception_std_exception_wrapperISt12domain_errorED2Ev
	.type	_ZN5boost16exception_detail39current_exception_std_exception_wrapperISt12domain_errorED2Ev, @function
_ZN5boost16exception_detail39current_exception_std_exception_wrapperISt12domain_errorED2Ev:
.LFB11938:
	.cfi_startproc
	.cfi_personality 0x3,__gxx_personality_v0
	.cfi_lsda 0x3,.LLSDA11938
	pushq	%rbx
	.cfi_def_cfa_offset 16
	.cfi_offset 3, -16
	movq	%rdi, %rbx
	movq	$_ZTVN5boost16exception_detail39current_exception_std_exception_wrapperISt12domain_errorEE+16, (%rdi)
	movq	$_ZTVN5boost9exceptionE+16, 16(%rdi)
	movq	24(%rdi), %rdi
	testq	%rdi, %rdi
	je	.L364
	movq	(%rdi), %rax
	call	*32(%rax)
.L364:
	movq	%rbx, %rdi
	popq	%rbx
	.cfi_def_cfa_offset 8
	jmp	_ZNSt12domain_errorD2Ev
	.cfi_endproc
.LFE11938:
	.section	.gcc_except_table._ZN5boost16exception_detail39current_exception_std_exception_wrapperISt12domain_errorED2Ev,"aG",@progbits,_ZN5boost16exception_detail39current_exception_std_exception_wrapperISt12domain_errorED5Ev,comdat
.LLSDA11938:
	.byte	0xff
	.byte	0xff
	.byte	0x1
	.uleb128 .LLSDACSE11938-.LLSDACSB11938
.LLSDACSB11938:
.LLSDACSE11938:
	.section	.text._ZN5boost16exception_detail39current_exception_std_exception_wrapperISt12domain_errorED2Ev,"axG",@progbits,_ZN5boost16exception_detail39current_exception_std_exception_wrapperISt12domain_errorED5Ev,comdat
	.size	_ZN5boost16exception_detail39current_exception_std_exception_wrapperISt12domain_errorED2Ev, .-_ZN5boost16exception_detail39current_exception_std_exception_wrapperISt12domain_errorED2Ev
	.weak	_ZN5boost16exception_detail39current_exception_std_exception_wrapperISt12domain_errorED1Ev
	.set	_ZN5boost16exception_detail39current_exception_std_exception_wrapperISt12domain_errorED1Ev,_ZN5boost16exception_detail39current_exception_std_exception_wrapperISt12domain_errorED2Ev
	.set	.LTHUNK60,_ZN5boost16exception_detail39current_exception_std_exception_wrapperISt12domain_errorED1Ev
	.p2align 4,,15
	.weak	_ZThn16_N5boost16exception_detail39current_exception_std_exception_wrapperISt12domain_errorED1Ev
	.type	_ZThn16_N5boost16exception_detail39current_exception_std_exception_wrapperISt12domain_errorED1Ev, @function
_ZThn16_N5boost16exception_detail39current_exception_std_exception_wrapperISt12domain_errorED1Ev:
.LFB14875:
	.cfi_startproc
	subq	$16, %rdi
	jmp	.LTHUNK60
	.cfi_endproc
.LFE14875:
	.size	_ZThn16_N5boost16exception_detail39current_exception_std_exception_wrapperISt12domain_errorED1Ev, .-_ZThn16_N5boost16exception_detail39current_exception_std_exception_wrapperISt12domain_errorED1Ev
	.section	.text._ZN5boost16exception_detail39current_exception_std_exception_wrapperISt12domain_errorED0Ev,"axG",@progbits,_ZN5boost16exception_detail39current_exception_std_exception_wrapperISt12domain_errorED5Ev,comdat
	.align 2
	.p2align 4,,15
	.weak	_ZN5boost16exception_detail39current_exception_std_exception_wrapperISt12domain_errorED0Ev
	.type	_ZN5boost16exception_detail39current_exception_std_exception_wrapperISt12domain_errorED0Ev, @function
_ZN5boost16exception_detail39current_exception_std_exception_wrapperISt12domain_errorED0Ev:
.LFB11940:
	.cfi_startproc
	pushq	%rbx
	.cfi_def_cfa_offset 16
	.cfi_offset 3, -16
	movq	%rdi, %rbx
	call	_ZN5boost16exception_detail39current_exception_std_exception_wrapperISt12domain_errorED1Ev
	movq	%rbx, %rdi
	movl	$56, %esi
	popq	%rbx
	.cfi_def_cfa_offset 8
	jmp	_ZdlPvm
	.cfi_endproc
.LFE11940:
	.size	_ZN5boost16exception_detail39current_exception_std_exception_wrapperISt12domain_errorED0Ev, .-_ZN5boost16exception_detail39current_exception_std_exception_wrapperISt12domain_errorED0Ev
	.section	.text._ZN5boost16exception_detail10clone_implINS0_39current_exception_std_exception_wrapperISt12domain_errorEEED1Ev,"axG",@progbits,_ZN5boost16exception_detail10clone_implINS0_39current_exception_std_exception_wrapperISt12domain_errorEEED1Ev,comdat
	.align 2
	.p2align 4,,15
	.weak	_ZN5boost16exception_detail10clone_implINS0_39current_exception_std_exception_wrapperISt12domain_errorEEED1Ev
	.type	_ZN5boost16exception_detail10clone_implINS0_39current_exception_std_exception_wrapperISt12domain_errorEEED1Ev, @function
_ZN5boost16exception_detail10clone_implINS0_39current_exception_std_exception_wrapperISt12domain_errorEEED1Ev:
.LFB12686:
	.cfi_startproc
	movq	$_ZTVN5boost16exception_detail10clone_implINS0_39current_exception_std_exception_wrapperISt12domain_errorEEEE+24, (%rdi)
	movq	$_ZTVN5boost16exception_detail10clone_implINS0_39current_exception_std_exception_wrapperISt12domain_errorEEEE+80, 16(%rdi)
	movq	$_ZTVN5boost16exception_detail10clone_implINS0_39current_exception_std_exception_wrapperISt12domain_errorEEEE+136, 56(%rdi)
	jmp	_ZN5boost16exception_detail39current_exception_std_exception_wrapperISt12domain_errorED2Ev
	.cfi_endproc
.LFE12686:
	.size	_ZN5boost16exception_detail10clone_implINS0_39current_exception_std_exception_wrapperISt12domain_errorEEED1Ev, .-_ZN5boost16exception_detail10clone_implINS0_39current_exception_std_exception_wrapperISt12domain_errorEEED1Ev
	.section	.text._ZN5boost16exception_detail10clone_implINS0_39current_exception_std_exception_wrapperISt12domain_errorEEED0Ev,"axG",@progbits,_ZN5boost16exception_detail10clone_implINS0_39current_exception_std_exception_wrapperISt12domain_errorEEED0Ev,comdat
	.align 2
	.p2align 4,,15
	.weak	_ZN5boost16exception_detail10clone_implINS0_39current_exception_std_exception_wrapperISt12domain_errorEEED0Ev
	.type	_ZN5boost16exception_detail10clone_implINS0_39current_exception_std_exception_wrapperISt12domain_errorEEED0Ev, @function
_ZN5boost16exception_detail10clone_implINS0_39current_exception_std_exception_wrapperISt12domain_errorEEED0Ev:
.LFB12687:
	.cfi_startproc
	pushq	%rbx
	.cfi_def_cfa_offset 16
	.cfi_offset 3, -16
	movq	%rdi, %rbx
	movq	$_ZTVN5boost16exception_detail10clone_implINS0_39current_exception_std_exception_wrapperISt12domain_errorEEEE+24, (%rdi)
	movq	$_ZTVN5boost16exception_detail10clone_implINS0_39current_exception_std_exception_wrapperISt12domain_errorEEEE+80, 16(%rdi)
	movq	$_ZTVN5boost16exception_detail10clone_implINS0_39current_exception_std_exception_wrapperISt12domain_errorEEEE+136, 56(%rdi)
	call	_ZN5boost16exception_detail39current_exception_std_exception_wrapperISt12domain_errorED2Ev
	movq	%rbx, %rdi
	movl	$64, %esi
	popq	%rbx
	.cfi_def_cfa_offset 8
	jmp	_ZdlPvm
	.cfi_endproc
.LFE12687:
	.size	_ZN5boost16exception_detail10clone_implINS0_39current_exception_std_exception_wrapperISt12domain_errorEEED0Ev, .-_ZN5boost16exception_detail10clone_implINS0_39current_exception_std_exception_wrapperISt12domain_errorEEED0Ev
	.section	.text._ZN5boost12bad_weak_ptrD2Ev,"axG",@progbits,_ZN5boost12bad_weak_ptrD5Ev,comdat
	.align 2
	.p2align 4,,15
	.weak	_ZN5boost12bad_weak_ptrD2Ev
	.type	_ZN5boost12bad_weak_ptrD2Ev, @function
_ZN5boost12bad_weak_ptrD2Ev:
.LFB11571:
	.cfi_startproc
	movq	$_ZTVN5boost12bad_weak_ptrE+16, (%rdi)
	jmp	_ZNSt9exceptionD2Ev
	.cfi_endproc
.LFE11571:
	.size	_ZN5boost12bad_weak_ptrD2Ev, .-_ZN5boost12bad_weak_ptrD2Ev
	.weak	_ZN5boost12bad_weak_ptrD1Ev
	.set	_ZN5boost12bad_weak_ptrD1Ev,_ZN5boost12bad_weak_ptrD2Ev
	.section	.text._ZN5boost12bad_weak_ptrD0Ev,"axG",@progbits,_ZN5boost12bad_weak_ptrD5Ev,comdat
	.align 2
	.p2align 4,,15
	.weak	_ZN5boost12bad_weak_ptrD0Ev
	.type	_ZN5boost12bad_weak_ptrD0Ev, @function
_ZN5boost12bad_weak_ptrD0Ev:
.LFB11573:
	.cfi_startproc
	pushq	%rbx
	.cfi_def_cfa_offset 16
	.cfi_offset 3, -16
	movq	%rdi, %rbx
	movq	$_ZTVN5boost12bad_weak_ptrE+16, (%rdi)
	call	_ZNSt9exceptionD2Ev
	movq	%rbx, %rdi
	movl	$8, %esi
	popq	%rbx
	.cfi_def_cfa_offset 8
	jmp	_ZdlPvm
	.cfi_endproc
.LFE11573:
	.size	_ZN5boost12bad_weak_ptrD0Ev, .-_ZN5boost12bad_weak_ptrD0Ev
	.section	.text._ZN5boost17unknown_exceptionD2Ev,"axG",@progbits,_ZN5boost17unknown_exceptionD5Ev,comdat
	.align 2
	.p2align 4,,15
	.weak	_ZN5boost17unknown_exceptionD2Ev
	.type	_ZN5boost17unknown_exceptionD2Ev, @function
_ZN5boost17unknown_exceptionD2Ev:
.LFB6989:
	.cfi_startproc
	.cfi_personality 0x3,__gxx_personality_v0
	.cfi_lsda 0x3,.LLSDA6989
	pushq	%rbx
	.cfi_def_cfa_offset 16
	.cfi_offset 3, -16
	movq	$_ZTVN5boost17unknown_exceptionE+16, (%rdi)
	movq	%rdi, %rbx
	movq	$_ZTVN5boost17unknown_exceptionE+48, 40(%rdi)
	addq	$40, %rdi
	call	_ZNSt9exceptionD2Ev
	movq	8(%rbx), %rdi
	movq	$_ZTVN5boost9exceptionE+16, (%rbx)
	testq	%rdi, %rdi
	je	.L377
	movq	(%rdi), %rax
	popq	%rbx
	.cfi_remember_state
	.cfi_def_cfa_offset 8
	movq	32(%rax), %rax
	jmp	*%rax
	.p2align 4,,10
	.p2align 3
.L377:
	.cfi_restore_state
	popq	%rbx
	.cfi_def_cfa_offset 8
	ret
	.cfi_endproc
.LFE6989:
	.section	.gcc_except_table._ZN5boost17unknown_exceptionD2Ev,"aG",@progbits,_ZN5boost17unknown_exceptionD5Ev,comdat
.LLSDA6989:
	.byte	0xff
	.byte	0xff
	.byte	0x1
	.uleb128 .LLSDACSE6989-.LLSDACSB6989
.LLSDACSB6989:
.LLSDACSE6989:
	.section	.text._ZN5boost17unknown_exceptionD2Ev,"axG",@progbits,_ZN5boost17unknown_exceptionD5Ev,comdat
	.size	_ZN5boost17unknown_exceptionD2Ev, .-_ZN5boost17unknown_exceptionD2Ev
	.set	.LTHUNK4,_ZN5boost17unknown_exceptionD2Ev
	.p2align 4,,15
	.weak	_ZThn40_N5boost17unknown_exceptionD1Ev
	.type	_ZThn40_N5boost17unknown_exceptionD1Ev, @function
_ZThn40_N5boost17unknown_exceptionD1Ev:
.LFB14879:
	.cfi_startproc
	subq	$40, %rdi
	jmp	.LTHUNK4
	.cfi_endproc
.LFE14879:
	.size	_ZThn40_N5boost17unknown_exceptionD1Ev, .-_ZThn40_N5boost17unknown_exceptionD1Ev
	.weak	_ZN5boost17unknown_exceptionD1Ev
	.set	_ZN5boost17unknown_exceptionD1Ev,_ZN5boost17unknown_exceptionD2Ev
	.section	.text._ZN5boost17unknown_exceptionD0Ev,"axG",@progbits,_ZN5boost17unknown_exceptionD5Ev,comdat
	.align 2
	.p2align 4,,15
	.weak	_ZN5boost17unknown_exceptionD0Ev
	.type	_ZN5boost17unknown_exceptionD0Ev, @function
_ZN5boost17unknown_exceptionD0Ev:
.LFB6991:
	.cfi_startproc
	pushq	%rbx
	.cfi_def_cfa_offset 16
	.cfi_offset 3, -16
	movq	%rdi, %rbx
	call	_ZN5boost17unknown_exceptionD1Ev
	movq	%rbx, %rdi
	movl	$48, %esi
	popq	%rbx
	.cfi_def_cfa_offset 8
	jmp	_ZdlPvm
	.cfi_endproc
.LFE6991:
	.size	_ZN5boost17unknown_exceptionD0Ev, .-_ZN5boost17unknown_exceptionD0Ev
	.section	.text._ZN5boost16exception_detail10clone_implINS_17unknown_exceptionEED1Ev,"axG",@progbits,_ZN5boost16exception_detail10clone_implINS_17unknown_exceptionEED1Ev,comdat
	.align 2
	.p2align 4,,15
	.weak	_ZN5boost16exception_detail10clone_implINS_17unknown_exceptionEED1Ev
	.type	_ZN5boost16exception_detail10clone_implINS_17unknown_exceptionEED1Ev, @function
_ZN5boost16exception_detail10clone_implINS_17unknown_exceptionEED1Ev:
.LFB11895:
	.cfi_startproc
	movq	$_ZTVN5boost16exception_detail10clone_implINS_17unknown_exceptionEEE+24, (%rdi)
	movq	$_ZTVN5boost16exception_detail10clone_implINS_17unknown_exceptionEEE+72, 40(%rdi)
	movq	$_ZTVN5boost16exception_detail10clone_implINS_17unknown_exceptionEEE+136, 48(%rdi)
	jmp	_ZN5boost17unknown_exceptionD2Ev
	.cfi_endproc
.LFE11895:
	.size	_ZN5boost16exception_detail10clone_implINS_17unknown_exceptionEED1Ev, .-_ZN5boost16exception_detail10clone_implINS_17unknown_exceptionEED1Ev
	.section	.text._ZN5boost16exception_detail10clone_implINS_17unknown_exceptionEED0Ev,"axG",@progbits,_ZN5boost16exception_detail10clone_implINS_17unknown_exceptionEED0Ev,comdat
	.align 2
	.p2align 4,,15
	.weak	_ZN5boost16exception_detail10clone_implINS_17unknown_exceptionEED0Ev
	.type	_ZN5boost16exception_detail10clone_implINS_17unknown_exceptionEED0Ev, @function
_ZN5boost16exception_detail10clone_implINS_17unknown_exceptionEED0Ev:
.LFB11896:
	.cfi_startproc
	pushq	%rbx
	.cfi_def_cfa_offset 16
	.cfi_offset 3, -16
	movq	%rdi, %rbx
	movq	$_ZTVN5boost16exception_detail10clone_implINS_17unknown_exceptionEEE+24, (%rdi)
	movq	$_ZTVN5boost16exception_detail10clone_implINS_17unknown_exceptionEEE+72, 40(%rdi)
	movq	$_ZTVN5boost16exception_detail10clone_implINS_17unknown_exceptionEEE+136, 48(%rdi)
	call	_ZN5boost17unknown_exceptionD2Ev
	movq	%rbx, %rdi
	movl	$56, %esi
	popq	%rbx
	.cfi_def_cfa_offset 8
	jmp	_ZdlPvm
	.cfi_endproc
.LFE11896:
	.size	_ZN5boost16exception_detail10clone_implINS_17unknown_exceptionEED0Ev, .-_ZN5boost16exception_detail10clone_implINS_17unknown_exceptionEED0Ev
	.section	.text._ZN5boost16exception_detail19error_info_injectorINS_12bad_weak_ptrEED2Ev,"axG",@progbits,_ZN5boost16exception_detail19error_info_injectorINS_12bad_weak_ptrEED5Ev,comdat
	.align 2
	.p2align 4,,15
	.weak	_ZN5boost16exception_detail19error_info_injectorINS_12bad_weak_ptrEED2Ev
	.type	_ZN5boost16exception_detail19error_info_injectorINS_12bad_weak_ptrEED2Ev, @function
_ZN5boost16exception_detail19error_info_injectorINS_12bad_weak_ptrEED2Ev:
.LFB11574:
	.cfi_startproc
	.cfi_personality 0x3,__gxx_personality_v0
	.cfi_lsda 0x3,.LLSDA11574
	pushq	%rbx
	.cfi_def_cfa_offset 16
	.cfi_offset 3, -16
	movq	%rdi, %rbx
	movq	$_ZTVN5boost16exception_detail19error_info_injectorINS_12bad_weak_ptrEEE+16, (%rdi)
	movq	$_ZTVN5boost9exceptionE+16, 8(%rdi)
	movq	16(%rdi), %rdi
	testq	%rdi, %rdi
	je	.L386
	movq	(%rdi), %rax
	call	*32(%rax)
.L386:
	movq	$_ZTVN5boost12bad_weak_ptrE+16, (%rbx)
	movq	%rbx, %rdi
	popq	%rbx
	.cfi_def_cfa_offset 8
	jmp	_ZNSt9exceptionD2Ev
	.cfi_endproc
.LFE11574:
	.section	.gcc_except_table._ZN5boost16exception_detail19error_info_injectorINS_12bad_weak_ptrEED2Ev,"aG",@progbits,_ZN5boost16exception_detail19error_info_injectorINS_12bad_weak_ptrEED5Ev,comdat
.LLSDA11574:
	.byte	0xff
	.byte	0xff
	.byte	0x1
	.uleb128 .LLSDACSE11574-.LLSDACSB11574
.LLSDACSB11574:
.LLSDACSE11574:
	.section	.text._ZN5boost16exception_detail19error_info_injectorINS_12bad_weak_ptrEED2Ev,"axG",@progbits,_ZN5boost16exception_detail19error_info_injectorINS_12bad_weak_ptrEED5Ev,comdat
	.size	_ZN5boost16exception_detail19error_info_injectorINS_12bad_weak_ptrEED2Ev, .-_ZN5boost16exception_detail19error_info_injectorINS_12bad_weak_ptrEED2Ev
	.weak	_ZN5boost16exception_detail19error_info_injectorINS_12bad_weak_ptrEED1Ev
	.set	_ZN5boost16exception_detail19error_info_injectorINS_12bad_weak_ptrEED1Ev,_ZN5boost16exception_detail19error_info_injectorINS_12bad_weak_ptrEED2Ev
	.set	.LTHUNK12,_ZN5boost16exception_detail19error_info_injectorINS_12bad_weak_ptrEED1Ev
	.p2align 4,,15
	.weak	_ZThn8_N5boost16exception_detail19error_info_injectorINS_12bad_weak_ptrEED1Ev
	.type	_ZThn8_N5boost16exception_detail19error_info_injectorINS_12bad_weak_ptrEED1Ev, @function
_ZThn8_N5boost16exception_detail19error_info_injectorINS_12bad_weak_ptrEED1Ev:
.LFB14883:
	.cfi_startproc
	subq	$8, %rdi
	jmp	.LTHUNK12
	.cfi_endproc
.LFE14883:
	.size	_ZThn8_N5boost16exception_detail19error_info_injectorINS_12bad_weak_ptrEED1Ev, .-_ZThn8_N5boost16exception_detail19error_info_injectorINS_12bad_weak_ptrEED1Ev
	.section	.text._ZN5boost16exception_detail19error_info_injectorINS_12bad_weak_ptrEED0Ev,"axG",@progbits,_ZN5boost16exception_detail19error_info_injectorINS_12bad_weak_ptrEED5Ev,comdat
	.align 2
	.p2align 4,,15
	.weak	_ZN5boost16exception_detail19error_info_injectorINS_12bad_weak_ptrEED0Ev
	.type	_ZN5boost16exception_detail19error_info_injectorINS_12bad_weak_ptrEED0Ev, @function
_ZN5boost16exception_detail19error_info_injectorINS_12bad_weak_ptrEED0Ev:
.LFB11576:
	.cfi_startproc
	pushq	%rbx
	.cfi_def_cfa_offset 16
	.cfi_offset 3, -16
	movq	%rdi, %rbx
	call	_ZN5boost16exception_detail19error_info_injectorINS_12bad_weak_ptrEED1Ev
	movq	%rbx, %rdi
	movl	$48, %esi
	popq	%rbx
	.cfi_def_cfa_offset 8
	jmp	_ZdlPvm
	.cfi_endproc
.LFE11576:
	.size	_ZN5boost16exception_detail19error_info_injectorINS_12bad_weak_ptrEED0Ev, .-_ZN5boost16exception_detail19error_info_injectorINS_12bad_weak_ptrEED0Ev
	.section	.text._ZN5boost16exception_detail10clone_implINS0_19error_info_injectorINS_12bad_weak_ptrEEEED1Ev,"axG",@progbits,_ZN5boost16exception_detail10clone_implINS0_19error_info_injectorINS_12bad_weak_ptrEEEED1Ev,comdat
	.align 2
	.p2align 4,,15
	.weak	_ZN5boost16exception_detail10clone_implINS0_19error_info_injectorINS_12bad_weak_ptrEEEED1Ev
	.type	_ZN5boost16exception_detail10clone_implINS0_19error_info_injectorINS_12bad_weak_ptrEEEED1Ev, @function
_ZN5boost16exception_detail10clone_implINS0_19error_info_injectorINS_12bad_weak_ptrEEEED1Ev:
.LFB11580:
	.cfi_startproc
	movq	$_ZTVN5boost16exception_detail10clone_implINS0_19error_info_injectorINS_12bad_weak_ptrEEEEE+24, (%rdi)
	movq	$_ZTVN5boost16exception_detail10clone_implINS0_19error_info_injectorINS_12bad_weak_ptrEEEEE+80, 8(%rdi)
	movq	$_ZTVN5boost16exception_detail10clone_implINS0_19error_info_injectorINS_12bad_weak_ptrEEEEE+136, 48(%rdi)
	jmp	_ZN5boost16exception_detail19error_info_injectorINS_12bad_weak_ptrEED2Ev
	.cfi_endproc
.LFE11580:
	.size	_ZN5boost16exception_detail10clone_implINS0_19error_info_injectorINS_12bad_weak_ptrEEEED1Ev, .-_ZN5boost16exception_detail10clone_implINS0_19error_info_injectorINS_12bad_weak_ptrEEEED1Ev
	.section	.text._ZN5boost16exception_detail10clone_implINS0_19error_info_injectorINS_12bad_weak_ptrEEEED0Ev,"axG",@progbits,_ZN5boost16exception_detail10clone_implINS0_19error_info_injectorINS_12bad_weak_ptrEEEED0Ev,comdat
	.align 2
	.p2align 4,,15
	.weak	_ZN5boost16exception_detail10clone_implINS0_19error_info_injectorINS_12bad_weak_ptrEEEED0Ev
	.type	_ZN5boost16exception_detail10clone_implINS0_19error_info_injectorINS_12bad_weak_ptrEEEED0Ev, @function
_ZN5boost16exception_detail10clone_implINS0_19error_info_injectorINS_12bad_weak_ptrEEEED0Ev:
.LFB11581:
	.cfi_startproc
	pushq	%rbx
	.cfi_def_cfa_offset 16
	.cfi_offset 3, -16
	movq	%rdi, %rbx
	movq	$_ZTVN5boost16exception_detail10clone_implINS0_19error_info_injectorINS_12bad_weak_ptrEEEEE+24, (%rdi)
	movq	$_ZTVN5boost16exception_detail10clone_implINS0_19error_info_injectorINS_12bad_weak_ptrEEEEE+80, 8(%rdi)
	movq	$_ZTVN5boost16exception_detail10clone_implINS0_19error_info_injectorINS_12bad_weak_ptrEEEEE+136, 48(%rdi)
	call	_ZN5boost16exception_detail19error_info_injectorINS_12bad_weak_ptrEED2Ev
	movq	%rbx, %rdi
	movl	$56, %esi
	popq	%rbx
	.cfi_def_cfa_offset 8
	jmp	_ZdlPvm
	.cfi_endproc
.LFE11581:
	.size	_ZN5boost16exception_detail10clone_implINS0_19error_info_injectorINS_12bad_weak_ptrEEEED0Ev, .-_ZN5boost16exception_detail10clone_implINS0_19error_info_injectorINS_12bad_weak_ptrEEEED0Ev
	.section	.rodata.str1.1,"aMS",@progbits,1
.LC1:
	.string	"basic_string::_M_create"
	.text
	.align 2
	.p2align 4,,15
	.type	_ZNSt7__cxx1112basic_stringIcSt11char_traitsIcESaIcEE9_M_createERmm.isra.117, @function
_ZNSt7__cxx1112basic_stringIcSt11char_traitsIcESaIcEE9_M_createERmm.isra.117:
.LFB14412:
	.cfi_startproc
	movq	(%rdi), %rax
	testq	%rax, %rax
	js	.L406
	cmpq	%rsi, %rax
	jbe	.L405
	addq	%rsi, %rsi
	cmpq	%rsi, %rax
	jnb	.L405
	testq	%rsi, %rsi
	js	.L401
	movq	%rsi, (%rdi)
	leaq	1(%rsi), %rdi
	jmp	_Znwm
	.p2align 4,,10
	.p2align 3
.L405:
	leaq	1(%rax), %rdi
	jmp	_Znwm
	.p2align 4,,10
	.p2align 3
.L401:
	movabsq	$9223372036854775807, %rax
	movq	%rax, (%rdi)
	movabsq	$-9223372036854775808, %rdi
	jmp	_Znwm
.L406:
	subq	$8, %rsp
	.cfi_def_cfa_offset 16
	movl	$.LC1, %edi
	call	_ZSt20__throw_length_errorPKc
	.cfi_endproc
.LFE14412:
	.size	_ZNSt7__cxx1112basic_stringIcSt11char_traitsIcESaIcEE9_M_createERmm.isra.117, .-_ZNSt7__cxx1112basic_stringIcSt11char_traitsIcESaIcEE9_M_createERmm.isra.117
	.section	.rodata.str1.8,"aMS",@progbits,1
	.align 8
.LC2:
	.string	"basic_string::_M_construct null not valid"
	.text
	.align 2
	.p2align 4,,15
	.type	_ZNSt7__cxx1112basic_stringIcSt11char_traitsIcESaIcEE12_M_constructIPcEEvT_S7_St20forward_iterator_tag.isra.118, @function
_ZNSt7__cxx1112basic_stringIcSt11char_traitsIcESaIcEE12_M_constructIPcEEvT_S7_St20forward_iterator_tag.isra.118:
.LFB14413:
	.cfi_startproc
	pushq	%r12
	.cfi_def_cfa_offset 16
	.cfi_offset 12, -16
	pushq	%rbp
	.cfi_def_cfa_offset 24
	.cfi_offset 6, -24
	movq	%rsi, %r12
	movq	%rdi, %rbp
	subq	$40, %rsp
	.cfi_def_cfa_offset 64
	testq	%rsi, %rsi
	jne	.L408
	testq	%rdx, %rdx
	jne	.L423
.L408:
	subq	%r12, %rdx
	cmpq	$15, %rdx
	movq	%rdx, 24(%rsp)
	ja	.L424
	cmpq	$1, %rdx
	movq	0(%rbp), %rax
	je	.L425
	testq	%rdx, %rdx
	jne	.L410
	movq	%rdx, 8(%rbp)
	movb	$0, (%rax,%rdx)
	addq	$40, %rsp
	.cfi_remember_state
	.cfi_def_cfa_offset 24
	popq	%rbp
	.cfi_def_cfa_offset 16
	popq	%r12
	.cfi_def_cfa_offset 8
	ret
	.p2align 4,,10
	.p2align 3
.L425:
	.cfi_restore_state
	movzbl	(%r12), %edx
	movb	%dl, (%rax)
	movq	24(%rsp), %rdx
	movq	0(%rbp), %rax
	movq	%rdx, 8(%rbp)
	movb	$0, (%rax,%rdx)
	addq	$40, %rsp
	.cfi_remember_state
	.cfi_def_cfa_offset 24
	popq	%rbp
	.cfi_def_cfa_offset 16
	popq	%r12
	.cfi_def_cfa_offset 8
	ret
	.p2align 4,,10
	.p2align 3
.L424:
	.cfi_restore_state
	leaq	24(%rsp), %rdi
	xorl	%esi, %esi
	movq	%rdx, 8(%rsp)
	call	_ZNSt7__cxx1112basic_stringIcSt11char_traitsIcESaIcEE9_M_createERmm.isra.117
	movq	24(%rsp), %rcx
	movq	8(%rsp), %rdx
	movq	%rax, 0(%rbp)
	movq	%rcx, 16(%rbp)
.L410:
	movq	%r12, %rsi
	movq	%rax, %rdi
	call	memcpy
	movq	24(%rsp), %rdx
	movq	0(%rbp), %rax
	movq	%rdx, 8(%rbp)
	movb	$0, (%rax,%rdx)
	addq	$40, %rsp
	.cfi_remember_state
	.cfi_def_cfa_offset 24
	popq	%rbp
	.cfi_def_cfa_offset 16
	popq	%r12
	.cfi_def_cfa_offset 8
	ret
.L423:
	.cfi_restore_state
	movl	$.LC2, %edi
	call	_ZSt19__throw_logic_errorPKc
	.cfi_endproc
.LFE14413:
	.size	_ZNSt7__cxx1112basic_stringIcSt11char_traitsIcESaIcEE12_M_constructIPcEEvT_S7_St20forward_iterator_tag.isra.118, .-_ZNSt7__cxx1112basic_stringIcSt11char_traitsIcESaIcEE12_M_constructIPcEEvT_S7_St20forward_iterator_tag.isra.118
	.set	_ZNSt7__cxx1112basic_stringIcSt11char_traitsIcESaIcEE12_M_constructIPKcEEvT_S8_St20forward_iterator_tag.isra.121,_ZNSt7__cxx1112basic_stringIcSt11char_traitsIcESaIcEE12_M_constructIPcEEvT_S7_St20forward_iterator_tag.isra.118
	.section	.text._ZN5boost6detail16thread_data_base25notify_all_at_thread_exitEPNS_18condition_variableEPNS_5mutexE,"axG",@progbits,_ZN5boost6detail16thread_data_base25notify_all_at_thread_exitEPNS_18condition_variableEPNS_5mutexE,comdat
	.align 2
	.p2align 4,,15
	.weak	_ZN5boost6detail16thread_data_base25notify_all_at_thread_exitEPNS_18condition_variableEPNS_5mutexE
	.type	_ZN5boost6detail16thread_data_base25notify_all_at_thread_exitEPNS_18condition_variableEPNS_5mutexE, @function
_ZN5boost6detail16thread_data_base25notify_all_at_thread_exitEPNS_18condition_variableEPNS_5mutexE:
.LFB6492:
	.cfi_startproc
	pushq	%r15
	.cfi_def_cfa_offset 16
	.cfi_offset 15, -16
	pushq	%r14
	.cfi_def_cfa_offset 24
	.cfi_offset 14, -24
	pushq	%r13
	.cfi_def_cfa_offset 32
	.cfi_offset 13, -32
	pushq	%r12
	.cfi_def_cfa_offset 40
	.cfi_offset 12, -40
	pushq	%rbp
	.cfi_def_cfa_offset 48
	.cfi_offset 6, -48
	pushq	%rbx
	.cfi_def_cfa_offset 56
	.cfi_offset 3, -56
	subq	$24, %rsp
	.cfi_def_cfa_offset 80
	movq	392(%rdi), %rbx
	cmpq	400(%rdi), %rbx
	je	.L427
	movq	%rsi, (%rbx)
	movq	%rdx, 8(%rbx)
	addq	$16, %rbx
	movq	%rbx, 392(%rdi)
	addq	$24, %rsp
	.cfi_remember_state
	.cfi_def_cfa_offset 56
	popq	%rbx
	.cfi_def_cfa_offset 48
	popq	%rbp
	.cfi_def_cfa_offset 40
	popq	%r12
	.cfi_def_cfa_offset 32
	popq	%r13
	.cfi_def_cfa_offset 24
	popq	%r14
	.cfi_def_cfa_offset 16
	popq	%r15
	.cfi_def_cfa_offset 8
	ret
	.p2align 4,,10
	.p2align 3
.L427:
	.cfi_restore_state
	movq	%rdx, %r12
	movq	%rbx, %rdx
	subq	384(%rdi), %rdx
	movq	%rsi, %r13
	movq	%rdi, %rbp
	movq	%rdx, %rax
	sarq	$4, %rax
	testq	%rax, %rax
	je	.L436
	leaq	(%rax,%rax), %r14
	cmpq	%r14, %rax
	jbe	.L448
.L438:
	movq	$-16, %r14
.L429:
	movq	%r14, %rdi
	movq	%rdx, 8(%rsp)
	call	_Znwm
	movq	392(%rbp), %rcx
	movq	8(%rsp), %rdx
	movq	%rax, %r15
.L430:
	movq	384(%rbp), %rdi
	addq	%r15, %rdx
	movq	%r13, (%rdx)
	movq	%r12, 8(%rdx)
	cmpq	%rdi, %rbx
	je	.L440
	movq	%rdi, %rdx
	movq	%r15, %rsi
	.p2align 4,,10
	.p2align 3
.L432:
	movdqu	(%rdx), %xmm0
	addq	$16, %rdx
	addq	$16, %rsi
	movups	%xmm0, -16(%rsi)
	cmpq	%rdx, %rbx
	jne	.L432
	leaq	-16(%rbx), %rax
	subq	%rdi, %rax
	andq	$-16, %rax
	leaq	16(%r15,%rax), %r12
.L431:
	addq	$16, %r12
	cmpq	%rcx, %rbx
	je	.L433
	movq	%rbx, %rdx
	movq	%r12, %rsi
	.p2align 4,,10
	.p2align 3
.L434:
	movdqu	(%rdx), %xmm0
	addq	$16, %rdx
	addq	$16, %rsi
	movups	%xmm0, -16(%rsi)
	cmpq	%rdx, %rcx
	jne	.L434
	subq	$16, %rcx
	subq	%rbx, %rcx
	andq	$-16, %rcx
	leaq	16(%r12,%rcx), %r12
.L433:
	testq	%rdi, %rdi
	je	.L435
	call	_ZdlPv
.L435:
	addq	%r15, %r14
	movq	%r15, 384(%rbp)
	movq	%r12, 392(%rbp)
	movq	%r14, 400(%rbp)
	addq	$24, %rsp
	.cfi_remember_state
	.cfi_def_cfa_offset 56
	popq	%rbx
	.cfi_def_cfa_offset 48
	popq	%rbp
	.cfi_def_cfa_offset 40
	popq	%r12
	.cfi_def_cfa_offset 32
	popq	%r13
	.cfi_def_cfa_offset 24
	popq	%r14
	.cfi_def_cfa_offset 16
	popq	%r15
	.cfi_def_cfa_offset 8
	ret
	.p2align 4,,10
	.p2align 3
.L436:
	.cfi_restore_state
	movl	$16, %r14d
	jmp	.L429
	.p2align 4,,10
	.p2align 3
.L448:
	movabsq	$1152921504606846975, %rsi
	cmpq	%rsi, %r14
	ja	.L438
	xorl	%r15d, %r15d
	testq	%r14, %r14
	movq	%rbx, %rcx
	je	.L430
	salq	$5, %rax
	movq	%rax, %r14
	jmp	.L429
	.p2align 4,,10
	.p2align 3
.L440:
	movq	%r15, %r12
	jmp	.L431
	.cfi_endproc
.LFE6492:
	.size	_ZN5boost6detail16thread_data_base25notify_all_at_thread_exitEPNS_18condition_variableEPNS_5mutexE, .-_ZN5boost6detail16thread_data_base25notify_all_at_thread_exitEPNS_18condition_variableEPNS_5mutexE
	.section	.text._ZNK5boost10error_infoINS_27tag_original_exception_typeEPKSt9type_infoE17name_value_stringB5cxx11Ev,"axG",@progbits,_ZNK5boost10error_infoINS_27tag_original_exception_typeEPKSt9type_infoE17name_value_stringB5cxx11Ev,comdat
	.align 2
	.p2align 4,,15
	.weak	_ZNK5boost10error_infoINS_27tag_original_exception_typeEPKSt9type_infoE17name_value_stringB5cxx11Ev
	.type	_ZNK5boost10error_infoINS_27tag_original_exception_typeEPKSt9type_infoE17name_value_stringB5cxx11Ev, @function
_ZNK5boost10error_infoINS_27tag_original_exception_typeEPKSt9type_infoE17name_value_stringB5cxx11Ev:
.LFB14131:
	.cfi_startproc
	.cfi_personality 0x3,__gxx_personality_v0
	.cfi_lsda 0x3,.LLSDA14131
	pushq	%r13
	.cfi_def_cfa_offset 16
	.cfi_offset 13, -16
	pushq	%r12
	.cfi_def_cfa_offset 24
	.cfi_offset 12, -24
	pushq	%rbp
	.cfi_def_cfa_offset 32
	.cfi_offset 6, -32
	pushq	%rbx
	.cfi_def_cfa_offset 40
	.cfi_offset 3, -40
	movq	%rdi, %rbp
	subq	$24, %rsp
	.cfi_def_cfa_offset 64
	movq	8(%rsi), %rax
	movq	8(%rax), %r12
	cmpb	$42, (%r12)
	je	.L462
	leaq	4(%rsp), %rcx
	leaq	8(%rsp), %rdx
	xorl	%esi, %esi
	movq	%r12, %rdi
	movl	$0, 4(%rsp)
	movq	$0, 8(%rsp)
	call	__cxa_demangle
	movq	%rax, %rbx
	leaq	16(%rbp), %rax
	testq	%rbx, %rbx
	je	.L463
.L451:
	movq	%rax, 0(%rbp)
	movq	%rbx, %r13
.L454:
	movq	%rbx, %rdi
	call	strlen
	leaq	(%rbx,%rax), %rdx
.L452:
	movq	%rbx, %rsi
	movq	%rbp, %rdi
.LEHB6:
	call	_ZNSt7__cxx1112basic_stringIcSt11char_traitsIcESaIcEE12_M_constructIPKcEEvT_S8_St20forward_iterator_tag.isra.121
.LEHE6:
	movq	%r13, %rdi
	call	free
	addq	$24, %rsp
	.cfi_remember_state
	.cfi_def_cfa_offset 40
	movq	%rbp, %rax
	popq	%rbx
	.cfi_def_cfa_offset 32
	popq	%rbp
	.cfi_def_cfa_offset 24
	popq	%r12
	.cfi_def_cfa_offset 16
	popq	%r13
	.cfi_def_cfa_offset 8
	ret
	.p2align 4,,10
	.p2align 3
.L462:
	.cfi_restore_state
	leaq	1(%r12), %rbx
	leaq	4(%rsp), %rcx
	leaq	8(%rsp), %rdx
	xorl	%esi, %esi
	movl	$0, 4(%rsp)
	movq	$0, 8(%rsp)
	movq	%rbx, %rdi
	call	__cxa_demangle
	movq	%rax, %r13
	leaq	16(%rbp), %rax
	testq	%r13, %r13
	jne	.L456
	testq	%rbx, %rbx
	movq	%rax, 0(%rbp)
	jne	.L454
	movq	$-1, %rdx
	jmp	.L452
	.p2align 4,,10
	.p2align 3
.L456:
	movq	%r13, %rbx
	jmp	.L451
	.p2align 4,,10
	.p2align 3
.L463:
	movq	%rax, 0(%rbp)
	xorl	%r13d, %r13d
	movq	%r12, %rbx
	jmp	.L454
.L458:
	movq	%rax, %rbx
	movq	%r13, %rdi
	call	free
	movq	%rbx, %rdi
.LEHB7:
	call	_Unwind_Resume
.LEHE7:
	.cfi_endproc
.LFE14131:
	.section	.gcc_except_table._ZNK5boost10error_infoINS_27tag_original_exception_typeEPKSt9type_infoE17name_value_stringB5cxx11Ev,"aG",@progbits,_ZNK5boost10error_infoINS_27tag_original_exception_typeEPKSt9type_infoE17name_value_stringB5cxx11Ev,comdat
.LLSDA14131:
	.byte	0xff
	.byte	0xff
	.byte	0x1
	.uleb128 .LLSDACSE14131-.LLSDACSB14131
.LLSDACSB14131:
	.uleb128 .LEHB6-.LFB14131
	.uleb128 .LEHE6-.LEHB6
	.uleb128 .L458-.LFB14131
	.uleb128 0
	.uleb128 .LEHB7-.LFB14131
	.uleb128 .LEHE7-.LEHB7
	.uleb128 0
	.uleb128 0
.LLSDACSE14131:
	.section	.text._ZNK5boost10error_infoINS_27tag_original_exception_typeEPKSt9type_infoE17name_value_stringB5cxx11Ev,"axG",@progbits,_ZNK5boost10error_infoINS_27tag_original_exception_typeEPKSt9type_infoE17name_value_stringB5cxx11Ev,comdat
	.size	_ZNK5boost10error_infoINS_27tag_original_exception_typeEPKSt9type_infoE17name_value_stringB5cxx11Ev, .-_ZNK5boost10error_infoINS_27tag_original_exception_typeEPKSt9type_infoE17name_value_stringB5cxx11Ev
	.section	.text._ZN5boost6detail17sp_counted_impl_pINS_10error_infoINS_27tag_original_exception_typeEPKSt9type_infoEEE7disposeEv,"axG",@progbits,_ZN5boost6detail17sp_counted_impl_pINS_10error_infoINS_27tag_original_exception_typeEPKSt9type_infoEEE7disposeEv,comdat
	.align 2
	.p2align 4,,15
	.weak	_ZN5boost6detail17sp_counted_impl_pINS_10error_infoINS_27tag_original_exception_typeEPKSt9type_infoEEE7disposeEv
	.type	_ZN5boost6detail17sp_counted_impl_pINS_10error_infoINS_27tag_original_exception_typeEPKSt9type_infoEEE7disposeEv, @function
_ZN5boost6detail17sp_counted_impl_pINS_10error_infoINS_27tag_original_exception_typeEPKSt9type_infoEEE7disposeEv:
.LFB13933:
	.cfi_startproc
	movq	16(%rdi), %rdi
	testq	%rdi, %rdi
	je	.L464
	movq	(%rdi), %rax
	movq	16(%rax), %rax
	cmpq	$_ZN5boost10error_infoINS_27tag_original_exception_typeEPKSt9type_infoED0Ev, %rax
	jne	.L466
	movl	$16, %esi
	jmp	_ZdlPvm
	.p2align 4,,10
	.p2align 3
.L464:
	rep ret
	.p2align 4,,10
	.p2align 3
.L466:
	jmp	*%rax
	.cfi_endproc
.LFE13933:
	.size	_ZN5boost6detail17sp_counted_impl_pINS_10error_infoINS_27tag_original_exception_typeEPKSt9type_infoEEE7disposeEv, .-_ZN5boost6detail17sp_counted_impl_pINS_10error_infoINS_27tag_original_exception_typeEPKSt9type_infoEEE7disposeEv
	.section	.text._ZN5boost16exception_detail10clone_implINS_14broken_promiseEED1Ev,"axG",@progbits,_ZN5boost16exception_detail10clone_implINS_14broken_promiseEED1Ev,comdat
	.p2align 4,,15
	.weak	_ZTv0_n40_N5boost16exception_detail10clone_implINS_14broken_promiseEED1Ev
	.type	_ZTv0_n40_N5boost16exception_detail10clone_implINS_14broken_promiseEED1Ev, @function
_ZTv0_n40_N5boost16exception_detail10clone_implINS_14broken_promiseEED1Ev:
.LFB14517:
	.cfi_startproc
	movq	(%rdi), %rax
	addq	-40(%rax), %rdi
	movq	$_ZTVN5boost16exception_detail10clone_implINS_14broken_promiseEEE+104, 32(%rdi)
	movq	$_ZTVN5boost12future_errorE+16, (%rdi)
	jmp	_ZNSt11logic_errorD2Ev
	.cfi_endproc
.LFE14517:
	.size	_ZTv0_n40_N5boost16exception_detail10clone_implINS_14broken_promiseEED1Ev, .-_ZTv0_n40_N5boost16exception_detail10clone_implINS_14broken_promiseEED1Ev
	.section	.text._ZN5boost16exception_detail19error_info_injectorINS_20task_already_startedEED0Ev,"axG",@progbits,_ZN5boost16exception_detail19error_info_injectorINS_20task_already_startedEED5Ev,comdat
	.p2align 4,,15
	.weak	_ZThn32_N5boost16exception_detail19error_info_injectorINS_20task_already_startedEED0Ev
	.type	_ZThn32_N5boost16exception_detail19error_info_injectorINS_20task_already_startedEED0Ev, @function
_ZThn32_N5boost16exception_detail19error_info_injectorINS_20task_already_startedEED0Ev:
.LFB14519:
	.cfi_startproc
	pushq	%rbx
	.cfi_def_cfa_offset 16
	.cfi_offset 3, -16
	leaq	-32(%rdi), %rbx
	movq	%rbx, %rdi
	call	_ZN5boost16exception_detail19error_info_injectorINS_20task_already_startedEED1Ev
	movq	%rbx, %rdi
	movl	$72, %esi
	popq	%rbx
	.cfi_def_cfa_offset 8
	jmp	_ZdlPvm
	.cfi_endproc
.LFE14519:
	.size	_ZThn32_N5boost16exception_detail19error_info_injectorINS_20task_already_startedEED0Ev, .-_ZThn32_N5boost16exception_detail19error_info_injectorINS_20task_already_startedEED0Ev
	.section	.text._ZN5boost16exception_detail19error_info_injectorINS_10task_movedEED0Ev,"axG",@progbits,_ZN5boost16exception_detail19error_info_injectorINS_10task_movedEED5Ev,comdat
	.p2align 4,,15
	.weak	_ZThn32_N5boost16exception_detail19error_info_injectorINS_10task_movedEED0Ev
	.type	_ZThn32_N5boost16exception_detail19error_info_injectorINS_10task_movedEED0Ev, @function
_ZThn32_N5boost16exception_detail19error_info_injectorINS_10task_movedEED0Ev:
.LFB14520:
	.cfi_startproc
	pushq	%rbx
	.cfi_def_cfa_offset 16
	.cfi_offset 3, -16
	leaq	-32(%rdi), %rbx
	movq	%rbx, %rdi
	call	_ZN5boost16exception_detail19error_info_injectorINS_10task_movedEED1Ev
	movq	%rbx, %rdi
	movl	$72, %esi
	popq	%rbx
	.cfi_def_cfa_offset 8
	jmp	_ZdlPvm
	.cfi_endproc
.LFE14520:
	.size	_ZThn32_N5boost16exception_detail19error_info_injectorINS_10task_movedEED0Ev, .-_ZThn32_N5boost16exception_detail19error_info_injectorINS_10task_movedEED0Ev
	.section	.text._ZN5boost16exception_detail10bad_alloc_D0Ev,"axG",@progbits,_ZN5boost16exception_detail10bad_alloc_D5Ev,comdat
	.p2align 4,,15
	.weak	_ZThn40_N5boost16exception_detail10bad_alloc_D0Ev
	.type	_ZThn40_N5boost16exception_detail10bad_alloc_D0Ev, @function
_ZThn40_N5boost16exception_detail10bad_alloc_D0Ev:
.LFB14521:
	.cfi_startproc
	pushq	%rbx
	.cfi_def_cfa_offset 16
	.cfi_offset 3, -16
	leaq	-40(%rdi), %rbx
	movq	%rbx, %rdi
	call	_ZN5boost16exception_detail10bad_alloc_D1Ev
	movq	%rbx, %rdi
	movl	$48, %esi
	popq	%rbx
	.cfi_def_cfa_offset 8
	jmp	_ZdlPvm
	.cfi_endproc
.LFE14521:
	.size	_ZThn40_N5boost16exception_detail10bad_alloc_D0Ev, .-_ZThn40_N5boost16exception_detail10bad_alloc_D0Ev
	.section	.text._ZN5boost16exception_detail19error_info_injectorINS_20future_uninitializedEED0Ev,"axG",@progbits,_ZN5boost16exception_detail19error_info_injectorINS_20future_uninitializedEED5Ev,comdat
	.p2align 4,,15
	.weak	_ZThn32_N5boost16exception_detail19error_info_injectorINS_20future_uninitializedEED0Ev
	.type	_ZThn32_N5boost16exception_detail19error_info_injectorINS_20future_uninitializedEED0Ev, @function
_ZThn32_N5boost16exception_detail19error_info_injectorINS_20future_uninitializedEED0Ev:
.LFB14523:
	.cfi_startproc
	pushq	%rbx
	.cfi_def_cfa_offset 16
	.cfi_offset 3, -16
	leaq	-32(%rdi), %rbx
	movq	%rbx, %rdi
	call	_ZN5boost16exception_detail19error_info_injectorINS_20future_uninitializedEED1Ev
	movq	%rbx, %rdi
	movl	$72, %esi
	popq	%rbx
	.cfi_def_cfa_offset 8
	jmp	_ZdlPvm
	.cfi_endproc
.LFE14523:
	.size	_ZThn32_N5boost16exception_detail19error_info_injectorINS_20future_uninitializedEED0Ev, .-_ZThn32_N5boost16exception_detail19error_info_injectorINS_20future_uninitializedEED0Ev
	.section	.text._ZN5boost16exception_detail39current_exception_std_exception_wrapperISt12out_of_rangeED0Ev,"axG",@progbits,_ZN5boost16exception_detail39current_exception_std_exception_wrapperISt12out_of_rangeED5Ev,comdat
	.p2align 4,,15
	.weak	_ZThn16_N5boost16exception_detail39current_exception_std_exception_wrapperISt12out_of_rangeED0Ev
	.type	_ZThn16_N5boost16exception_detail39current_exception_std_exception_wrapperISt12out_of_rangeED0Ev, @function
_ZThn16_N5boost16exception_detail39current_exception_std_exception_wrapperISt12out_of_rangeED0Ev:
.LFB14526:
	.cfi_startproc
	pushq	%rbx
	.cfi_def_cfa_offset 16
	.cfi_offset 3, -16
	leaq	-16(%rdi), %rbx
	movq	%rbx, %rdi
	call	_ZN5boost16exception_detail39current_exception_std_exception_wrapperISt12out_of_rangeED1Ev
	movq	%rbx, %rdi
	movl	$56, %esi
	popq	%rbx
	.cfi_def_cfa_offset 8
	jmp	_ZdlPvm
	.cfi_endproc
.LFE14526:
	.size	_ZThn16_N5boost16exception_detail39current_exception_std_exception_wrapperISt12out_of_rangeED0Ev, .-_ZThn16_N5boost16exception_detail39current_exception_std_exception_wrapperISt12out_of_rangeED0Ev
	.section	.text._ZN5boost16exception_detail39current_exception_std_exception_wrapperISt12length_errorED0Ev,"axG",@progbits,_ZN5boost16exception_detail39current_exception_std_exception_wrapperISt12length_errorED5Ev,comdat
	.p2align 4,,15
	.weak	_ZThn16_N5boost16exception_detail39current_exception_std_exception_wrapperISt12length_errorED0Ev
	.type	_ZThn16_N5boost16exception_detail39current_exception_std_exception_wrapperISt12length_errorED0Ev, @function
