	.file	"1_continuations.cpp"
	.section	.rodata._ZNK5boost12bad_weak_ptr4whatEv.str1.1,"aMS",@progbits,1
.LC0:
	.string	"tr1::bad_weak_ptr"
	.section	.text._ZNK5boost12bad_weak_ptr4whatEv,"axG",@progbits,_ZNK5boost12bad_weak_ptr4whatEv,comdat
	.align 2
	.p2align 4,,15
	.weak	_ZNK5boost12bad_weak_ptr4whatEv
	.type	_ZNK5boost12bad_weak_ptr4whatEv, @function
_ZNK5boost12bad_weak_ptr4whatEv:
.LFB2243:
	.cfi_startproc
	movl	$.LC0, %eax
	ret
	.cfi_endproc
.LFE2243:
	.size	_ZNK5boost12bad_weak_ptr4whatEv, .-_ZNK5boost12bad_weak_ptr4whatEv
	.section	.text._ZN5boost6detail15sp_counted_base7destroyEv,"axG",@progbits,_ZN5boost6detail15sp_counted_base7destroyEv,comdat
	.align 2
	.p2align 4,,15
	.weak	_ZN5boost6detail15sp_counted_base7destroyEv
	.type	_ZN5boost6detail15sp_counted_base7destroyEv, @function
_ZN5boost6detail15sp_counted_base7destroyEv:
.LFB2527:
	.cfi_startproc
	movq	(%rdi), %rax
	jmp	*8(%rax)
	.cfi_endproc
.LFE2527:
	.size	_ZN5boost6detail15sp_counted_base7destroyEv, .-_ZN5boost6detail15sp_counted_base7destroyEv
	.section	.text._ZNK5boost16exception_detail25error_info_container_impl7add_refEv,"axG",@progbits,_ZNK5boost16exception_detail25error_info_container_impl7add_refEv,comdat
	.align 2
	.p2align 4,,15
	.weak	_ZNK5boost16exception_detail25error_info_container_impl7add_refEv
	.type	_ZNK5boost16exception_detail25error_info_container_impl7add_refEv, @function
_ZNK5boost16exception_detail25error_info_container_impl7add_refEv:
.LFB6925:
	.cfi_startproc
	addl	$1, 88(%rdi)
	ret
	.cfi_endproc
.LFE6925:
	.size	_ZNK5boost16exception_detail25error_info_container_impl7add_refEv, .-_ZNK5boost16exception_detail25error_info_container_impl7add_refEv
	.section	.text._ZN5boost6detail17shared_state_base19launch_continuationEv,"axG",@progbits,_ZN5boost6detail17shared_state_base19launch_continuationEv,comdat
	.align 2
	.p2align 4,,15
	.weak	_ZN5boost6detail17shared_state_base19launch_continuationEv
	.type	_ZN5boost6detail17shared_state_base19launch_continuationEv, @function
_ZN5boost6detail17shared_state_base19launch_continuationEv:
.LFB10219:
	.cfi_startproc
	rep ret
	.cfi_endproc
.LFE10219:
	.size	_ZN5boost6detail17shared_state_base19launch_continuationEv, .-_ZN5boost6detail17shared_state_base19launch_continuationEv
	.section	.text._ZN5boost6detail17shared_state_base7executeERNS_11unique_lockINS_5mutexEEE,"axG",@progbits,_ZN5boost6detail17shared_state_base7executeERNS_11unique_lockINS_5mutexEEE,comdat
	.align 2
	.p2align 4,,15
	.weak	_ZN5boost6detail17shared_state_base7executeERNS_11unique_lockINS_5mutexEEE
	.type	_ZN5boost6detail17shared_state_base7executeERNS_11unique_lockINS_5mutexEEE, @function
_ZN5boost6detail17shared_state_base7executeERNS_11unique_lockINS_5mutexEEE:
.LFB10280:
	.cfi_startproc
	rep ret
	.cfi_endproc
.LFE10280:
	.size	_ZN5boost6detail17shared_state_base7executeERNS_11unique_lockINS_5mutexEEE, .-_ZN5boost6detail17shared_state_base7executeERNS_11unique_lockINS_5mutexEEE
	.section	.text._ZNK5boost10shared_ptrIKNS_16exception_detail10clone_baseEE3getEv,"axG",@progbits,_ZNK5boost10shared_ptrIKNS_16exception_detail10clone_baseEE3getEv,comdat
	.align 2
	.p2align 4,,15
	.weak	_ZNK5boost10shared_ptrIKNS_16exception_detail10clone_baseEE3getEv
	.type	_ZNK5boost10shared_ptrIKNS_16exception_detail10clone_baseEE3getEv, @function
_ZNK5boost10shared_ptrIKNS_16exception_detail10clone_baseEE3getEv:
.LFB11216:
	.cfi_startproc
	movq	(%rdi), %rax
	ret
	.cfi_endproc
.LFE11216:
	.size	_ZNK5boost10shared_ptrIKNS_16exception_detail10clone_baseEE3getEv, .-_ZNK5boost10shared_ptrIKNS_16exception_detail10clone_baseEE3getEv
	.section	.text._ZN5boost10error_infoINS_27tag_original_exception_typeEPKSt9type_infoED2Ev,"axG",@progbits,_ZN5boost10error_infoINS_27tag_original_exception_typeEPKSt9type_infoED5Ev,comdat
	.align 2
	.p2align 4,,15
	.weak	_ZN5boost10error_infoINS_27tag_original_exception_typeEPKSt9type_infoED2Ev
	.type	_ZN5boost10error_infoINS_27tag_original_exception_typeEPKSt9type_infoED2Ev, @function
_ZN5boost10error_infoINS_27tag_original_exception_typeEPKSt9type_infoED2Ev:
.LFB11894:
	.cfi_startproc
	rep ret
	.cfi_endproc
.LFE11894:
	.size	_ZN5boost10error_infoINS_27tag_original_exception_typeEPKSt9type_infoED2Ev, .-_ZN5boost10error_infoINS_27tag_original_exception_typeEPKSt9type_infoED2Ev
	.weak	_ZN5boost10error_infoINS_27tag_original_exception_typeEPKSt9type_infoED1Ev
	.set	_ZN5boost10error_infoINS_27tag_original_exception_typeEPKSt9type_infoED1Ev,_ZN5boost10error_infoINS_27tag_original_exception_typeEPKSt9type_infoED2Ev
	.section	.text._ZN5boost9function0IvE5dummy7nonnullEv,"axG",@progbits,_ZN5boost9function0IvE5dummy7nonnullEv,comdat
	.align 2
	.p2align 4,,15
	.weak	_ZN5boost9function0IvE5dummy7nonnullEv
	.type	_ZN5boost9function0IvE5dummy7nonnullEv, @function
_ZN5boost9function0IvE5dummy7nonnullEv:
.LFB12223:
	.cfi_startproc
	rep ret
	.cfi_endproc
.LFE12223:
	.size	_ZN5boost9function0IvE5dummy7nonnullEv, .-_ZN5boost9function0IvE5dummy7nonnullEv
	.section	.text._ZN5boost6detail17sp_counted_impl_pINS0_11thread_dataINS_13packaged_taskIiEEEEED2Ev,"axG",@progbits,_ZN5boost6detail17sp_counted_impl_pINS0_11thread_dataINS_13packaged_taskIiEEEEED5Ev,comdat
	.align 2
	.p2align 4,,15
	.weak	_ZN5boost6detail17sp_counted_impl_pINS0_11thread_dataINS_13packaged_taskIiEEEEED2Ev
	.type	_ZN5boost6detail17sp_counted_impl_pINS0_11thread_dataINS_13packaged_taskIiEEEEED2Ev, @function
_ZN5boost6detail17sp_counted_impl_pINS0_11thread_dataINS_13packaged_taskIiEEEEED2Ev:
.LFB13952:
	.cfi_startproc
	rep ret
	.cfi_endproc
.LFE13952:
	.size	_ZN5boost6detail17sp_counted_impl_pINS0_11thread_dataINS_13packaged_taskIiEEEEED2Ev, .-_ZN5boost6detail17sp_counted_impl_pINS0_11thread_dataINS_13packaged_taskIiEEEEED2Ev
	.weak	_ZN5boost6detail17sp_counted_impl_pINS0_11thread_dataINS_13packaged_taskIiEEEEED1Ev
	.set	_ZN5boost6detail17sp_counted_impl_pINS0_11thread_dataINS_13packaged_taskIiEEEEED1Ev,_ZN5boost6detail17sp_counted_impl_pINS0_11thread_dataINS_13packaged_taskIiEEEEED2Ev
	.section	.text._ZN5boost6detail17sp_counted_impl_pINS_10error_infoINS_27tag_original_exception_typeEPKSt9type_infoEEED2Ev,"axG",@progbits,_ZN5boost6detail17sp_counted_impl_pINS_10error_infoINS_27tag_original_exception_typeEPKSt9type_infoEEED5Ev,comdat
	.align 2
	.p2align 4,,15
	.weak	_ZN5boost6detail17sp_counted_impl_pINS_10error_infoINS_27tag_original_exception_typeEPKSt9type_infoEEED2Ev
	.type	_ZN5boost6detail17sp_counted_impl_pINS_10error_infoINS_27tag_original_exception_typeEPKSt9type_infoEEED2Ev, @function
_ZN5boost6detail17sp_counted_impl_pINS_10error_infoINS_27tag_original_exception_typeEPKSt9type_infoEEED2Ev:
.LFB13956:
	.cfi_startproc
	rep ret
	.cfi_endproc
.LFE13956:
	.size	_ZN5boost6detail17sp_counted_impl_pINS_10error_infoINS_27tag_original_exception_typeEPKSt9type_infoEEED2Ev, .-_ZN5boost6detail17sp_counted_impl_pINS_10error_infoINS_27tag_original_exception_typeEPKSt9type_infoEEED2Ev
	.weak	_ZN5boost6detail17sp_counted_impl_pINS_10error_infoINS_27tag_original_exception_typeEPKSt9type_infoEEED1Ev
	.set	_ZN5boost6detail17sp_counted_impl_pINS_10error_infoINS_27tag_original_exception_typeEPKSt9type_infoEEED1Ev,_ZN5boost6detail17sp_counted_impl_pINS_10error_infoINS_27tag_original_exception_typeEPKSt9type_infoEEED2Ev
	.text
	.align 2
	.p2align 4,,15
	.type	_ZN5boost6detail17sp_counted_impl_pINS0_41future_deferred_continuation_shared_stateINS_6futureIiEEiZ4mainEUlT_E0_EEED2Ev, @function
_ZN5boost6detail17sp_counted_impl_pINS0_41future_deferred_continuation_shared_stateINS_6futureIiEEiZ4mainEUlT_E0_EEED2Ev:
.LFB13960:
	.cfi_startproc
	rep ret
	.cfi_endproc
.LFE13960:
	.size	_ZN5boost6detail17sp_counted_impl_pINS0_41future_deferred_continuation_shared_stateINS_6futureIiEEiZ4mainEUlT_E0_EEED2Ev, .-_ZN5boost6detail17sp_counted_impl_pINS0_41future_deferred_continuation_shared_stateINS_6futureIiEEiZ4mainEUlT_E0_EEED2Ev
	.set	_ZN5boost6detail17sp_counted_impl_pINS0_41future_deferred_continuation_shared_stateINS_6futureIiEEiZ4mainEUlT_E0_EEED1Ev,_ZN5boost6detail17sp_counted_impl_pINS0_41future_deferred_continuation_shared_stateINS_6futureIiEEiZ4mainEUlT_E0_EEED2Ev
	.align 2
	.p2align 4,,15
	.type	_ZN5boost6detail17sp_counted_impl_pINS0_38future_async_continuation_shared_stateINS_6futureIiEEiZ4mainEUlT_E0_EEED2Ev, @function
_ZN5boost6detail17sp_counted_impl_pINS0_38future_async_continuation_shared_stateINS_6futureIiEEiZ4mainEUlT_E0_EEED2Ev:
.LFB13964:
	.cfi_startproc
	rep ret
	.cfi_endproc
.LFE13964:
	.size	_ZN5boost6detail17sp_counted_impl_pINS0_38future_async_continuation_shared_stateINS_6futureIiEEiZ4mainEUlT_E0_EEED2Ev, .-_ZN5boost6detail17sp_counted_impl_pINS0_38future_async_continuation_shared_stateINS_6futureIiEEiZ4mainEUlT_E0_EEED2Ev
	.set	_ZN5boost6detail17sp_counted_impl_pINS0_38future_async_continuation_shared_stateINS_6futureIiEEiZ4mainEUlT_E0_EEED1Ev,_ZN5boost6detail17sp_counted_impl_pINS0_38future_async_continuation_shared_stateINS_6futureIiEEiZ4mainEUlT_E0_EEED2Ev
	.align 2
	.p2align 4,,15
	.type	_ZN5boost6detail17sp_counted_impl_pINS0_17task_shared_stateIZ4mainEUlvE_iEEED2Ev, @function
_ZN5boost6detail17sp_counted_impl_pINS0_17task_shared_stateIZ4mainEUlvE_iEEED2Ev:
.LFB13968:
	.cfi_startproc
	rep ret
	.cfi_endproc
.LFE13968:
	.size	_ZN5boost6detail17sp_counted_impl_pINS0_17task_shared_stateIZ4mainEUlvE_iEEED2Ev, .-_ZN5boost6detail17sp_counted_impl_pINS0_17task_shared_stateIZ4mainEUlvE_iEEED2Ev
	.set	_ZN5boost6detail17sp_counted_impl_pINS0_17task_shared_stateIZ4mainEUlvE_iEEED1Ev,_ZN5boost6detail17sp_counted_impl_pINS0_17task_shared_stateIZ4mainEUlvE_iEEED2Ev
	.section	.text._ZN5boost6detail17sp_counted_impl_pINS_16exception_detail10clone_implINS2_14bad_exception_EEEED2Ev,"axG",@progbits,_ZN5boost6detail17sp_counted_impl_pINS_16exception_detail10clone_implINS2_14bad_exception_EEEED5Ev,comdat
	.align 2
	.p2align 4,,15
	.weak	_ZN5boost6detail17sp_counted_impl_pINS_16exception_detail10clone_implINS2_14bad_exception_EEEED2Ev
	.type	_ZN5boost6detail17sp_counted_impl_pINS_16exception_detail10clone_implINS2_14bad_exception_EEEED2Ev, @function
_ZN5boost6detail17sp_counted_impl_pINS_16exception_detail10clone_implINS2_14bad_exception_EEEED2Ev:
.LFB13976:
	.cfi_startproc
	rep ret
	.cfi_endproc
.LFE13976:
	.size	_ZN5boost6detail17sp_counted_impl_pINS_16exception_detail10clone_implINS2_14bad_exception_EEEED2Ev, .-_ZN5boost6detail17sp_counted_impl_pINS_16exception_detail10clone_implINS2_14bad_exception_EEEED2Ev
	.weak	_ZN5boost6detail17sp_counted_impl_pINS_16exception_detail10clone_implINS2_14bad_exception_EEEED1Ev
	.set	_ZN5boost6detail17sp_counted_impl_pINS_16exception_detail10clone_implINS2_14bad_exception_EEEED1Ev,_ZN5boost6detail17sp_counted_impl_pINS_16exception_detail10clone_implINS2_14bad_exception_EEEED2Ev
	.section	.text._ZN5boost6detail17sp_counted_impl_pINS_16exception_detail10clone_implINS2_10bad_alloc_EEEED2Ev,"axG",@progbits,_ZN5boost6detail17sp_counted_impl_pINS_16exception_detail10clone_implINS2_10bad_alloc_EEEED5Ev,comdat
	.align 2
	.p2align 4,,15
	.weak	_ZN5boost6detail17sp_counted_impl_pINS_16exception_detail10clone_implINS2_10bad_alloc_EEEED2Ev
	.type	_ZN5boost6detail17sp_counted_impl_pINS_16exception_detail10clone_implINS2_10bad_alloc_EEEED2Ev, @function
_ZN5boost6detail17sp_counted_impl_pINS_16exception_detail10clone_implINS2_10bad_alloc_EEEED2Ev:
.LFB13980:
	.cfi_startproc
	rep ret
	.cfi_endproc
.LFE13980:
	.size	_ZN5boost6detail17sp_counted_impl_pINS_16exception_detail10clone_implINS2_10bad_alloc_EEEED2Ev, .-_ZN5boost6detail17sp_counted_impl_pINS_16exception_detail10clone_implINS2_10bad_alloc_EEEED2Ev
	.weak	_ZN5boost6detail17sp_counted_impl_pINS_16exception_detail10clone_implINS2_10bad_alloc_EEEED1Ev
	.set	_ZN5boost6detail17sp_counted_impl_pINS_16exception_detail10clone_implINS2_10bad_alloc_EEEED1Ev,_ZN5boost6detail17sp_counted_impl_pINS_16exception_detail10clone_implINS2_10bad_alloc_EEEED2Ev
	.section	.text._ZN5boost6detail17sp_counted_impl_pIKNS_16exception_detail10clone_baseEED2Ev,"axG",@progbits,_ZN5boost6detail17sp_counted_impl_pIKNS_16exception_detail10clone_baseEED5Ev,comdat
	.align 2
	.p2align 4,,15
	.weak	_ZN5boost6detail17sp_counted_impl_pIKNS_16exception_detail10clone_baseEED2Ev
	.type	_ZN5boost6detail17sp_counted_impl_pIKNS_16exception_detail10clone_baseEED2Ev, @function
_ZN5boost6detail17sp_counted_impl_pIKNS_16exception_detail10clone_baseEED2Ev:
.LFB13992:
	.cfi_startproc
	rep ret
	.cfi_endproc
.LFE13992:
	.size	_ZN5boost6detail17sp_counted_impl_pIKNS_16exception_detail10clone_baseEED2Ev, .-_ZN5boost6detail17sp_counted_impl_pIKNS_16exception_detail10clone_baseEED2Ev
	.weak	_ZN5boost6detail17sp_counted_impl_pIKNS_16exception_detail10clone_baseEED1Ev
	.set	_ZN5boost6detail17sp_counted_impl_pIKNS_16exception_detail10clone_baseEED1Ev,_ZN5boost6detail17sp_counted_impl_pIKNS_16exception_detail10clone_baseEED2Ev
	.section	.text._ZN5boost6detail17sp_counted_impl_pINS0_11thread_dataINS_13packaged_taskIiEEEEE7disposeEv,"axG",@progbits,_ZN5boost6detail17sp_counted_impl_pINS0_11thread_dataINS_13packaged_taskIiEEEEE7disposeEv,comdat
	.align 2
	.p2align 4,,15
	.weak	_ZN5boost6detail17sp_counted_impl_pINS0_11thread_dataINS_13packaged_taskIiEEEEE7disposeEv
	.type	_ZN5boost6detail17sp_counted_impl_pINS0_11thread_dataINS_13packaged_taskIiEEEEE7disposeEv, @function
_ZN5boost6detail17sp_counted_impl_pINS0_11thread_dataINS_13packaged_taskIiEEEEE7disposeEv:
.LFB14040:
	.cfi_startproc
	movq	16(%rdi), %rdi
	testq	%rdi, %rdi
	je	.L18
	movq	(%rdi), %rax
	jmp	*8(%rax)
	.p2align 4,,10
	.p2align 3
.L18:
	rep ret
	.cfi_endproc
.LFE14040:
	.size	_ZN5boost6detail17sp_counted_impl_pINS0_11thread_dataINS_13packaged_taskIiEEEEE7disposeEv, .-_ZN5boost6detail17sp_counted_impl_pINS0_11thread_dataINS_13packaged_taskIiEEEEE7disposeEv
	.section	.text._ZN5boost6detail17sp_counted_impl_pINS0_11thread_dataINS_13packaged_taskIiEEEEE11get_deleterERKSt9type_info,"axG",@progbits,_ZN5boost6detail17sp_counted_impl_pINS0_11thread_dataINS_13packaged_taskIiEEEEE11get_deleterERKSt9type_info,comdat
	.align 2
	.p2align 4,,15
	.weak	_ZN5boost6detail17sp_counted_impl_pINS0_11thread_dataINS_13packaged_taskIiEEEEE11get_deleterERKSt9type_info
	.type	_ZN5boost6detail17sp_counted_impl_pINS0_11thread_dataINS_13packaged_taskIiEEEEE11get_deleterERKSt9type_info, @function
_ZN5boost6detail17sp_counted_impl_pINS0_11thread_dataINS_13packaged_taskIiEEEEE11get_deleterERKSt9type_info:
.LFB14041:
	.cfi_startproc
	xorl	%eax, %eax
	ret
	.cfi_endproc
.LFE14041:
	.size	_ZN5boost6detail17sp_counted_impl_pINS0_11thread_dataINS_13packaged_taskIiEEEEE11get_deleterERKSt9type_info, .-_ZN5boost6detail17sp_counted_impl_pINS0_11thread_dataINS_13packaged_taskIiEEEEE11get_deleterERKSt9type_info
	.section	.text._ZN5boost6detail17sp_counted_impl_pINS0_11thread_dataINS_13packaged_taskIiEEEEE19get_untyped_deleterEv,"axG",@progbits,_ZN5boost6detail17sp_counted_impl_pINS0_11thread_dataINS_13packaged_taskIiEEEEE19get_untyped_deleterEv,comdat
	.align 2
	.p2align 4,,15
	.weak	_ZN5boost6detail17sp_counted_impl_pINS0_11thread_dataINS_13packaged_taskIiEEEEE19get_untyped_deleterEv
	.type	_ZN5boost6detail17sp_counted_impl_pINS0_11thread_dataINS_13packaged_taskIiEEEEE19get_untyped_deleterEv, @function
_ZN5boost6detail17sp_counted_impl_pINS0_11thread_dataINS_13packaged_taskIiEEEEE19get_untyped_deleterEv:
.LFB14042:
	.cfi_startproc
	xorl	%eax, %eax
	ret
	.cfi_endproc
.LFE14042:
	.size	_ZN5boost6detail17sp_counted_impl_pINS0_11thread_dataINS_13packaged_taskIiEEEEE19get_untyped_deleterEv, .-_ZN5boost6detail17sp_counted_impl_pINS0_11thread_dataINS_13packaged_taskIiEEEEE19get_untyped_deleterEv
	.section	.text._ZN5boost6detail17sp_counted_impl_pINS_10error_infoINS_27tag_original_exception_typeEPKSt9type_infoEEE11get_deleterERS5_,"axG",@progbits,_ZN5boost6detail17sp_counted_impl_pINS_10error_infoINS_27tag_original_exception_typeEPKSt9type_infoEEE11get_deleterERS5_,comdat
	.align 2
	.p2align 4,,15
	.weak	_ZN5boost6detail17sp_counted_impl_pINS_10error_infoINS_27tag_original_exception_typeEPKSt9type_infoEEE11get_deleterERS5_
	.type	_ZN5boost6detail17sp_counted_impl_pINS_10error_infoINS_27tag_original_exception_typeEPKSt9type_infoEEE11get_deleterERS5_, @function
_ZN5boost6detail17sp_counted_impl_pINS_10error_infoINS_27tag_original_exception_typeEPKSt9type_infoEEE11get_deleterERS5_:
.LFB14044:
	.cfi_startproc
	xorl	%eax, %eax
	ret
	.cfi_endproc
.LFE14044:
	.size	_ZN5boost6detail17sp_counted_impl_pINS_10error_infoINS_27tag_original_exception_typeEPKSt9type_infoEEE11get_deleterERS5_, .-_ZN5boost6detail17sp_counted_impl_pINS_10error_infoINS_27tag_original_exception_typeEPKSt9type_infoEEE11get_deleterERS5_
	.section	.text._ZN5boost6detail17sp_counted_impl_pINS_10error_infoINS_27tag_original_exception_typeEPKSt9type_infoEEE19get_untyped_deleterEv,"axG",@progbits,_ZN5boost6detail17sp_counted_impl_pINS_10error_infoINS_27tag_original_exception_typeEPKSt9type_infoEEE19get_untyped_deleterEv,comdat
	.align 2
	.p2align 4,,15
	.weak	_ZN5boost6detail17sp_counted_impl_pINS_10error_infoINS_27tag_original_exception_typeEPKSt9type_infoEEE19get_untyped_deleterEv
	.type	_ZN5boost6detail17sp_counted_impl_pINS_10error_infoINS_27tag_original_exception_typeEPKSt9type_infoEEE19get_untyped_deleterEv, @function
_ZN5boost6detail17sp_counted_impl_pINS_10error_infoINS_27tag_original_exception_typeEPKSt9type_infoEEE19get_untyped_deleterEv:
.LFB14045:
	.cfi_startproc
	xorl	%eax, %eax
	ret
	.cfi_endproc
.LFE14045:
	.size	_ZN5boost6detail17sp_counted_impl_pINS_10error_infoINS_27tag_original_exception_typeEPKSt9type_infoEEE19get_untyped_deleterEv, .-_ZN5boost6detail17sp_counted_impl_pINS_10error_infoINS_27tag_original_exception_typeEPKSt9type_infoEEE19get_untyped_deleterEv
	.text
	.align 2
	.p2align 4,,15
	.type	_ZN5boost6detail17sp_counted_impl_pINS0_17task_shared_stateIZ4mainEUlvE_iEEE11get_deleterERKSt9type_info, @function
_ZN5boost6detail17sp_counted_impl_pINS0_17task_shared_stateIZ4mainEUlvE_iEEE11get_deleterERKSt9type_info:
.LFB14053:
	.cfi_startproc
	xorl	%eax, %eax
	ret
	.cfi_endproc
.LFE14053:
	.size	_ZN5boost6detail17sp_counted_impl_pINS0_17task_shared_stateIZ4mainEUlvE_iEEE11get_deleterERKSt9type_info, .-_ZN5boost6detail17sp_counted_impl_pINS0_17task_shared_stateIZ4mainEUlvE_iEEE11get_deleterERKSt9type_info
	.set	_ZN5boost6detail17sp_counted_impl_pINS0_11thread_dataINS_3_bi6bind_tIvPFvNS_10shared_ptrINS0_17shared_state_baseEEEENS3_5list1INS3_5valueINS5_INS0_38future_async_continuation_shared_stateINS_6futureIiEEiZ4mainEUlT_E0_EEEEEEEEEEEEE11get_deleterERKSt9type_info,_ZN5boost6detail17sp_counted_impl_pINS0_17task_shared_stateIZ4mainEUlvE_iEEE11get_deleterERKSt9type_info
	.set	_ZN5boost6detail17sp_counted_impl_pINS0_41future_deferred_continuation_shared_stateINS_6futureIiEEiZ4mainEUlT_E0_EEE11get_deleterERKSt9type_info,_ZN5boost6detail17sp_counted_impl_pINS0_17task_shared_stateIZ4mainEUlvE_iEEE11get_deleterERKSt9type_info
	.set	_ZN5boost6detail17sp_counted_impl_pINS0_38future_async_continuation_shared_stateINS_6futureIiEEiZ4mainEUlT_E0_EEE11get_deleterERKSt9type_info,_ZN5boost6detail17sp_counted_impl_pINS0_17task_shared_stateIZ4mainEUlvE_iEEE11get_deleterERKSt9type_info
	.align 2
	.p2align 4,,15
	.type	_ZN5boost6detail17sp_counted_impl_pINS0_17task_shared_stateIZ4mainEUlvE_iEEE19get_untyped_deleterEv, @function
_ZN5boost6detail17sp_counted_impl_pINS0_17task_shared_stateIZ4mainEUlvE_iEEE19get_untyped_deleterEv:
.LFB14054:
	.cfi_startproc
	xorl	%eax, %eax
	ret
	.cfi_endproc
.LFE14054:
	.size	_ZN5boost6detail17sp_counted_impl_pINS0_17task_shared_stateIZ4mainEUlvE_iEEE19get_untyped_deleterEv, .-_ZN5boost6detail17sp_counted_impl_pINS0_17task_shared_stateIZ4mainEUlvE_iEEE19get_untyped_deleterEv
	.set	_ZN5boost6detail17sp_counted_impl_pINS0_11thread_dataINS_3_bi6bind_tIvPFvNS_10shared_ptrINS0_17shared_state_baseEEEENS3_5list1INS3_5valueINS5_INS0_38future_async_continuation_shared_stateINS_6futureIiEEiZ4mainEUlT_E0_EEEEEEEEEEEEE19get_untyped_deleterEv,_ZN5boost6detail17sp_counted_impl_pINS0_17task_shared_stateIZ4mainEUlvE_iEEE19get_untyped_deleterEv
	.set	_ZN5boost6detail17sp_counted_impl_pINS0_41future_deferred_continuation_shared_stateINS_6futureIiEEiZ4mainEUlT_E0_EEE19get_untyped_deleterEv,_ZN5boost6detail17sp_counted_impl_pINS0_17task_shared_stateIZ4mainEUlvE_iEEE19get_untyped_deleterEv
	.set	_ZN5boost6detail17sp_counted_impl_pINS0_38future_async_continuation_shared_stateINS_6futureIiEEiZ4mainEUlT_E0_EEE19get_untyped_deleterEv,_ZN5boost6detail17sp_counted_impl_pINS0_17task_shared_stateIZ4mainEUlvE_iEEE19get_untyped_deleterEv
	.section	.text._ZN5boost6detail17sp_counted_impl_pINS_16exception_detail10clone_implINS2_14bad_exception_EEEE11get_deleterERKSt9type_info,"axG",@progbits,_ZN5boost6detail17sp_counted_impl_pINS_16exception_detail10clone_implINS2_14bad_exception_EEEE11get_deleterERKSt9type_info,comdat
	.align 2
	.p2align 4,,15
	.weak	_ZN5boost6detail17sp_counted_impl_pINS_16exception_detail10clone_implINS2_14bad_exception_EEEE11get_deleterERKSt9type_info
	.type	_ZN5boost6detail17sp_counted_impl_pINS_16exception_detail10clone_implINS2_14bad_exception_EEEE11get_deleterERKSt9type_info, @function
_ZN5boost6detail17sp_counted_impl_pINS_16exception_detail10clone_implINS2_14bad_exception_EEEE11get_deleterERKSt9type_info:
.LFB14065:
	.cfi_startproc
	xorl	%eax, %eax
	ret
	.cfi_endproc
.LFE14065:
	.size	_ZN5boost6detail17sp_counted_impl_pINS_16exception_detail10clone_implINS2_14bad_exception_EEEE11get_deleterERKSt9type_info, .-_ZN5boost6detail17sp_counted_impl_pINS_16exception_detail10clone_implINS2_14bad_exception_EEEE11get_deleterERKSt9type_info
	.section	.text._ZN5boost6detail17sp_counted_impl_pINS_16exception_detail10clone_implINS2_14bad_exception_EEEE19get_untyped_deleterEv,"axG",@progbits,_ZN5boost6detail17sp_counted_impl_pINS_16exception_detail10clone_implINS2_14bad_exception_EEEE19get_untyped_deleterEv,comdat
	.align 2
	.p2align 4,,15
	.weak	_ZN5boost6detail17sp_counted_impl_pINS_16exception_detail10clone_implINS2_14bad_exception_EEEE19get_untyped_deleterEv
	.type	_ZN5boost6detail17sp_counted_impl_pINS_16exception_detail10clone_implINS2_14bad_exception_EEEE19get_untyped_deleterEv, @function
_ZN5boost6detail17sp_counted_impl_pINS_16exception_detail10clone_implINS2_14bad_exception_EEEE19get_untyped_deleterEv:
.LFB14066:
	.cfi_startproc
	xorl	%eax, %eax
	ret
	.cfi_endproc
.LFE14066:
	.size	_ZN5boost6detail17sp_counted_impl_pINS_16exception_detail10clone_implINS2_14bad_exception_EEEE19get_untyped_deleterEv, .-_ZN5boost6detail17sp_counted_impl_pINS_16exception_detail10clone_implINS2_14bad_exception_EEEE19get_untyped_deleterEv
	.section	.text._ZN5boost6detail17sp_counted_impl_pINS_16exception_detail10clone_implINS2_10bad_alloc_EEEE11get_deleterERKSt9type_info,"axG",@progbits,_ZN5boost6detail17sp_counted_impl_pINS_16exception_detail10clone_implINS2_10bad_alloc_EEEE11get_deleterERKSt9type_info,comdat
	.align 2
	.p2align 4,,15
	.weak	_ZN5boost6detail17sp_counted_impl_pINS_16exception_detail10clone_implINS2_10bad_alloc_EEEE11get_deleterERKSt9type_info
	.type	_ZN5boost6detail17sp_counted_impl_pINS_16exception_detail10clone_implINS2_10bad_alloc_EEEE11get_deleterERKSt9type_info, @function
_ZN5boost6detail17sp_counted_impl_pINS_16exception_detail10clone_implINS2_10bad_alloc_EEEE11get_deleterERKSt9type_info:
.LFB14068:
	.cfi_startproc
	xorl	%eax, %eax
	ret
	.cfi_endproc
.LFE14068:
	.size	_ZN5boost6detail17sp_counted_impl_pINS_16exception_detail10clone_implINS2_10bad_alloc_EEEE11get_deleterERKSt9type_info, .-_ZN5boost6detail17sp_counted_impl_pINS_16exception_detail10clone_implINS2_10bad_alloc_EEEE11get_deleterERKSt9type_info
	.section	.text._ZN5boost6detail17sp_counted_impl_pINS_16exception_detail10clone_implINS2_10bad_alloc_EEEE19get_untyped_deleterEv,"axG",@progbits,_ZN5boost6detail17sp_counted_impl_pINS_16exception_detail10clone_implINS2_10bad_alloc_EEEE19get_untyped_deleterEv,comdat
	.align 2
	.p2align 4,,15
	.weak	_ZN5boost6detail17sp_counted_impl_pINS_16exception_detail10clone_implINS2_10bad_alloc_EEEE19get_untyped_deleterEv
	.type	_ZN5boost6detail17sp_counted_impl_pINS_16exception_detail10clone_implINS2_10bad_alloc_EEEE19get_untyped_deleterEv, @function
_ZN5boost6detail17sp_counted_impl_pINS_16exception_detail10clone_implINS2_10bad_alloc_EEEE19get_untyped_deleterEv:
.LFB14069:
	.cfi_startproc
	xorl	%eax, %eax
	ret
	.cfi_endproc
.LFE14069:
	.size	_ZN5boost6detail17sp_counted_impl_pINS_16exception_detail10clone_implINS2_10bad_alloc_EEEE19get_untyped_deleterEv, .-_ZN5boost6detail17sp_counted_impl_pINS_16exception_detail10clone_implINS2_10bad_alloc_EEEE19get_untyped_deleterEv
	.text
	.align 2
	.p2align 4,,15
	.type	_ZN5boost6detail41future_deferred_continuation_shared_stateINS_6futureIiEEiZ4mainEUlT_E0_E19launch_continuationEv, @function
_ZN5boost6detail41future_deferred_continuation_shared_stateINS_6futureIiEEiZ4mainEUlT_E0_E19launch_continuationEv:
.LFB14090:
	.cfi_startproc
	rep ret
	.cfi_endproc
.LFE14090:
	.size	_ZN5boost6detail41future_deferred_continuation_shared_stateINS_6futureIiEEiZ4mainEUlT_E0_E19launch_continuationEv, .-_ZN5boost6detail41future_deferred_continuation_shared_stateINS_6futureIiEEiZ4mainEUlT_E0_E19launch_continuationEv
	.section	.text._ZN5boost6detail17sp_counted_impl_pIKNS_16exception_detail10clone_baseEE7disposeEv,"axG",@progbits,_ZN5boost6detail17sp_counted_impl_pIKNS_16exception_detail10clone_baseEE7disposeEv,comdat
	.align 2
	.p2align 4,,15
	.weak	_ZN5boost6detail17sp_counted_impl_pIKNS_16exception_detail10clone_baseEE7disposeEv
	.type	_ZN5boost6detail17sp_counted_impl_pIKNS_16exception_detail10clone_baseEE7disposeEv, @function
_ZN5boost6detail17sp_counted_impl_pIKNS_16exception_detail10clone_baseEE7disposeEv:
.LFB14103:
	.cfi_startproc
	movq	16(%rdi), %rdi
	testq	%rdi, %rdi
	je	.L31
	movq	(%rdi), %rax
	jmp	*24(%rax)
	.p2align 4,,10
	.p2align 3
.L31:
	rep ret
	.cfi_endproc
.LFE14103:
	.size	_ZN5boost6detail17sp_counted_impl_pIKNS_16exception_detail10clone_baseEE7disposeEv, .-_ZN5boost6detail17sp_counted_impl_pIKNS_16exception_detail10clone_baseEE7disposeEv
	.section	.text._ZN5boost6detail17sp_counted_impl_pIKNS_16exception_detail10clone_baseEE11get_deleterERKSt9type_info,"axG",@progbits,_ZN5boost6detail17sp_counted_impl_pIKNS_16exception_detail10clone_baseEE11get_deleterERKSt9type_info,comdat
	.align 2
	.p2align 4,,15
	.weak	_ZN5boost6detail17sp_counted_impl_pIKNS_16exception_detail10clone_baseEE11get_deleterERKSt9type_info
	.type	_ZN5boost6detail17sp_counted_impl_pIKNS_16exception_detail10clone_baseEE11get_deleterERKSt9type_info, @function
_ZN5boost6detail17sp_counted_impl_pIKNS_16exception_detail10clone_baseEE11get_deleterERKSt9type_info:
.LFB14104:
	.cfi_startproc
	xorl	%eax, %eax
	ret
	.cfi_endproc
.LFE14104:
	.size	_ZN5boost6detail17sp_counted_impl_pIKNS_16exception_detail10clone_baseEE11get_deleterERKSt9type_info, .-_ZN5boost6detail17sp_counted_impl_pIKNS_16exception_detail10clone_baseEE11get_deleterERKSt9type_info
	.section	.text._ZN5boost6detail17sp_counted_impl_pIKNS_16exception_detail10clone_baseEE19get_untyped_deleterEv,"axG",@progbits,_ZN5boost6detail17sp_counted_impl_pIKNS_16exception_detail10clone_baseEE19get_untyped_deleterEv,comdat
	.align 2
	.p2align 4,,15
	.weak	_ZN5boost6detail17sp_counted_impl_pIKNS_16exception_detail10clone_baseEE19get_untyped_deleterEv
	.type	_ZN5boost6detail17sp_counted_impl_pIKNS_16exception_detail10clone_baseEE19get_untyped_deleterEv, @function
_ZN5boost6detail17sp_counted_impl_pIKNS_16exception_detail10clone_baseEE19get_untyped_deleterEv:
.LFB14105:
	.cfi_startproc
	xorl	%eax, %eax
	ret
	.cfi_endproc
.LFE14105:
	.size	_ZN5boost6detail17sp_counted_impl_pIKNS_16exception_detail10clone_baseEE19get_untyped_deleterEv, .-_ZN5boost6detail17sp_counted_impl_pIKNS_16exception_detail10clone_baseEE19get_untyped_deleterEv
	.text
	.align 2
	.p2align 4,,15
	.type	_ZN5boost6detail17sp_counted_impl_pINS0_11thread_dataINS_3_bi6bind_tIvPFvNS_10shared_ptrINS0_17shared_state_baseEEEENS3_5list1INS3_5valueINS5_INS0_38future_async_continuation_shared_stateINS_6futureIiEEiZ4mainEUlT_E0_EEEEEEEEEEEEED2Ev, @function
_ZN5boost6detail17sp_counted_impl_pINS0_11thread_dataINS_3_bi6bind_tIvPFvNS_10shared_ptrINS0_17shared_state_baseEEEENS3_5list1INS3_5valueINS5_INS0_38future_async_continuation_shared_stateINS_6futureIiEEiZ4mainEUlT_E0_EEEEEEEEEEEEED2Ev:
.LFB14506:
	.cfi_startproc
	rep ret
	.cfi_endproc
.LFE14506:
	.size	_ZN5boost6detail17sp_counted_impl_pINS0_11thread_dataINS_3_bi6bind_tIvPFvNS_10shared_ptrINS0_17shared_state_baseEEEENS3_5list1INS3_5valueINS5_INS0_38future_async_continuation_shared_stateINS_6futureIiEEiZ4mainEUlT_E0_EEEEEEEEEEEEED2Ev, .-_ZN5boost6detail17sp_counted_impl_pINS0_11thread_dataINS_3_bi6bind_tIvPFvNS_10shared_ptrINS0_17shared_state_baseEEEENS3_5list1INS3_5valueINS5_INS0_38future_async_continuation_shared_stateINS_6futureIiEEiZ4mainEUlT_E0_EEEEEEEEEEEEED2Ev
	.set	_ZN5boost6detail17sp_counted_impl_pINS0_11thread_dataINS_3_bi6bind_tIvPFvNS_10shared_ptrINS0_17shared_state_baseEEEENS3_5list1INS3_5valueINS5_INS0_38future_async_continuation_shared_stateINS_6futureIiEEiZ4mainEUlT_E0_EEEEEEEEEEEEED1Ev,_ZN5boost6detail17sp_counted_impl_pINS0_11thread_dataINS_3_bi6bind_tIvPFvNS_10shared_ptrINS0_17shared_state_baseEEEENS3_5list1INS3_5valueINS5_INS0_38future_async_continuation_shared_stateINS_6futureIiEEiZ4mainEUlT_E0_EEEEEEEEEEEEED2Ev
	.section	.text._ZN5boost6detail17sp_counted_impl_pINS0_11thread_dataINS_13packaged_taskIiEEEEED0Ev,"axG",@progbits,_ZN5boost6detail17sp_counted_impl_pINS0_11thread_dataINS_13packaged_taskIiEEEEED5Ev,comdat
	.align 2
	.p2align 4,,15
	.weak	_ZN5boost6detail17sp_counted_impl_pINS0_11thread_dataINS_13packaged_taskIiEEEEED0Ev
	.type	_ZN5boost6detail17sp_counted_impl_pINS0_11thread_dataINS_13packaged_taskIiEEEEED0Ev, @function
_ZN5boost6detail17sp_counted_impl_pINS0_11thread_dataINS_13packaged_taskIiEEEEED0Ev:
.LFB13954:
	.cfi_startproc
	movl	$24, %esi
	jmp	_ZdlPvm
	.cfi_endproc
.LFE13954:
	.size	_ZN5boost6detail17sp_counted_impl_pINS0_11thread_dataINS_13packaged_taskIiEEEEED0Ev, .-_ZN5boost6detail17sp_counted_impl_pINS0_11thread_dataINS_13packaged_taskIiEEEEED0Ev
	.section	.text._ZN5boost6detail17sp_counted_impl_pINS_10error_infoINS_27tag_original_exception_typeEPKSt9type_infoEEED0Ev,"axG",@progbits,_ZN5boost6detail17sp_counted_impl_pINS_10error_infoINS_27tag_original_exception_typeEPKSt9type_infoEEED5Ev,comdat
	.align 2
	.p2align 4,,15
	.weak	_ZN5boost6detail17sp_counted_impl_pINS_10error_infoINS_27tag_original_exception_typeEPKSt9type_infoEEED0Ev
	.type	_ZN5boost6detail17sp_counted_impl_pINS_10error_infoINS_27tag_original_exception_typeEPKSt9type_infoEEED0Ev, @function
_ZN5boost6detail17sp_counted_impl_pINS_10error_infoINS_27tag_original_exception_typeEPKSt9type_infoEEED0Ev:
.LFB13958:
	.cfi_startproc
	movl	$24, %esi
	jmp	_ZdlPvm
	.cfi_endproc
.LFE13958:
	.size	_ZN5boost6detail17sp_counted_impl_pINS_10error_infoINS_27tag_original_exception_typeEPKSt9type_infoEEED0Ev, .-_ZN5boost6detail17sp_counted_impl_pINS_10error_infoINS_27tag_original_exception_typeEPKSt9type_infoEEED0Ev
	.section	.text._ZN5boost6detail17sp_counted_impl_pINS_16exception_detail10clone_implINS2_14bad_exception_EEEED0Ev,"axG",@progbits,_ZN5boost6detail17sp_counted_impl_pINS_16exception_detail10clone_implINS2_14bad_exception_EEEED5Ev,comdat
	.align 2
	.p2align 4,,15
	.weak	_ZN5boost6detail17sp_counted_impl_pINS_16exception_detail10clone_implINS2_14bad_exception_EEEED0Ev
	.type	_ZN5boost6detail17sp_counted_impl_pINS_16exception_detail10clone_implINS2_14bad_exception_EEEED0Ev, @function
_ZN5boost6detail17sp_counted_impl_pINS_16exception_detail10clone_implINS2_14bad_exception_EEEED0Ev:
.LFB13978:
	.cfi_startproc
	movl	$24, %esi
	jmp	_ZdlPvm
	.cfi_endproc
.LFE13978:
	.size	_ZN5boost6detail17sp_counted_impl_pINS_16exception_detail10clone_implINS2_14bad_exception_EEEED0Ev, .-_ZN5boost6detail17sp_counted_impl_pINS_16exception_detail10clone_implINS2_14bad_exception_EEEED0Ev
	.section	.text._ZN5boost6detail17sp_counted_impl_pINS_16exception_detail10clone_implINS2_10bad_alloc_EEEED0Ev,"axG",@progbits,_ZN5boost6detail17sp_counted_impl_pINS_16exception_detail10clone_implINS2_10bad_alloc_EEEED5Ev,comdat
	.align 2
	.p2align 4,,15
	.weak	_ZN5boost6detail17sp_counted_impl_pINS_16exception_detail10clone_implINS2_10bad_alloc_EEEED0Ev
	.type	_ZN5boost6detail17sp_counted_impl_pINS_16exception_detail10clone_implINS2_10bad_alloc_EEEED0Ev, @function
_ZN5boost6detail17sp_counted_impl_pINS_16exception_detail10clone_implINS2_10bad_alloc_EEEED0Ev:
.LFB13982:
	.cfi_startproc
	movl	$24, %esi
	jmp	_ZdlPvm
	.cfi_endproc
.LFE13982:
	.size	_ZN5boost6detail17sp_counted_impl_pINS_16exception_detail10clone_implINS2_10bad_alloc_EEEED0Ev, .-_ZN5boost6detail17sp_counted_impl_pINS_16exception_detail10clone_implINS2_10bad_alloc_EEEED0Ev
	.section	.text._ZN5boost6detail17sp_counted_impl_pIKNS_16exception_detail10clone_baseEED0Ev,"axG",@progbits,_ZN5boost6detail17sp_counted_impl_pIKNS_16exception_detail10clone_baseEED5Ev,comdat
	.align 2
	.p2align 4,,15
	.weak	_ZN5boost6detail17sp_counted_impl_pIKNS_16exception_detail10clone_baseEED0Ev
	.type	_ZN5boost6detail17sp_counted_impl_pIKNS_16exception_detail10clone_baseEED0Ev, @function
_ZN5boost6detail17sp_counted_impl_pIKNS_16exception_detail10clone_baseEED0Ev:
.LFB13994:
	.cfi_startproc
	movl	$24, %esi
	jmp	_ZdlPvm
	.cfi_endproc
.LFE13994:
	.size	_ZN5boost6detail17sp_counted_impl_pIKNS_16exception_detail10clone_baseEED0Ev, .-_ZN5boost6detail17sp_counted_impl_pIKNS_16exception_detail10clone_baseEED0Ev
	.text
	.align 2
	.p2align 4,,15
	.type	_ZN5boost6detail17sp_counted_impl_pINS0_17task_shared_stateIZ4mainEUlvE_iEEED0Ev, @function
_ZN5boost6detail17sp_counted_impl_pINS0_17task_shared_stateIZ4mainEUlvE_iEEED0Ev:
.LFB13970:
	.cfi_startproc
	movl	$24, %esi
	jmp	_ZdlPvm
	.cfi_endproc
.LFE13970:
	.size	_ZN5boost6detail17sp_counted_impl_pINS0_17task_shared_stateIZ4mainEUlvE_iEEED0Ev, .-_ZN5boost6detail17sp_counted_impl_pINS0_17task_shared_stateIZ4mainEUlvE_iEEED0Ev
	.align 2
	.p2align 4,,15
	.type	_ZN5boost6detail17sp_counted_impl_pINS0_41future_deferred_continuation_shared_stateINS_6futureIiEEiZ4mainEUlT_E0_EEED0Ev, @function
_ZN5boost6detail17sp_counted_impl_pINS0_41future_deferred_continuation_shared_stateINS_6futureIiEEiZ4mainEUlT_E0_EEED0Ev:
.LFB13962:
	.cfi_startproc
	movl	$24, %esi
	jmp	_ZdlPvm
	.cfi_endproc
.LFE13962:
	.size	_ZN5boost6detail17sp_counted_impl_pINS0_41future_deferred_continuation_shared_stateINS_6futureIiEEiZ4mainEUlT_E0_EEED0Ev, .-_ZN5boost6detail17sp_counted_impl_pINS0_41future_deferred_continuation_shared_stateINS_6futureIiEEiZ4mainEUlT_E0_EEED0Ev
	.align 2
	.p2align 4,,15
	.type	_ZN5boost6detail17sp_counted_impl_pINS0_11thread_dataINS_3_bi6bind_tIvPFvNS_10shared_ptrINS0_17shared_state_baseEEEENS3_5list1INS3_5valueINS5_INS0_38future_async_continuation_shared_stateINS_6futureIiEEiZ4mainEUlT_E0_EEEEEEEEEEEEED0Ev, @function
_ZN5boost6detail17sp_counted_impl_pINS0_11thread_dataINS_3_bi6bind_tIvPFvNS_10shared_ptrINS0_17shared_state_baseEEEENS3_5list1INS3_5valueINS5_INS0_38future_async_continuation_shared_stateINS_6futureIiEEiZ4mainEUlT_E0_EEEEEEEEEEEEED0Ev:
.LFB14508:
	.cfi_startproc
	movl	$24, %esi
	jmp	_ZdlPvm
	.cfi_endproc
.LFE14508:
	.size	_ZN5boost6detail17sp_counted_impl_pINS0_11thread_dataINS_3_bi6bind_tIvPFvNS_10shared_ptrINS0_17shared_state_baseEEEENS3_5list1INS3_5valueINS5_INS0_38future_async_continuation_shared_stateINS_6futureIiEEiZ4mainEUlT_E0_EEEEEEEEEEEEED0Ev, .-_ZN5boost6detail17sp_counted_impl_pINS0_11thread_dataINS_3_bi6bind_tIvPFvNS_10shared_ptrINS0_17shared_state_baseEEEENS3_5list1INS3_5valueINS5_INS0_38future_async_continuation_shared_stateINS_6futureIiEEiZ4mainEUlT_E0_EEEEEEEEEEEEED0Ev
	.align 2
	.p2align 4,,15
	.type	_ZN5boost6detail17sp_counted_impl_pINS0_38future_async_continuation_shared_stateINS_6futureIiEEiZ4mainEUlT_E0_EEED0Ev, @function
_ZN5boost6detail17sp_counted_impl_pINS0_38future_async_continuation_shared_stateINS_6futureIiEEiZ4mainEUlT_E0_EEED0Ev:
.LFB13966:
	.cfi_startproc
	movl	$24, %esi
	jmp	_ZdlPvm
	.cfi_endproc
.LFE13966:
	.size	_ZN5boost6detail17sp_counted_impl_pINS0_38future_async_continuation_shared_stateINS_6futureIiEEiZ4mainEUlT_E0_EEED0Ev, .-_ZN5boost6detail17sp_counted_impl_pINS0_38future_async_continuation_shared_stateINS_6futureIiEEiZ4mainEUlT_E0_EEED0Ev
	.section	.text._ZN5boost10error_infoINS_27tag_original_exception_typeEPKSt9type_infoED0Ev,"axG",@progbits,_ZN5boost10error_infoINS_27tag_original_exception_typeEPKSt9type_infoED5Ev,comdat
	.align 2
	.p2align 4,,15
	.weak	_ZN5boost10error_infoINS_27tag_original_exception_typeEPKSt9type_infoED0Ev
	.type	_ZN5boost10error_infoINS_27tag_original_exception_typeEPKSt9type_infoED0Ev, @function
_ZN5boost10error_infoINS_27tag_original_exception_typeEPKSt9type_infoED0Ev:
.LFB11896:
	.cfi_startproc
	movl	$16, %esi
	jmp	_ZdlPvm
	.cfi_endproc
.LFE11896:
	.size	_ZN5boost10error_infoINS_27tag_original_exception_typeEPKSt9type_infoED0Ev, .-_ZN5boost10error_infoINS_27tag_original_exception_typeEPKSt9type_infoED0Ev
	.section	.text._ZN5boost17bad_function_callD2Ev,"axG",@progbits,_ZN5boost17bad_function_callD5Ev,comdat
	.align 2
	.p2align 4,,15
	.weak	_ZN5boost17bad_function_callD2Ev
	.type	_ZN5boost17bad_function_callD2Ev, @function
_ZN5boost17bad_function_callD2Ev:
.LFB11419:
	.cfi_startproc
	movq	$_ZTVN5boost17bad_function_callE+16, (%rdi)
	jmp	_ZNSt13runtime_errorD2Ev
	.cfi_endproc
.LFE11419:
	.size	_ZN5boost17bad_function_callD2Ev, .-_ZN5boost17bad_function_callD2Ev
	.weak	_ZN5boost17bad_function_callD1Ev
	.set	_ZN5boost17bad_function_callD1Ev,_ZN5boost17bad_function_callD2Ev
	.section	.text._ZN5boost17bad_function_callD0Ev,"axG",@progbits,_ZN5boost17bad_function_callD5Ev,comdat
	.align 2
	.p2align 4,,15
	.weak	_ZN5boost17bad_function_callD0Ev
	.type	_ZN5boost17bad_function_callD0Ev, @function
_ZN5boost17bad_function_callD0Ev:
.LFB11421:
	.cfi_startproc
	pushq	%rbx
	.cfi_def_cfa_offset 16
	.cfi_offset 3, -16
	movq	%rdi, %rbx
	movq	$_ZTVN5boost17bad_function_callE+16, (%rdi)
	call	_ZNSt13runtime_errorD2Ev
	movq	%rbx, %rdi
	movl	$16, %esi
	popq	%rbx
	.cfi_def_cfa_offset 8
	jmp	_ZdlPvm
	.cfi_endproc
.LFE11421:
	.size	_ZN5boost17bad_function_callD0Ev, .-_ZN5boost17bad_function_callD0Ev
	.section	.text._ZN5boost16exception_detail19error_info_injectorINS_17bad_function_callEED2Ev,"axG",@progbits,_ZN5boost16exception_detail19error_info_injectorINS_17bad_function_callEED5Ev,comdat
	.align 2
	.p2align 4,,15
	.weak	_ZN5boost16exception_detail19error_info_injectorINS_17bad_function_callEED2Ev
	.type	_ZN5boost16exception_detail19error_info_injectorINS_17bad_function_callEED2Ev, @function
_ZN5boost16exception_detail19error_info_injectorINS_17bad_function_callEED2Ev:
.LFB12839:
	.cfi_startproc
	.cfi_personality 0x3,__gxx_personality_v0
	.cfi_lsda 0x3,.LLSDA12839
	pushq	%rbx
	.cfi_def_cfa_offset 16
	.cfi_offset 3, -16
	movq	%rdi, %rbx
	movq	$_ZTVN5boost16exception_detail19error_info_injectorINS_17bad_function_callEEE+16, (%rdi)
	movq	$_ZTVN5boost9exceptionE+16, 16(%rdi)
	movq	24(%rdi), %rdi
	testq	%rdi, %rdi
	je	.L50
	movq	(%rdi), %rax
	call	*32(%rax)
.L50:
	movq	$_ZTVN5boost17bad_function_callE+16, (%rbx)
	movq	%rbx, %rdi
	popq	%rbx
	.cfi_def_cfa_offset 8
	jmp	_ZNSt13runtime_errorD2Ev
	.cfi_endproc
.LFE12839:
	.globl	__gxx_personality_v0
	.section	.gcc_except_table._ZN5boost16exception_detail19error_info_injectorINS_17bad_function_callEED2Ev,"aG",@progbits,_ZN5boost16exception_detail19error_info_injectorINS_17bad_function_callEED5Ev,comdat
.LLSDA12839:
	.byte	0xff
	.byte	0xff
	.byte	0x1
	.uleb128 .LLSDACSE12839-.LLSDACSB12839
.LLSDACSB12839:
.LLSDACSE12839:
	.section	.text._ZN5boost16exception_detail19error_info_injectorINS_17bad_function_callEED2Ev,"axG",@progbits,_ZN5boost16exception_detail19error_info_injectorINS_17bad_function_callEED5Ev,comdat
	.size	_ZN5boost16exception_detail19error_info_injectorINS_17bad_function_callEED2Ev, .-_ZN5boost16exception_detail19error_info_injectorINS_17bad_function_callEED2Ev
	.weak	_ZN5boost16exception_detail19error_info_injectorINS_17bad_function_callEED1Ev
	.set	_ZN5boost16exception_detail19error_info_injectorINS_17bad_function_callEED1Ev,_ZN5boost16exception_detail19error_info_injectorINS_17bad_function_callEED2Ev
	.set	.LTHUNK164,_ZN5boost16exception_detail19error_info_injectorINS_17bad_function_callEED1Ev
	.p2align 4,,15
	.weak	_ZThn16_N5boost16exception_detail19error_info_injectorINS_17bad_function_callEED1Ev
	.type	_ZThn16_N5boost16exception_detail19error_info_injectorINS_17bad_function_callEED1Ev, @function
_ZThn16_N5boost16exception_detail19error_info_injectorINS_17bad_function_callEED1Ev:
.LFB15038:
	.cfi_startproc
	subq	$16, %rdi
	jmp	.LTHUNK164
	.cfi_endproc
.LFE15038:
	.size	_ZThn16_N5boost16exception_detail19error_info_injectorINS_17bad_function_callEED1Ev, .-_ZThn16_N5boost16exception_detail19error_info_injectorINS_17bad_function_callEED1Ev
	.section	.text._ZN5boost16exception_detail19error_info_injectorINS_17bad_function_callEED0Ev,"axG",@progbits,_ZN5boost16exception_detail19error_info_injectorINS_17bad_function_callEED5Ev,comdat
	.align 2
	.p2align 4,,15
	.weak	_ZN5boost16exception_detail19error_info_injectorINS_17bad_function_callEED0Ev
	.type	_ZN5boost16exception_detail19error_info_injectorINS_17bad_function_callEED0Ev, @function
_ZN5boost16exception_detail19error_info_injectorINS_17bad_function_callEED0Ev:
.LFB12841:
	.cfi_startproc
	pushq	%rbx
	.cfi_def_cfa_offset 16
	.cfi_offset 3, -16
	movq	%rdi, %rbx
	call	_ZN5boost16exception_detail19error_info_injectorINS_17bad_function_callEED1Ev
	movq	%rbx, %rdi
	movl	$56, %esi
	popq	%rbx
	.cfi_def_cfa_offset 8
	jmp	_ZdlPvm
	.cfi_endproc
.LFE12841:
	.size	_ZN5boost16exception_detail19error_info_injectorINS_17bad_function_callEED0Ev, .-_ZN5boost16exception_detail19error_info_injectorINS_17bad_function_callEED0Ev
	.section	.text._ZN5boost16exception_detail10clone_implINS0_19error_info_injectorINS_17bad_function_callEEEED1Ev,"axG",@progbits,_ZN5boost16exception_detail10clone_implINS0_19error_info_injectorINS_17bad_function_callEEEED1Ev,comdat
	.align 2
	.p2align 4,,15
	.weak	_ZN5boost16exception_detail10clone_implINS0_19error_info_injectorINS_17bad_function_callEEEED1Ev
	.type	_ZN5boost16exception_detail10clone_implINS0_19error_info_injectorINS_17bad_function_callEEEED1Ev, @function
_ZN5boost16exception_detail10clone_implINS0_19error_info_injectorINS_17bad_function_callEEEED1Ev:
.LFB12845:
	.cfi_startproc
	movq	$_ZTVN5boost16exception_detail10clone_implINS0_19error_info_injectorINS_17bad_function_callEEEEE+24, (%rdi)
	movq	$_ZTVN5boost16exception_detail10clone_implINS0_19error_info_injectorINS_17bad_function_callEEEEE+80, 16(%rdi)
	movq	$_ZTVN5boost16exception_detail10clone_implINS0_19error_info_injectorINS_17bad_function_callEEEEE+136, 56(%rdi)
	jmp	_ZN5boost16exception_detail19error_info_injectorINS_17bad_function_callEED2Ev
	.cfi_endproc
.LFE12845:
	.size	_ZN5boost16exception_detail10clone_implINS0_19error_info_injectorINS_17bad_function_callEEEED1Ev, .-_ZN5boost16exception_detail10clone_implINS0_19error_info_injectorINS_17bad_function_callEEEED1Ev
	.section	.text._ZN5boost16exception_detail10clone_implINS0_19error_info_injectorINS_17bad_function_callEEEED0Ev,"axG",@progbits,_ZN5boost16exception_detail10clone_implINS0_19error_info_injectorINS_17bad_function_callEEEED0Ev,comdat
	.align 2
	.p2align 4,,15
	.weak	_ZN5boost16exception_detail10clone_implINS0_19error_info_injectorINS_17bad_function_callEEEED0Ev
	.type	_ZN5boost16exception_detail10clone_implINS0_19error_info_injectorINS_17bad_function_callEEEED0Ev, @function
_ZN5boost16exception_detail10clone_implINS0_19error_info_injectorINS_17bad_function_callEEEED0Ev:
.LFB12846:
	.cfi_startproc
	pushq	%rbx
	.cfi_def_cfa_offset 16
	.cfi_offset 3, -16
	movq	%rdi, %rbx
	movq	$_ZTVN5boost16exception_detail10clone_implINS0_19error_info_injectorINS_17bad_function_callEEEEE+24, (%rdi)
	movq	$_ZTVN5boost16exception_detail10clone_implINS0_19error_info_injectorINS_17bad_function_callEEEEE+80, 16(%rdi)
	movq	$_ZTVN5boost16exception_detail10clone_implINS0_19error_info_injectorINS_17bad_function_callEEEEE+136, 56(%rdi)
	call	_ZN5boost16exception_detail19error_info_injectorINS_17bad_function_callEED2Ev
	movq	%rbx, %rdi
	movl	$64, %esi
	popq	%rbx
	.cfi_def_cfa_offset 8
	jmp	_ZdlPvm
	.cfi_endproc
.LFE12846:
	.size	_ZN5boost16exception_detail10clone_implINS0_19error_info_injectorINS_17bad_function_callEEEED0Ev, .-_ZN5boost16exception_detail10clone_implINS0_19error_info_injectorINS_17bad_function_callEEEED0Ev
	.section	.text._ZN5boost16exception_detail39current_exception_std_exception_wrapperISt13runtime_errorED2Ev,"axG",@progbits,_ZN5boost16exception_detail39current_exception_std_exception_wrapperISt13runtime_errorED5Ev,comdat
	.align 2
	.p2align 4,,15
	.weak	_ZN5boost16exception_detail39current_exception_std_exception_wrapperISt13runtime_errorED2Ev
	.type	_ZN5boost16exception_detail39current_exception_std_exception_wrapperISt13runtime_errorED2Ev, @function
_ZN5boost16exception_detail39current_exception_std_exception_wrapperISt13runtime_errorED2Ev:
.LFB12075:
	.cfi_startproc
	.cfi_personality 0x3,__gxx_personality_v0
	.cfi_lsda 0x3,.LLSDA12075
	pushq	%rbx
	.cfi_def_cfa_offset 16
	.cfi_offset 3, -16
	movq	%rdi, %rbx
	movq	$_ZTVN5boost16exception_detail39current_exception_std_exception_wrapperISt13runtime_errorEE+16, (%rdi)
	movq	$_ZTVN5boost9exceptionE+16, 16(%rdi)
	movq	24(%rdi), %rdi
	testq	%rdi, %rdi
	je	.L61
	movq	(%rdi), %rax
	call	*32(%rax)
.L61:
	movq	%rbx, %rdi
	popq	%rbx
	.cfi_def_cfa_offset 8
	jmp	_ZNSt13runtime_errorD2Ev
	.cfi_endproc
.LFE12075:
	.section	.gcc_except_table._ZN5boost16exception_detail39current_exception_std_exception_wrapperISt13runtime_errorED2Ev,"aG",@progbits,_ZN5boost16exception_detail39current_exception_std_exception_wrapperISt13runtime_errorED5Ev,comdat
.LLSDA12075:
	.byte	0xff
	.byte	0xff
	.byte	0x1
	.uleb128 .LLSDACSE12075-.LLSDACSB12075
.LLSDACSB12075:
.LLSDACSE12075:
	.section	.text._ZN5boost16exception_detail39current_exception_std_exception_wrapperISt13runtime_errorED2Ev,"axG",@progbits,_ZN5boost16exception_detail39current_exception_std_exception_wrapperISt13runtime_errorED5Ev,comdat
	.size	_ZN5boost16exception_detail39current_exception_std_exception_wrapperISt13runtime_errorED2Ev, .-_ZN5boost16exception_detail39current_exception_std_exception_wrapperISt13runtime_errorED2Ev
	.weak	_ZN5boost16exception_detail39current_exception_std_exception_wrapperISt13runtime_errorED1Ev
	.set	_ZN5boost16exception_detail39current_exception_std_exception_wrapperISt13runtime_errorED1Ev,_ZN5boost16exception_detail39current_exception_std_exception_wrapperISt13runtime_errorED2Ev
	.set	.LTHUNK78,_ZN5boost16exception_detail39current_exception_std_exception_wrapperISt13runtime_errorED1Ev
	.p2align 4,,15
	.weak	_ZThn16_N5boost16exception_detail39current_exception_std_exception_wrapperISt13runtime_errorED1Ev
	.type	_ZThn16_N5boost16exception_detail39current_exception_std_exception_wrapperISt13runtime_errorED1Ev, @function
_ZThn16_N5boost16exception_detail39current_exception_std_exception_wrapperISt13runtime_errorED1Ev:
.LFB15042:
	.cfi_startproc
	subq	$16, %rdi
	jmp	.LTHUNK78
	.cfi_endproc
.LFE15042:
	.size	_ZThn16_N5boost16exception_detail39current_exception_std_exception_wrapperISt13runtime_errorED1Ev, .-_ZThn16_N5boost16exception_detail39current_exception_std_exception_wrapperISt13runtime_errorED1Ev
	.section	.text._ZN5boost16exception_detail39current_exception_std_exception_wrapperISt13runtime_errorED0Ev,"axG",@progbits,_ZN5boost16exception_detail39current_exception_std_exception_wrapperISt13runtime_errorED5Ev,comdat
	.align 2
	.p2align 4,,15
	.weak	_ZN5boost16exception_detail39current_exception_std_exception_wrapperISt13runtime_errorED0Ev
	.type	_ZN5boost16exception_detail39current_exception_std_exception_wrapperISt13runtime_errorED0Ev, @function
_ZN5boost16exception_detail39current_exception_std_exception_wrapperISt13runtime_errorED0Ev:
.LFB12077:
	.cfi_startproc
	pushq	%rbx
	.cfi_def_cfa_offset 16
	.cfi_offset 3, -16
	movq	%rdi, %rbx
	call	_ZN5boost16exception_detail39current_exception_std_exception_wrapperISt13runtime_errorED1Ev
	movq	%rbx, %rdi
	movl	$56, %esi
	popq	%rbx
	.cfi_def_cfa_offset 8
	jmp	_ZdlPvm
	.cfi_endproc
.LFE12077:
	.size	_ZN5boost16exception_detail39current_exception_std_exception_wrapperISt13runtime_errorED0Ev, .-_ZN5boost16exception_detail39current_exception_std_exception_wrapperISt13runtime_errorED0Ev
	.section	.text._ZN5boost16exception_detail10clone_implINS0_39current_exception_std_exception_wrapperISt13runtime_errorEEED1Ev,"axG",@progbits,_ZN5boost16exception_detail10clone_implINS0_39current_exception_std_exception_wrapperISt13runtime_errorEEED1Ev,comdat
	.align 2
	.p2align 4,,15
	.weak	_ZN5boost16exception_detail10clone_implINS0_39current_exception_std_exception_wrapperISt13runtime_errorEEED1Ev
	.type	_ZN5boost16exception_detail10clone_implINS0_39current_exception_std_exception_wrapperISt13runtime_errorEEED1Ev, @function
_ZN5boost16exception_detail10clone_implINS0_39current_exception_std_exception_wrapperISt13runtime_errorEEED1Ev:
.LFB12748:
	.cfi_startproc
	movq	$_ZTVN5boost16exception_detail10clone_implINS0_39current_exception_std_exception_wrapperISt13runtime_errorEEEE+24, (%rdi)
	movq	$_ZTVN5boost16exception_detail10clone_implINS0_39current_exception_std_exception_wrapperISt13runtime_errorEEEE+80, 16(%rdi)
	movq	$_ZTVN5boost16exception_detail10clone_implINS0_39current_exception_std_exception_wrapperISt13runtime_errorEEEE+136, 56(%rdi)
	jmp	_ZN5boost16exception_detail39current_exception_std_exception_wrapperISt13runtime_errorED2Ev
	.cfi_endproc
.LFE12748:
	.size	_ZN5boost16exception_detail10clone_implINS0_39current_exception_std_exception_wrapperISt13runtime_errorEEED1Ev, .-_ZN5boost16exception_detail10clone_implINS0_39current_exception_std_exception_wrapperISt13runtime_errorEEED1Ev
	.section	.text._ZN5boost16exception_detail10clone_implINS0_39current_exception_std_exception_wrapperISt13runtime_errorEEED0Ev,"axG",@progbits,_ZN5boost16exception_detail10clone_implINS0_39current_exception_std_exception_wrapperISt13runtime_errorEEED0Ev,comdat
	.align 2
	.p2align 4,,15
	.weak	_ZN5boost16exception_detail10clone_implINS0_39current_exception_std_exception_wrapperISt13runtime_errorEEED0Ev
	.type	_ZN5boost16exception_detail10clone_implINS0_39current_exception_std_exception_wrapperISt13runtime_errorEEED0Ev, @function
_ZN5boost16exception_detail10clone_implINS0_39current_exception_std_exception_wrapperISt13runtime_errorEEED0Ev:
.LFB12749:
	.cfi_startproc
	pushq	%rbx
	.cfi_def_cfa_offset 16
	.cfi_offset 3, -16
	movq	%rdi, %rbx
	movq	$_ZTVN5boost16exception_detail10clone_implINS0_39current_exception_std_exception_wrapperISt13runtime_errorEEEE+24, (%rdi)
	movq	$_ZTVN5boost16exception_detail10clone_implINS0_39current_exception_std_exception_wrapperISt13runtime_errorEEEE+80, 16(%rdi)
	movq	$_ZTVN5boost16exception_detail10clone_implINS0_39current_exception_std_exception_wrapperISt13runtime_errorEEEE+136, 56(%rdi)
	call	_ZN5boost16exception_detail39current_exception_std_exception_wrapperISt13runtime_errorED2Ev
	movq	%rbx, %rdi
	movl	$64, %esi
	popq	%rbx
	.cfi_def_cfa_offset 8
	jmp	_ZdlPvm
	.cfi_endproc
.LFE12749:
	.size	_ZN5boost16exception_detail10clone_implINS0_39current_exception_std_exception_wrapperISt13runtime_errorEEED0Ev, .-_ZN5boost16exception_detail10clone_implINS0_39current_exception_std_exception_wrapperISt13runtime_errorEEED0Ev
	.section	.text._ZN5boost6system12system_errorD2Ev,"axG",@progbits,_ZN5boost6system12system_errorD5Ev,comdat
	.align 2
	.p2align 4,,15
	.weak	_ZN5boost6system12system_errorD2Ev
	.type	_ZN5boost6system12system_errorD2Ev, @function
_ZN5boost6system12system_errorD2Ev:
.LFB6097:
	.cfi_startproc
	pushq	%rbx
	.cfi_def_cfa_offset 16
	.cfi_offset 3, -16
	movq	%rdi, %rbx
	movq	$_ZTVN5boost6system12system_errorE+16, (%rdi)
	movq	32(%rdi), %rdi
	leaq	48(%rbx), %rax
	cmpq	%rax, %rdi
	je	.L72
	call	_ZdlPv
.L72:
	movq	%rbx, %rdi
	popq	%rbx
	.cfi_def_cfa_offset 8
	jmp	_ZNSt13runtime_errorD2Ev
	.cfi_endproc
.LFE6097:
	.size	_ZN5boost6system12system_errorD2Ev, .-_ZN5boost6system12system_errorD2Ev
	.weak	_ZN5boost6system12system_errorD1Ev
	.set	_ZN5boost6system12system_errorD1Ev,_ZN5boost6system12system_errorD2Ev
	.section	.text._ZN5boost6system12system_errorD0Ev,"axG",@progbits,_ZN5boost6system12system_errorD5Ev,comdat
	.align 2
	.p2align 4,,15
	.weak	_ZN5boost6system12system_errorD0Ev
	.type	_ZN5boost6system12system_errorD0Ev, @function
_ZN5boost6system12system_errorD0Ev:
.LFB6099:
	.cfi_startproc
	pushq	%rbx
	.cfi_def_cfa_offset 16
	.cfi_offset 3, -16
	movq	%rdi, %rbx
	call	_ZN5boost6system12system_errorD1Ev
	movq	%rbx, %rdi
	movl	$64, %esi
	popq	%rbx
	.cfi_def_cfa_offset 8
	jmp	_ZdlPvm
	.cfi_endproc
.LFE6099:
	.size	_ZN5boost6system12system_errorD0Ev, .-_ZN5boost6system12system_errorD0Ev
	.section	.text._ZN5boost16thread_exceptionD2Ev,"axG",@progbits,_ZN5boost16thread_exceptionD5Ev,comdat
	.align 2
	.p2align 4,,15
	.weak	_ZN5boost16thread_exceptionD2Ev
	.type	_ZN5boost16thread_exceptionD2Ev, @function
_ZN5boost16thread_exceptionD2Ev:
.LFB6115:
	.cfi_startproc
	movq	$_ZTVN5boost16thread_exceptionE+16, (%rdi)
	jmp	_ZN5boost6system12system_errorD2Ev
	.cfi_endproc
.LFE6115:
	.size	_ZN5boost16thread_exceptionD2Ev, .-_ZN5boost16thread_exceptionD2Ev
	.weak	_ZN5boost16thread_exceptionD1Ev
	.set	_ZN5boost16thread_exceptionD1Ev,_ZN5boost16thread_exceptionD2Ev
	.section	.text._ZN5boost16thread_exceptionD0Ev,"axG",@progbits,_ZN5boost16thread_exceptionD5Ev,comdat
	.align 2
	.p2align 4,,15
	.weak	_ZN5boost16thread_exceptionD0Ev
	.type	_ZN5boost16thread_exceptionD0Ev, @function
_ZN5boost16thread_exceptionD0Ev:
.LFB6117:
	.cfi_startproc
	pushq	%rbx
	.cfi_def_cfa_offset 16
	.cfi_offset 3, -16
	movq	%rdi, %rbx
	movq	$_ZTVN5boost16thread_exceptionE+16, (%rdi)
	call	_ZN5boost6system12system_errorD2Ev
	movq	%rbx, %rdi
	movl	$64, %esi
	popq	%rbx
	.cfi_def_cfa_offset 8
	jmp	_ZdlPvm
	.cfi_endproc
.LFE6117:
	.size	_ZN5boost16thread_exceptionD0Ev, .-_ZN5boost16thread_exceptionD0Ev
	.section	.text._ZN5boost10lock_errorD2Ev,"axG",@progbits,_ZN5boost10lock_errorD5Ev,comdat
	.align 2
	.p2align 4,,15
	.weak	_ZN5boost10lock_errorD2Ev
	.type	_ZN5boost10lock_errorD2Ev, @function
_ZN5boost10lock_errorD2Ev:
.LFB6144:
	.cfi_startproc
	movq	$_ZTVN5boost16thread_exceptionE+16, (%rdi)
	jmp	_ZN5boost6system12system_errorD2Ev
	.cfi_endproc
.LFE6144:
	.size	_ZN5boost10lock_errorD2Ev, .-_ZN5boost10lock_errorD2Ev
	.weak	_ZN5boost10lock_errorD1Ev
	.set	_ZN5boost10lock_errorD1Ev,_ZN5boost10lock_errorD2Ev
	.section	.text._ZN5boost10lock_errorD0Ev,"axG",@progbits,_ZN5boost10lock_errorD5Ev,comdat
	.align 2
	.p2align 4,,15
	.weak	_ZN5boost10lock_errorD0Ev
	.type	_ZN5boost10lock_errorD0Ev, @function
_ZN5boost10lock_errorD0Ev:
.LFB6146:
	.cfi_startproc
	pushq	%rbx
	.cfi_def_cfa_offset 16
	.cfi_offset 3, -16
	movq	%rdi, %rbx
	movq	$_ZTVN5boost16thread_exceptionE+16, (%rdi)
	call	_ZN5boost6system12system_errorD2Ev
	movq	%rbx, %rdi
	movl	$64, %esi
	popq	%rbx
	.cfi_def_cfa_offset 8
	jmp	_ZdlPvm
	.cfi_endproc
.LFE6146:
	.size	_ZN5boost10lock_errorD0Ev, .-_ZN5boost10lock_errorD0Ev
	.section	.text._ZN5boost16exception_detail19error_info_injectorINS_10lock_errorEED2Ev,"axG",@progbits,_ZN5boost16exception_detail19error_info_injectorINS_10lock_errorEED5Ev,comdat
	.align 2
	.p2align 4,,15
	.weak	_ZN5boost16exception_detail19error_info_injectorINS_10lock_errorEED2Ev
	.type	_ZN5boost16exception_detail19error_info_injectorINS_10lock_errorEED2Ev, @function
_ZN5boost16exception_detail19error_info_injectorINS_10lock_errorEED2Ev:
.LFB11752:
	.cfi_startproc
	.cfi_personality 0x3,__gxx_personality_v0
	.cfi_lsda 0x3,.LLSDA11752
	pushq	%rbx
	.cfi_def_cfa_offset 16
	.cfi_offset 3, -16
	movq	%rdi, %rbx
	movq	$_ZTVN5boost16exception_detail19error_info_injectorINS_10lock_errorEEE+16, (%rdi)
	movq	$_ZTVN5boost9exceptionE+16, 64(%rdi)
	movq	72(%rdi), %rdi
	testq	%rdi, %rdi
	je	.L83
	movq	(%rdi), %rax
	call	*32(%rax)
.L83:
	movq	$_ZTVN5boost16thread_exceptionE+16, (%rbx)
	movq	%rbx, %rdi
	popq	%rbx
	.cfi_def_cfa_offset 8
	jmp	_ZN5boost6system12system_errorD2Ev
	.cfi_endproc
.LFE11752:
	.section	.gcc_except_table._ZN5boost16exception_detail19error_info_injectorINS_10lock_errorEED2Ev,"aG",@progbits,_ZN5boost16exception_detail19error_info_injectorINS_10lock_errorEED5Ev,comdat
.LLSDA11752:
	.byte	0xff
	.byte	0xff
	.byte	0x1
	.uleb128 .LLSDACSE11752-.LLSDACSB11752
.LLSDACSB11752:
.LLSDACSE11752:
	.section	.text._ZN5boost16exception_detail19error_info_injectorINS_10lock_errorEED2Ev,"axG",@progbits,_ZN5boost16exception_detail19error_info_injectorINS_10lock_errorEED5Ev,comdat
	.size	_ZN5boost16exception_detail19error_info_injectorINS_10lock_errorEED2Ev, .-_ZN5boost16exception_detail19error_info_injectorINS_10lock_errorEED2Ev
	.weak	_ZN5boost16exception_detail19error_info_injectorINS_10lock_errorEED1Ev
	.set	_ZN5boost16exception_detail19error_info_injectorINS_10lock_errorEED1Ev,_ZN5boost16exception_detail19error_info_injectorINS_10lock_errorEED2Ev
	.set	.LTHUNK36,_ZN5boost16exception_detail19error_info_injectorINS_10lock_errorEED1Ev
	.p2align 4,,15
	.weak	_ZThn64_N5boost16exception_detail19error_info_injectorINS_10lock_errorEED1Ev
	.type	_ZThn64_N5boost16exception_detail19error_info_injectorINS_10lock_errorEED1Ev, @function
_ZThn64_N5boost16exception_detail19error_info_injectorINS_10lock_errorEED1Ev:
.LFB15046:
	.cfi_startproc
	subq	$64, %rdi
	jmp	.LTHUNK36
	.cfi_endproc
.LFE15046:
	.size	_ZThn64_N5boost16exception_detail19error_info_injectorINS_10lock_errorEED1Ev, .-_ZThn64_N5boost16exception_detail19error_info_injectorINS_10lock_errorEED1Ev
	.section	.text._ZN5boost16exception_detail19error_info_injectorINS_10lock_errorEED0Ev,"axG",@progbits,_ZN5boost16exception_detail19error_info_injectorINS_10lock_errorEED5Ev,comdat
	.align 2
	.p2align 4,,15
	.weak	_ZN5boost16exception_detail19error_info_injectorINS_10lock_errorEED0Ev
	.type	_ZN5boost16exception_detail19error_info_injectorINS_10lock_errorEED0Ev, @function
_ZN5boost16exception_detail19error_info_injectorINS_10lock_errorEED0Ev:
.LFB11754:
	.cfi_startproc
	pushq	%rbx
	.cfi_def_cfa_offset 16
	.cfi_offset 3, -16
	movq	%rdi, %rbx
	call	_ZN5boost16exception_detail19error_info_injectorINS_10lock_errorEED1Ev
	movq	%rbx, %rdi
	movl	$104, %esi
	popq	%rbx
	.cfi_def_cfa_offset 8
	jmp	_ZdlPvm
	.cfi_endproc
.LFE11754:
	.size	_ZN5boost16exception_detail19error_info_injectorINS_10lock_errorEED0Ev, .-_ZN5boost16exception_detail19error_info_injectorINS_10lock_errorEED0Ev
	.section	.text._ZN5boost16exception_detail10clone_implINS0_19error_info_injectorINS_10lock_errorEEEED1Ev,"axG",@progbits,_ZN5boost16exception_detail10clone_implINS0_19error_info_injectorINS_10lock_errorEEEED1Ev,comdat
	.align 2
	.p2align 4,,15
	.weak	_ZN5boost16exception_detail10clone_implINS0_19error_info_injectorINS_10lock_errorEEEED1Ev
	.type	_ZN5boost16exception_detail10clone_implINS0_19error_info_injectorINS_10lock_errorEEEED1Ev, @function
_ZN5boost16exception_detail10clone_implINS0_19error_info_injectorINS_10lock_errorEEEED1Ev:
.LFB11758:
	.cfi_startproc
	movq	$_ZTVN5boost16exception_detail10clone_implINS0_19error_info_injectorINS_10lock_errorEEEEE+24, (%rdi)
	movq	$_ZTVN5boost16exception_detail10clone_implINS0_19error_info_injectorINS_10lock_errorEEEEE+80, 64(%rdi)
	movq	$_ZTVN5boost16exception_detail10clone_implINS0_19error_info_injectorINS_10lock_errorEEEEE+136, 104(%rdi)
	jmp	_ZN5boost16exception_detail19error_info_injectorINS_10lock_errorEED2Ev
	.cfi_endproc
.LFE11758:
	.size	_ZN5boost16exception_detail10clone_implINS0_19error_info_injectorINS_10lock_errorEEEED1Ev, .-_ZN5boost16exception_detail10clone_implINS0_19error_info_injectorINS_10lock_errorEEEED1Ev
	.section	.text._ZN5boost16exception_detail10clone_implINS0_19error_info_injectorINS_10lock_errorEEEED0Ev,"axG",@progbits,_ZN5boost16exception_detail10clone_implINS0_19error_info_injectorINS_10lock_errorEEEED0Ev,comdat
	.align 2
	.p2align 4,,15
	.weak	_ZN5boost16exception_detail10clone_implINS0_19error_info_injectorINS_10lock_errorEEEED0Ev
	.type	_ZN5boost16exception_detail10clone_implINS0_19error_info_injectorINS_10lock_errorEEEED0Ev, @function
_ZN5boost16exception_detail10clone_implINS0_19error_info_injectorINS_10lock_errorEEEED0Ev:
.LFB11759:
	.cfi_startproc
	pushq	%rbx
	.cfi_def_cfa_offset 16
	.cfi_offset 3, -16
	movq	%rdi, %rbx
	movq	$_ZTVN5boost16exception_detail10clone_implINS0_19error_info_injectorINS_10lock_errorEEEEE+24, (%rdi)
	movq	$_ZTVN5boost16exception_detail10clone_implINS0_19error_info_injectorINS_10lock_errorEEEEE+80, 64(%rdi)
	movq	$_ZTVN5boost16exception_detail10clone_implINS0_19error_info_injectorINS_10lock_errorEEEEE+136, 104(%rdi)
	call	_ZN5boost16exception_detail19error_info_injectorINS_10lock_errorEED2Ev
	movq	%rbx, %rdi
	movl	$112, %esi
	popq	%rbx
	.cfi_def_cfa_offset 8
	jmp	_ZdlPvm
	.cfi_endproc
.LFE11759:
	.size	_ZN5boost16exception_detail10clone_implINS0_19error_info_injectorINS_10lock_errorEEEED0Ev, .-_ZN5boost16exception_detail10clone_implINS0_19error_info_injectorINS_10lock_errorEEEED0Ev
	.section	.text._ZN5boost21thread_resource_errorD2Ev,"axG",@progbits,_ZN5boost21thread_resource_errorD5Ev,comdat
	.align 2
	.p2align 4,,15
	.weak	_ZN5boost21thread_resource_errorD2Ev
	.type	_ZN5boost21thread_resource_errorD2Ev, @function
_ZN5boost21thread_resource_errorD2Ev:
.LFB6160:
	.cfi_startproc
	movq	$_ZTVN5boost16thread_exceptionE+16, (%rdi)
	jmp	_ZN5boost6system12system_errorD2Ev
	.cfi_endproc
.LFE6160:
	.size	_ZN5boost21thread_resource_errorD2Ev, .-_ZN5boost21thread_resource_errorD2Ev
	.weak	_ZN5boost21thread_resource_errorD1Ev
	.set	_ZN5boost21thread_resource_errorD1Ev,_ZN5boost21thread_resource_errorD2Ev
	.section	.text._ZN5boost21thread_resource_errorD0Ev,"axG",@progbits,_ZN5boost21thread_resource_errorD5Ev,comdat
	.align 2
	.p2align 4,,15
	.weak	_ZN5boost21thread_resource_errorD0Ev
	.type	_ZN5boost21thread_resource_errorD0Ev, @function
_ZN5boost21thread_resource_errorD0Ev:
.LFB6162:
	.cfi_startproc
	pushq	%rbx
	.cfi_def_cfa_offset 16
	.cfi_offset 3, -16
	movq	%rdi, %rbx
	movq	$_ZTVN5boost16thread_exceptionE+16, (%rdi)
	call	_ZN5boost6system12system_errorD2Ev
	movq	%rbx, %rdi
	movl	$64, %esi
	popq	%rbx
	.cfi_def_cfa_offset 8
	jmp	_ZdlPvm
	.cfi_endproc
.LFE6162:
	.size	_ZN5boost21thread_resource_errorD0Ev, .-_ZN5boost21thread_resource_errorD0Ev
	.section	.text._ZN5boost16exception_detail19error_info_injectorINS_21thread_resource_errorEED2Ev,"axG",@progbits,_ZN5boost16exception_detail19error_info_injectorINS_21thread_resource_errorEED5Ev,comdat
	.align 2
	.p2align 4,,15
	.weak	_ZN5boost16exception_detail19error_info_injectorINS_21thread_resource_errorEED2Ev
	.type	_ZN5boost16exception_detail19error_info_injectorINS_21thread_resource_errorEED2Ev, @function
_ZN5boost16exception_detail19error_info_injectorINS_21thread_resource_errorEED2Ev:
.LFB11742:
	.cfi_startproc
	.cfi_personality 0x3,__gxx_personality_v0
	.cfi_lsda 0x3,.LLSDA11742
	pushq	%rbx
	.cfi_def_cfa_offset 16
	.cfi_offset 3, -16
	movq	%rdi, %rbx
	movq	$_ZTVN5boost16exception_detail19error_info_injectorINS_21thread_resource_errorEEE+16, (%rdi)
	movq	$_ZTVN5boost9exceptionE+16, 64(%rdi)
	movq	72(%rdi), %rdi
	testq	%rdi, %rdi
	je	.L97
	movq	(%rdi), %rax
	call	*32(%rax)
.L97:
	movq	$_ZTVN5boost16thread_exceptionE+16, (%rbx)
	movq	%rbx, %rdi
	popq	%rbx
	.cfi_def_cfa_offset 8
	jmp	_ZN5boost6system12system_errorD2Ev
	.cfi_endproc
.LFE11742:
	.section	.gcc_except_table._ZN5boost16exception_detail19error_info_injectorINS_21thread_resource_errorEED2Ev,"aG",@progbits,_ZN5boost16exception_detail19error_info_injectorINS_21thread_resource_errorEED5Ev,comdat
.LLSDA11742:
	.byte	0xff
	.byte	0xff
	.byte	0x1
	.uleb128 .LLSDACSE11742-.LLSDACSB11742
.LLSDACSB11742:
.LLSDACSE11742:
	.section	.text._ZN5boost16exception_detail19error_info_injectorINS_21thread_resource_errorEED2Ev,"axG",@progbits,_ZN5boost16exception_detail19error_info_injectorINS_21thread_resource_errorEED5Ev,comdat
	.size	_ZN5boost16exception_detail19error_info_injectorINS_21thread_resource_errorEED2Ev, .-_ZN5boost16exception_detail19error_info_injectorINS_21thread_resource_errorEED2Ev
	.weak	_ZN5boost16exception_detail19error_info_injectorINS_21thread_resource_errorEED1Ev
	.set	_ZN5boost16exception_detail19error_info_injectorINS_21thread_resource_errorEED1Ev,_ZN5boost16exception_detail19error_info_injectorINS_21thread_resource_errorEED2Ev
	.set	.LTHUNK30,_ZN5boost16exception_detail19error_info_injectorINS_21thread_resource_errorEED1Ev
	.p2align 4,,15
	.weak	_ZThn64_N5boost16exception_detail19error_info_injectorINS_21thread_resource_errorEED1Ev
	.type	_ZThn64_N5boost16exception_detail19error_info_injectorINS_21thread_resource_errorEED1Ev, @function
_ZThn64_N5boost16exception_detail19error_info_injectorINS_21thread_resource_errorEED1Ev:
.LFB15050:
	.cfi_startproc
	subq	$64, %rdi
	jmp	.LTHUNK30
	.cfi_endproc
.LFE15050:
	.size	_ZThn64_N5boost16exception_detail19error_info_injectorINS_21thread_resource_errorEED1Ev, .-_ZThn64_N5boost16exception_detail19error_info_injectorINS_21thread_resource_errorEED1Ev
	.section	.text._ZN5boost16exception_detail19error_info_injectorINS_21thread_resource_errorEED0Ev,"axG",@progbits,_ZN5boost16exception_detail19error_info_injectorINS_21thread_resource_errorEED5Ev,comdat
	.align 2
	.p2align 4,,15
	.weak	_ZN5boost16exception_detail19error_info_injectorINS_21thread_resource_errorEED0Ev
	.type	_ZN5boost16exception_detail19error_info_injectorINS_21thread_resource_errorEED0Ev, @function
_ZN5boost16exception_detail19error_info_injectorINS_21thread_resource_errorEED0Ev:
.LFB11744:
	.cfi_startproc
	pushq	%rbx
	.cfi_def_cfa_offset 16
	.cfi_offset 3, -16
	movq	%rdi, %rbx
	call	_ZN5boost16exception_detail19error_info_injectorINS_21thread_resource_errorEED1Ev
	movq	%rbx, %rdi
	movl	$104, %esi
	popq	%rbx
	.cfi_def_cfa_offset 8
	jmp	_ZdlPvm
	.cfi_endproc
.LFE11744:
	.size	_ZN5boost16exception_detail19error_info_injectorINS_21thread_resource_errorEED0Ev, .-_ZN5boost16exception_detail19error_info_injectorINS_21thread_resource_errorEED0Ev
	.section	.text._ZN5boost16exception_detail10clone_implINS0_19error_info_injectorINS_21thread_resource_errorEEEED1Ev,"axG",@progbits,_ZN5boost16exception_detail10clone_implINS0_19error_info_injectorINS_21thread_resource_errorEEEED1Ev,comdat
	.align 2
	.p2align 4,,15
	.weak	_ZN5boost16exception_detail10clone_implINS0_19error_info_injectorINS_21thread_resource_errorEEEED1Ev
	.type	_ZN5boost16exception_detail10clone_implINS0_19error_info_injectorINS_21thread_resource_errorEEEED1Ev, @function
_ZN5boost16exception_detail10clone_implINS0_19error_info_injectorINS_21thread_resource_errorEEEED1Ev:
.LFB11748:
	.cfi_startproc
	movq	$_ZTVN5boost16exception_detail10clone_implINS0_19error_info_injectorINS_21thread_resource_errorEEEEE+24, (%rdi)
	movq	$_ZTVN5boost16exception_detail10clone_implINS0_19error_info_injectorINS_21thread_resource_errorEEEEE+80, 64(%rdi)
	movq	$_ZTVN5boost16exception_detail10clone_implINS0_19error_info_injectorINS_21thread_resource_errorEEEEE+136, 104(%rdi)
	jmp	_ZN5boost16exception_detail19error_info_injectorINS_21thread_resource_errorEED2Ev
	.cfi_endproc
.LFE11748:
	.size	_ZN5boost16exception_detail10clone_implINS0_19error_info_injectorINS_21thread_resource_errorEEEED1Ev, .-_ZN5boost16exception_detail10clone_implINS0_19error_info_injectorINS_21thread_resource_errorEEEED1Ev
	.section	.text._ZN5boost16exception_detail10clone_implINS0_19error_info_injectorINS_21thread_resource_errorEEEED0Ev,"axG",@progbits,_ZN5boost16exception_detail10clone_implINS0_19error_info_injectorINS_21thread_resource_errorEEEED0Ev,comdat
	.align 2
	.p2align 4,,15
	.weak	_ZN5boost16exception_detail10clone_implINS0_19error_info_injectorINS_21thread_resource_errorEEEED0Ev
	.type	_ZN5boost16exception_detail10clone_implINS0_19error_info_injectorINS_21thread_resource_errorEEEED0Ev, @function
_ZN5boost16exception_detail10clone_implINS0_19error_info_injectorINS_21thread_resource_errorEEEED0Ev:
.LFB11749:
	.cfi_startproc
	pushq	%rbx
	.cfi_def_cfa_offset 16
	.cfi_offset 3, -16
	movq	%rdi, %rbx
	movq	$_ZTVN5boost16exception_detail10clone_implINS0_19error_info_injectorINS_21thread_resource_errorEEEEE+24, (%rdi)
	movq	$_ZTVN5boost16exception_detail10clone_implINS0_19error_info_injectorINS_21thread_resource_errorEEEEE+80, 64(%rdi)
	movq	$_ZTVN5boost16exception_detail10clone_implINS0_19error_info_injectorINS_21thread_resource_errorEEEEE+136, 104(%rdi)
	call	_ZN5boost16exception_detail19error_info_injectorINS_21thread_resource_errorEED2Ev
	movq	%rbx, %rdi
	movl	$112, %esi
	popq	%rbx
	.cfi_def_cfa_offset 8
	jmp	_ZdlPvm
	.cfi_endproc
.LFE11749:
	.size	_ZN5boost16exception_detail10clone_implINS0_19error_info_injectorINS_21thread_resource_errorEEEED0Ev, .-_ZN5boost16exception_detail10clone_implINS0_19error_info_injectorINS_21thread_resource_errorEEEED0Ev
	.section	.text._ZN5boost15condition_errorD2Ev,"axG",@progbits,_ZN5boost15condition_errorD5Ev,comdat
	.align 2
	.p2align 4,,15
	.weak	_ZN5boost15condition_errorD2Ev
	.type	_ZN5boost15condition_errorD2Ev, @function
_ZN5boost15condition_errorD2Ev:
.LFB11801:
	.cfi_startproc
	movq	$_ZTVN5boost15condition_errorE+16, (%rdi)
	jmp	_ZN5boost6system12system_errorD2Ev
	.cfi_endproc
.LFE11801:
	.size	_ZN5boost15condition_errorD2Ev, .-_ZN5boost15condition_errorD2Ev
	.weak	_ZN5boost15condition_errorD1Ev
	.set	_ZN5boost15condition_errorD1Ev,_ZN5boost15condition_errorD2Ev
	.section	.text._ZN5boost15condition_errorD0Ev,"axG",@progbits,_ZN5boost15condition_errorD5Ev,comdat
	.align 2
	.p2align 4,,15
	.weak	_ZN5boost15condition_errorD0Ev
	.type	_ZN5boost15condition_errorD0Ev, @function
_ZN5boost15condition_errorD0Ev:
.LFB11803:
	.cfi_startproc
	pushq	%rbx
	.cfi_def_cfa_offset 16
	.cfi_offset 3, -16
	movq	%rdi, %rbx
	movq	$_ZTVN5boost15condition_errorE+16, (%rdi)
	call	_ZN5boost6system12system_errorD2Ev
	movq	%rbx, %rdi
	movl	$64, %esi
	popq	%rbx
	.cfi_def_cfa_offset 8
	jmp	_ZdlPvm
	.cfi_endproc
.LFE11803:
	.size	_ZN5boost15condition_errorD0Ev, .-_ZN5boost15condition_errorD0Ev
	.section	.text._ZN5boost16exception_detail19error_info_injectorINS_15condition_errorEED2Ev,"axG",@progbits,_ZN5boost16exception_detail19error_info_injectorINS_15condition_errorEED5Ev,comdat
	.align 2
	.p2align 4,,15
	.weak	_ZN5boost16exception_detail19error_info_injectorINS_15condition_errorEED2Ev
	.type	_ZN5boost16exception_detail19error_info_injectorINS_15condition_errorEED2Ev, @function
_ZN5boost16exception_detail19error_info_injectorINS_15condition_errorEED2Ev:
.LFB11804:
	.cfi_startproc
	.cfi_personality 0x3,__gxx_personality_v0
	.cfi_lsda 0x3,.LLSDA11804
	pushq	%rbx
	.cfi_def_cfa_offset 16
	.cfi_offset 3, -16
	movq	%rdi, %rbx
	movq	$_ZTVN5boost16exception_detail19error_info_injectorINS_15condition_errorEEE+16, (%rdi)
	movq	$_ZTVN5boost9exceptionE+16, 64(%rdi)
	movq	72(%rdi), %rdi
	testq	%rdi, %rdi
	je	.L111
	movq	(%rdi), %rax
	call	*32(%rax)
.L111:
	movq	$_ZTVN5boost15condition_errorE+16, (%rbx)
	movq	%rbx, %rdi
	popq	%rbx
	.cfi_def_cfa_offset 8
	jmp	_ZN5boost6system12system_errorD2Ev
	.cfi_endproc
.LFE11804:
	.section	.gcc_except_table._ZN5boost16exception_detail19error_info_injectorINS_15condition_errorEED2Ev,"aG",@progbits,_ZN5boost16exception_detail19error_info_injectorINS_15condition_errorEED5Ev,comdat
.LLSDA11804:
	.byte	0xff
	.byte	0xff
	.byte	0x1
	.uleb128 .LLSDACSE11804-.LLSDACSB11804
.LLSDACSB11804:
.LLSDACSE11804:
	.section	.text._ZN5boost16exception_detail19error_info_injectorINS_15condition_errorEED2Ev,"axG",@progbits,_ZN5boost16exception_detail19error_info_injectorINS_15condition_errorEED5Ev,comdat
	.size	_ZN5boost16exception_detail19error_info_injectorINS_15condition_errorEED2Ev, .-_ZN5boost16exception_detail19error_info_injectorINS_15condition_errorEED2Ev
	.weak	_ZN5boost16exception_detail19error_info_injectorINS_15condition_errorEED1Ev
	.set	_ZN5boost16exception_detail19error_info_injectorINS_15condition_errorEED1Ev,_ZN5boost16exception_detail19error_info_injectorINS_15condition_errorEED2Ev
	.set	.LTHUNK42,_ZN5boost16exception_detail19error_info_injectorINS_15condition_errorEED1Ev
	.p2align 4,,15
	.weak	_ZThn64_N5boost16exception_detail19error_info_injectorINS_15condition_errorEED1Ev
	.type	_ZThn64_N5boost16exception_detail19error_info_injectorINS_15condition_errorEED1Ev, @function
_ZThn64_N5boost16exception_detail19error_info_injectorINS_15condition_errorEED1Ev:
.LFB15054:
	.cfi_startproc
	subq	$64, %rdi
	jmp	.LTHUNK42
	.cfi_endproc
.LFE15054:
	.size	_ZThn64_N5boost16exception_detail19error_info_injectorINS_15condition_errorEED1Ev, .-_ZThn64_N5boost16exception_detail19error_info_injectorINS_15condition_errorEED1Ev
	.section	.text._ZN5boost16exception_detail19error_info_injectorINS_15condition_errorEED0Ev,"axG",@progbits,_ZN5boost16exception_detail19error_info_injectorINS_15condition_errorEED5Ev,comdat
	.align 2
	.p2align 4,,15
	.weak	_ZN5boost16exception_detail19error_info_injectorINS_15condition_errorEED0Ev
	.type	_ZN5boost16exception_detail19error_info_injectorINS_15condition_errorEED0Ev, @function
_ZN5boost16exception_detail19error_info_injectorINS_15condition_errorEED0Ev:
.LFB11806:
	.cfi_startproc
	pushq	%rbx
	.cfi_def_cfa_offset 16
	.cfi_offset 3, -16
	movq	%rdi, %rbx
	call	_ZN5boost16exception_detail19error_info_injectorINS_15condition_errorEED1Ev
	movq	%rbx, %rdi
	movl	$104, %esi
	popq	%rbx
	.cfi_def_cfa_offset 8
	jmp	_ZdlPvm
	.cfi_endproc
.LFE11806:
	.size	_ZN5boost16exception_detail19error_info_injectorINS_15condition_errorEED0Ev, .-_ZN5boost16exception_detail19error_info_injectorINS_15condition_errorEED0Ev
	.section	.text._ZN5boost16exception_detail10clone_implINS0_19error_info_injectorINS_15condition_errorEEEED1Ev,"axG",@progbits,_ZN5boost16exception_detail10clone_implINS0_19error_info_injectorINS_15condition_errorEEEED1Ev,comdat
	.align 2
	.p2align 4,,15
	.weak	_ZN5boost16exception_detail10clone_implINS0_19error_info_injectorINS_15condition_errorEEEED1Ev
	.type	_ZN5boost16exception_detail10clone_implINS0_19error_info_injectorINS_15condition_errorEEEED1Ev, @function
_ZN5boost16exception_detail10clone_implINS0_19error_info_injectorINS_15condition_errorEEEED1Ev:
.LFB11810:
	.cfi_startproc
	movq	$_ZTVN5boost16exception_detail10clone_implINS0_19error_info_injectorINS_15condition_errorEEEEE+24, (%rdi)
	movq	$_ZTVN5boost16exception_detail10clone_implINS0_19error_info_injectorINS_15condition_errorEEEEE+80, 64(%rdi)
	movq	$_ZTVN5boost16exception_detail10clone_implINS0_19error_info_injectorINS_15condition_errorEEEEE+136, 104(%rdi)
	jmp	_ZN5boost16exception_detail19error_info_injectorINS_15condition_errorEED2Ev
	.cfi_endproc
.LFE11810:
	.size	_ZN5boost16exception_detail10clone_implINS0_19error_info_injectorINS_15condition_errorEEEED1Ev, .-_ZN5boost16exception_detail10clone_implINS0_19error_info_injectorINS_15condition_errorEEEED1Ev
	.section	.text._ZN5boost16exception_detail10clone_implINS0_19error_info_injectorINS_15condition_errorEEEED0Ev,"axG",@progbits,_ZN5boost16exception_detail10clone_implINS0_19error_info_injectorINS_15condition_errorEEEED0Ev,comdat
	.align 2
	.p2align 4,,15
	.weak	_ZN5boost16exception_detail10clone_implINS0_19error_info_injectorINS_15condition_errorEEEED0Ev
	.type	_ZN5boost16exception_detail10clone_implINS0_19error_info_injectorINS_15condition_errorEEEED0Ev, @function
_ZN5boost16exception_detail10clone_implINS0_19error_info_injectorINS_15condition_errorEEEED0Ev:
.LFB11811:
	.cfi_startproc
	pushq	%rbx
	.cfi_def_cfa_offset 16
	.cfi_offset 3, -16
	movq	%rdi, %rbx
	movq	$_ZTVN5boost16exception_detail10clone_implINS0_19error_info_injectorINS_15condition_errorEEEEE+24, (%rdi)
	movq	$_ZTVN5boost16exception_detail10clone_implINS0_19error_info_injectorINS_15condition_errorEEEEE+80, 64(%rdi)
	movq	$_ZTVN5boost16exception_detail10clone_implINS0_19error_info_injectorINS_15condition_errorEEEEE+136, 104(%rdi)
	call	_ZN5boost16exception_detail19error_info_injectorINS_15condition_errorEED2Ev
	movq	%rbx, %rdi
	movl	$112, %esi
	popq	%rbx
	.cfi_def_cfa_offset 8
	jmp	_ZdlPvm
	.cfi_endproc
.LFE11811:
	.size	_ZN5boost16exception_detail10clone_implINS0_19error_info_injectorINS_15condition_errorEEEED0Ev, .-_ZN5boost16exception_detail10clone_implINS0_19error_info_injectorINS_15condition_errorEEEED0Ev
	.section	.text._ZNK5boost16exception_detail10clone_implINS0_14bad_exception_EE7rethrowEv,"axG",@progbits,_ZNK5boost16exception_detail10clone_implINS0_14bad_exception_EE7rethrowEv,comdat
	.align 2
	.p2align 4,,15
	.weak	_ZNK5boost16exception_detail10clone_implINS0_14bad_exception_EE7rethrowEv
	.type	_ZNK5boost16exception_detail10clone_implINS0_14bad_exception_EE7rethrowEv, @function
_ZNK5boost16exception_detail10clone_implINS0_14bad_exception_EE7rethrowEv:
.LFB14208:
	.cfi_startproc
	.cfi_personality 0x3,__gxx_personality_v0
	.cfi_lsda 0x3,.LLSDA14208
	pushq	%rbp
	.cfi_def_cfa_offset 16
	.cfi_offset 6, -16
	pushq	%rbx
	.cfi_def_cfa_offset 24
	.cfi_offset 3, -24
	movq	%rdi, %rbp
	movl	$56, %edi
	subq	$8, %rsp
	.cfi_def_cfa_offset 32
	call	__cxa_allocate_exception
	movq	8(%rbp), %rdi
	movq	%rax, %rbx
	movq	$_ZTVN5boost16exception_detail10clone_baseE+16, 48(%rax)
	movq	$_ZTVN5boost9exceptionE+16, (%rax)
	testq	%rdi, %rdi
	movq	%rdi, 8(%rax)
	je	.L123
	movq	(%rdi), %rax
.LEHB0:
	call	*24(%rax)
.LEHE0:
.L123:
	movq	16(%rbp), %rax
	movl	$_ZN5boost16exception_detail10clone_implINS0_14bad_exception_EED1Ev, %edx
	movl	$_ZTIN5boost16exception_detail10clone_implINS0_14bad_exception_EEE, %esi
	movq	%rbx, %rdi
	movq	$_ZTVN5boost16exception_detail10clone_implINS0_14bad_exception_EEE+24, (%rbx)
	movq	$_ZTVN5boost16exception_detail10clone_implINS0_14bad_exception_EEE+72, 40(%rbx)
	movq	$_ZTVN5boost16exception_detail10clone_implINS0_14bad_exception_EEE+136, 48(%rbx)
	movq	%rax, 16(%rbx)
	movq	24(%rbp), %rax
	movq	%rax, 24(%rbx)
	movl	32(%rbp), %eax
	movl	%eax, 32(%rbx)
.LEHB1:
	call	__cxa_throw
.L125:
	movq	%rax, %rbp
	movq	%rbx, %rdi
	call	__cxa_free_exception
	movq	%rbp, %rdi
	call	_Unwind_Resume
.LEHE1:
	.cfi_endproc
.LFE14208:
	.section	.gcc_except_table._ZNK5boost16exception_detail10clone_implINS0_14bad_exception_EE7rethrowEv,"aG",@progbits,_ZNK5boost16exception_detail10clone_implINS0_14bad_exception_EE7rethrowEv,comdat
.LLSDA14208:
	.byte	0xff
	.byte	0xff
	.byte	0x1
	.uleb128 .LLSDACSE14208-.LLSDACSB14208
.LLSDACSB14208:
	.uleb128 .LEHB0-.LFB14208
	.uleb128 .LEHE0-.LEHB0
	.uleb128 .L125-.LFB14208
	.uleb128 0
	.uleb128 .LEHB1-.LFB14208
	.uleb128 .LEHE1-.LEHB1
	.uleb128 0
	.uleb128 0
.LLSDACSE14208:
	.section	.text._ZNK5boost16exception_detail10clone_implINS0_14bad_exception_EE7rethrowEv,"axG",@progbits,_ZNK5boost16exception_detail10clone_implINS0_14bad_exception_EE7rethrowEv,comdat
	.size	_ZNK5boost16exception_detail10clone_implINS0_14bad_exception_EE7rethrowEv, .-_ZNK5boost16exception_detail10clone_implINS0_14bad_exception_EE7rethrowEv
	.set	.LTHUNK257,_ZNK5boost16exception_detail10clone_implINS0_14bad_exception_EE7rethrowEv
	.p2align 4,,15
	.weak	_ZTv0_n32_NK5boost16exception_detail10clone_implINS0_14bad_exception_EE7rethrowEv
	.type	_ZTv0_n32_NK5boost16exception_detail10clone_implINS0_14bad_exception_EE7rethrowEv, @function
_ZTv0_n32_NK5boost16exception_detail10clone_implINS0_14bad_exception_EE7rethrowEv:
.LFB15058:
	.cfi_startproc
	movq	(%rdi), %r10
	addq	-32(%r10), %rdi
	jmp	.LTHUNK257
	.cfi_endproc
.LFE15058:
	.size	_ZTv0_n32_NK5boost16exception_detail10clone_implINS0_14bad_exception_EE7rethrowEv, .-_ZTv0_n32_NK5boost16exception_detail10clone_implINS0_14bad_exception_EE7rethrowEv
	.section	.text._ZNK5boost16exception_detail10clone_implINS0_10bad_alloc_EE7rethrowEv,"axG",@progbits,_ZNK5boost16exception_detail10clone_implINS0_10bad_alloc_EE7rethrowEv,comdat
	.align 2
	.p2align 4,,15
	.weak	_ZNK5boost16exception_detail10clone_implINS0_10bad_alloc_EE7rethrowEv
	.type	_ZNK5boost16exception_detail10clone_implINS0_10bad_alloc_EE7rethrowEv, @function
_ZNK5boost16exception_detail10clone_implINS0_10bad_alloc_EE7rethrowEv:
.LFB14210:
	.cfi_startproc
	.cfi_personality 0x3,__gxx_personality_v0
	.cfi_lsda 0x3,.LLSDA14210
	pushq	%rbp
	.cfi_def_cfa_offset 16
	.cfi_offset 6, -16
	pushq	%rbx
	.cfi_def_cfa_offset 24
	.cfi_offset 3, -24
	movq	%rdi, %rbp
	movl	$56, %edi
	subq	$8, %rsp
	.cfi_def_cfa_offset 32
	call	__cxa_allocate_exception
	movq	8(%rbp), %rdi
	movq	%rax, %rbx
	movq	$_ZTVN5boost16exception_detail10clone_baseE+16, 48(%rax)
	movq	$_ZTVN5boost9exceptionE+16, (%rax)
	testq	%rdi, %rdi
	movq	%rdi, 8(%rax)
	je	.L129
	movq	(%rdi), %rax
.LEHB2:
	call	*24(%rax)
.LEHE2:
.L129:
	movq	16(%rbp), %rax
	movl	$_ZN5boost16exception_detail10clone_implINS0_10bad_alloc_EED1Ev, %edx
	movl	$_ZTIN5boost16exception_detail10clone_implINS0_10bad_alloc_EEE, %esi
	movq	%rbx, %rdi
	movq	$_ZTVN5boost16exception_detail10clone_implINS0_10bad_alloc_EEE+24, (%rbx)
	movq	$_ZTVN5boost16exception_detail10clone_implINS0_10bad_alloc_EEE+72, 40(%rbx)
	movq	$_ZTVN5boost16exception_detail10clone_implINS0_10bad_alloc_EEE+136, 48(%rbx)
	movq	%rax, 16(%rbx)
	movq	24(%rbp), %rax
	movq	%rax, 24(%rbx)
	movl	32(%rbp), %eax
	movl	%eax, 32(%rbx)
.LEHB3:
	call	__cxa_throw
.L131:
	movq	%rax, %rbp
	movq	%rbx, %rdi
	call	__cxa_free_exception
	movq	%rbp, %rdi
	call	_Unwind_Resume
.LEHE3:
	.cfi_endproc
.LFE14210:
	.section	.gcc_except_table._ZNK5boost16exception_detail10clone_implINS0_10bad_alloc_EE7rethrowEv,"aG",@progbits,_ZNK5boost16exception_detail10clone_implINS0_10bad_alloc_EE7rethrowEv,comdat
.LLSDA14210:
	.byte	0xff
	.byte	0xff
	.byte	0x1
	.uleb128 .LLSDACSE14210-.LLSDACSB14210
.LLSDACSB14210:
	.uleb128 .LEHB2-.LFB14210
	.uleb128 .LEHE2-.LEHB2
	.uleb128 .L131-.LFB14210
	.uleb128 0
	.uleb128 .LEHB3-.LFB14210
	.uleb128 .LEHE3-.LEHB3
	.uleb128 0
	.uleb128 0
.LLSDACSE14210:
	.section	.text._ZNK5boost16exception_detail10clone_implINS0_10bad_alloc_EE7rethrowEv,"axG",@progbits,_ZNK5boost16exception_detail10clone_implINS0_10bad_alloc_EE7rethrowEv,comdat
	.size	_ZNK5boost16exception_detail10clone_implINS0_10bad_alloc_EE7rethrowEv, .-_ZNK5boost16exception_detail10clone_implINS0_10bad_alloc_EE7rethrowEv
	.set	.LTHUNK259,_ZNK5boost16exception_detail10clone_implINS0_10bad_alloc_EE7rethrowEv
	.p2align 4,,15
	.weak	_ZTv0_n32_NK5boost16exception_detail10clone_implINS0_10bad_alloc_EE7rethrowEv
	.type	_ZTv0_n32_NK5boost16exception_detail10clone_implINS0_10bad_alloc_EE7rethrowEv, @function
_ZTv0_n32_NK5boost16exception_detail10clone_implINS0_10bad_alloc_EE7rethrowEv:
.LFB15059:
	.cfi_startproc
	movq	(%rdi), %r10
	addq	-32(%r10), %rdi
	jmp	.LTHUNK259
	.cfi_endproc
.LFE15059:
	.size	_ZTv0_n32_NK5boost16exception_detail10clone_implINS0_10bad_alloc_EE7rethrowEv, .-_ZTv0_n32_NK5boost16exception_detail10clone_implINS0_10bad_alloc_EE7rethrowEv
	.section	.text._ZNK5boost16exception_detail10clone_implINS_17unknown_exceptionEE7rethrowEv,"axG",@progbits,_ZNK5boost16exception_detail10clone_implINS_17unknown_exceptionEE7rethrowEv,comdat
	.align 2
	.p2align 4,,15
	.weak	_ZNK5boost16exception_detail10clone_implINS_17unknown_exceptionEE7rethrowEv
	.type	_ZNK5boost16exception_detail10clone_implINS_17unknown_exceptionEE7rethrowEv, @function
_ZNK5boost16exception_detail10clone_implINS_17unknown_exceptionEE7rethrowEv:
.LFB14212:
	.cfi_startproc
	.cfi_personality 0x3,__gxx_personality_v0
	.cfi_lsda 0x3,.LLSDA14212
	pushq	%rbp
	.cfi_def_cfa_offset 16
	.cfi_offset 6, -16
	pushq	%rbx
	.cfi_def_cfa_offset 24
	.cfi_offset 3, -24
	movq	%rdi, %rbp
	movl	$56, %edi
	subq	$8, %rsp
	.cfi_def_cfa_offset 32
	call	__cxa_allocate_exception
	movq	8(%rbp), %rdi
	movq	%rax, %rbx
	movq	$_ZTVN5boost16exception_detail10clone_baseE+16, 48(%rax)
	movq	$_ZTVN5boost9exceptionE+16, (%rax)
	testq	%rdi, %rdi
	movq	%rdi, 8(%rax)
	je	.L135
	movq	(%rdi), %rax
.LEHB4:
	call	*24(%rax)
.LEHE4:
.L135:
	movq	16(%rbp), %rax
	movl	$_ZN5boost16exception_detail10clone_implINS_17unknown_exceptionEED1Ev, %edx
	movl	$_ZTIN5boost16exception_detail10clone_implINS_17unknown_exceptionEEE, %esi
	movq	%rbx, %rdi
	movq	$_ZTVN5boost16exception_detail10clone_implINS_17unknown_exceptionEEE+24, (%rbx)
	movq	$_ZTVN5boost16exception_detail10clone_implINS_17unknown_exceptionEEE+72, 40(%rbx)
	movq	$_ZTVN5boost16exception_detail10clone_implINS_17unknown_exceptionEEE+136, 48(%rbx)
	movq	%rax, 16(%rbx)
	movq	24(%rbp), %rax
	movq	%rax, 24(%rbx)
	movl	32(%rbp), %eax
	movl	%eax, 32(%rbx)
.LEHB5:
	call	__cxa_throw
.L137:
	movq	%rax, %rbp
	movq	%rbx, %rdi
	call	__cxa_free_exception
	movq	%rbp, %rdi
	call	_Unwind_Resume
.LEHE5:
	.cfi_endproc
.LFE14212:
	.section	.gcc_except_table._ZNK5boost16exception_detail10clone_implINS_17unknown_exceptionEE7rethrowEv,"aG",@progbits,_ZNK5boost16exception_detail10clone_implINS_17unknown_exceptionEE7rethrowEv,comdat
.LLSDA14212:
	.byte	0xff
	.byte	0xff
	.byte	0x1
	.uleb128 .LLSDACSE14212-.LLSDACSB14212
.LLSDACSB14212:
	.uleb128 .LEHB4-.LFB14212
	.uleb128 .LEHE4-.LEHB4
	.uleb128 .L137-.LFB14212
	.uleb128 0
	.uleb128 .LEHB5-.LFB14212
	.uleb128 .LEHE5-.LEHB5
	.uleb128 0
	.uleb128 0
.LLSDACSE14212:
	.section	.text._ZNK5boost16exception_detail10clone_implINS_17unknown_exceptionEE7rethrowEv,"axG",@progbits,_ZNK5boost16exception_detail10clone_implINS_17unknown_exceptionEE7rethrowEv,comdat
	.size	_ZNK5boost16exception_detail10clone_implINS_17unknown_exceptionEE7rethrowEv, .-_ZNK5boost16exception_detail10clone_implINS_17unknown_exceptionEE7rethrowEv
	.set	.LTHUNK261,_ZNK5boost16exception_detail10clone_implINS_17unknown_exceptionEE7rethrowEv
	.p2align 4,,15
	.weak	_ZTv0_n32_NK5boost16exception_detail10clone_implINS_17unknown_exceptionEE7rethrowEv
	.type	_ZTv0_n32_NK5boost16exception_detail10clone_implINS_17unknown_exceptionEE7rethrowEv, @function
_ZTv0_n32_NK5boost16exception_detail10clone_implINS_17unknown_exceptionEE7rethrowEv:
.LFB15060:
	.cfi_startproc
	movq	(%rdi), %r10
	addq	-32(%r10), %rdi
	jmp	.LTHUNK261
	.cfi_endproc
.LFE15060:
	.size	_ZTv0_n32_NK5boost16exception_detail10clone_implINS_17unknown_exceptionEE7rethrowEv, .-_ZTv0_n32_NK5boost16exception_detail10clone_implINS_17unknown_exceptionEE7rethrowEv
	.section	.text._ZN5boost12future_errorD2Ev,"axG",@progbits,_ZN5boost12future_errorD5Ev,comdat
	.align 2
	.p2align 4,,15
	.weak	_ZN5boost12future_errorD2Ev
	.type	_ZN5boost12future_errorD2Ev, @function
_ZN5boost12future_errorD2Ev:
.LFB7040:
	.cfi_startproc
	movq	$_ZTVN5boost12future_errorE+16, (%rdi)
	jmp	_ZNSt11logic_errorD2Ev
	.cfi_endproc
.LFE7040:
	.size	_ZN5boost12future_errorD2Ev, .-_ZN5boost12future_errorD2Ev
	.weak	_ZN5boost12future_errorD1Ev
	.set	_ZN5boost12future_errorD1Ev,_ZN5boost12future_errorD2Ev
	.section	.text._ZN5boost12future_errorD0Ev,"axG",@progbits,_ZN5boost12future_errorD5Ev,comdat
	.align 2
	.p2align 4,,15
	.weak	_ZN5boost12future_errorD0Ev
	.type	_ZN5boost12future_errorD0Ev, @function
_ZN5boost12future_errorD0Ev:
.LFB7042:
	.cfi_startproc
	pushq	%rbx
	.cfi_def_cfa_offset 16
	.cfi_offset 3, -16
	movq	%rdi, %rbx
	movq	$_ZTVN5boost12future_errorE+16, (%rdi)
	call	_ZNSt11logic_errorD2Ev
	movq	%rbx, %rdi
	movl	$32, %esi
	popq	%rbx
	.cfi_def_cfa_offset 8
	jmp	_ZdlPvm
	.cfi_endproc
.LFE7042:
	.size	_ZN5boost12future_errorD0Ev, .-_ZN5boost12future_errorD0Ev
	.section	.text._ZN5boost10task_movedD2Ev,"axG",@progbits,_ZN5boost10task_movedD5Ev,comdat
	.align 2
	.p2align 4,,15
	.weak	_ZN5boost10task_movedD2Ev
	.type	_ZN5boost10task_movedD2Ev, @function
_ZN5boost10task_movedD2Ev:
.LFB12939:
	.cfi_startproc
	movq	$_ZTVN5boost12future_errorE+16, (%rdi)
	jmp	_ZNSt11logic_errorD2Ev
	.cfi_endproc
.LFE12939:
	.size	_ZN5boost10task_movedD2Ev, .-_ZN5boost10task_movedD2Ev
	.weak	_ZN5boost10task_movedD1Ev
	.set	_ZN5boost10task_movedD1Ev,_ZN5boost10task_movedD2Ev
	.section	.text._ZN5boost10task_movedD0Ev,"axG",@progbits,_ZN5boost10task_movedD5Ev,comdat
	.align 2
	.p2align 4,,15
	.weak	_ZN5boost10task_movedD0Ev
	.type	_ZN5boost10task_movedD0Ev, @function
_ZN5boost10task_movedD0Ev:
.LFB12941:
	.cfi_startproc
	pushq	%rbx
	.cfi_def_cfa_offset 16
	.cfi_offset 3, -16
	movq	%rdi, %rbx
	movq	$_ZTVN5boost12future_errorE+16, (%rdi)
	call	_ZNSt11logic_errorD2Ev
	movq	%rbx, %rdi
	movl	$32, %esi
	popq	%rbx
	.cfi_def_cfa_offset 8
	jmp	_ZdlPvm
	.cfi_endproc
.LFE12941:
	.size	_ZN5boost10task_movedD0Ev, .-_ZN5boost10task_movedD0Ev
	.section	.text._ZN5boost20task_already_startedD2Ev,"axG",@progbits,_ZN5boost20task_already_startedD5Ev,comdat
	.align 2
	.p2align 4,,15
	.weak	_ZN5boost20task_already_startedD2Ev
	.type	_ZN5boost20task_already_startedD2Ev, @function
_ZN5boost20task_already_startedD2Ev:
.LFB14004:
	.cfi_startproc
	movq	$_ZTVN5boost12future_errorE+16, (%rdi)
	jmp	_ZNSt11logic_errorD2Ev
	.cfi_endproc
.LFE14004:
	.size	_ZN5boost20task_already_startedD2Ev, .-_ZN5boost20task_already_startedD2Ev
	.weak	_ZN5boost20task_already_startedD1Ev
	.set	_ZN5boost20task_already_startedD1Ev,_ZN5boost20task_already_startedD2Ev
	.section	.text._ZN5boost20task_already_startedD0Ev,"axG",@progbits,_ZN5boost20task_already_startedD5Ev,comdat
	.align 2
	.p2align 4,,15
	.weak	_ZN5boost20task_already_startedD0Ev
	.type	_ZN5boost20task_already_startedD0Ev, @function
_ZN5boost20task_already_startedD0Ev:
.LFB14006:
	.cfi_startproc
	pushq	%rbx
	.cfi_def_cfa_offset 16
	.cfi_offset 3, -16
	movq	%rdi, %rbx
	movq	$_ZTVN5boost12future_errorE+16, (%rdi)
	call	_ZNSt11logic_errorD2Ev
	movq	%rbx, %rdi
	movl	$32, %esi
	popq	%rbx
	.cfi_def_cfa_offset 8
	jmp	_ZdlPvm
	.cfi_endproc
.LFE14006:
	.size	_ZN5boost20task_already_startedD0Ev, .-_ZN5boost20task_already_startedD0Ev
	.section	.text._ZN5boost20future_uninitializedD2Ev,"axG",@progbits,_ZN5boost20future_uninitializedD5Ev,comdat
	.align 2
	.p2align 4,,15
	.weak	_ZN5boost20future_uninitializedD2Ev
	.type	_ZN5boost20future_uninitializedD2Ev, @function
_ZN5boost20future_uninitializedD2Ev:
.LFB11491:
	.cfi_startproc
	movq	$_ZTVN5boost12future_errorE+16, (%rdi)
	jmp	_ZNSt11logic_errorD2Ev
	.cfi_endproc
.LFE11491:
	.size	_ZN5boost20future_uninitializedD2Ev, .-_ZN5boost20future_uninitializedD2Ev
	.weak	_ZN5boost20future_uninitializedD1Ev
	.set	_ZN5boost20future_uninitializedD1Ev,_ZN5boost20future_uninitializedD2Ev
	.section	.text._ZN5boost20future_uninitializedD0Ev,"axG",@progbits,_ZN5boost20future_uninitializedD5Ev,comdat
	.align 2
	.p2align 4,,15
	.weak	_ZN5boost20future_uninitializedD0Ev
	.type	_ZN5boost20future_uninitializedD0Ev, @function
_ZN5boost20future_uninitializedD0Ev:
.LFB11493:
	.cfi_startproc
	pushq	%rbx
	.cfi_def_cfa_offset 16
	.cfi_offset 3, -16
	movq	%rdi, %rbx
	movq	$_ZTVN5boost12future_errorE+16, (%rdi)
	call	_ZNSt11logic_errorD2Ev
	movq	%rbx, %rdi
	movl	$32, %esi
	popq	%rbx
	.cfi_def_cfa_offset 8
	jmp	_ZdlPvm
	.cfi_endproc
.LFE11493:
	.size	_ZN5boost20future_uninitializedD0Ev, .-_ZN5boost20future_uninitializedD0Ev
	.section	.text._ZN5boost24future_already_retrievedD2Ev,"axG",@progbits,_ZN5boost24future_already_retrievedD5Ev,comdat
	.align 2
	.p2align 4,,15
	.weak	_ZN5boost24future_already_retrievedD2Ev
	.type	_ZN5boost24future_already_retrievedD2Ev, @function
_ZN5boost24future_already_retrievedD2Ev:
.LFB12311:
	.cfi_startproc
	movq	$_ZTVN5boost12future_errorE+16, (%rdi)
	jmp	_ZNSt11logic_errorD2Ev
	.cfi_endproc
.LFE12311:
	.size	_ZN5boost24future_already_retrievedD2Ev, .-_ZN5boost24future_already_retrievedD2Ev
	.weak	_ZN5boost24future_already_retrievedD1Ev
	.set	_ZN5boost24future_already_retrievedD1Ev,_ZN5boost24future_already_retrievedD2Ev
	.section	.text._ZN5boost24future_already_retrievedD0Ev,"axG",@progbits,_ZN5boost24future_already_retrievedD5Ev,comdat
	.align 2
	.p2align 4,,15
	.weak	_ZN5boost24future_already_retrievedD0Ev
	.type	_ZN5boost24future_already_retrievedD0Ev, @function
_ZN5boost24future_already_retrievedD0Ev:
.LFB12313:
	.cfi_startproc
	pushq	%rbx
	.cfi_def_cfa_offset 16
	.cfi_offset 3, -16
	movq	%rdi, %rbx
	movq	$_ZTVN5boost12future_errorE+16, (%rdi)
	call	_ZNSt11logic_errorD2Ev
	movq	%rbx, %rdi
	movl	$32, %esi
	popq	%rbx
	.cfi_def_cfa_offset 8
	jmp	_ZdlPvm
	.cfi_endproc
.LFE12313:
	.size	_ZN5boost24future_already_retrievedD0Ev, .-_ZN5boost24future_already_retrievedD0Ev
	.section	.text._ZN5boost14broken_promiseD2Ev,"axG",@progbits,_ZN5boost14broken_promiseD5Ev,comdat
	.align 2
	.p2align 4,,15
	.weak	_ZN5boost14broken_promiseD2Ev
	.type	_ZN5boost14broken_promiseD2Ev, @function
_ZN5boost14broken_promiseD2Ev:
.LFB12286:
	.cfi_startproc
	movq	$_ZTVN5boost12future_errorE+16, (%rdi)
	jmp	_ZNSt11logic_errorD2Ev
	.cfi_endproc
.LFE12286:
	.size	_ZN5boost14broken_promiseD2Ev, .-_ZN5boost14broken_promiseD2Ev
	.weak	_ZN5boost14broken_promiseD1Ev
	.set	_ZN5boost14broken_promiseD1Ev,_ZN5boost14broken_promiseD2Ev
	.section	.text._ZN5boost14broken_promiseD0Ev,"axG",@progbits,_ZN5boost14broken_promiseD5Ev,comdat
	.align 2
	.p2align 4,,15
	.weak	_ZN5boost14broken_promiseD0Ev
	.type	_ZN5boost14broken_promiseD0Ev, @function
_ZN5boost14broken_promiseD0Ev:
.LFB12288:
	.cfi_startproc
	pushq	%rbx
	.cfi_def_cfa_offset 16
	.cfi_offset 3, -16
	movq	%rdi, %rbx
	movq	$_ZTVN5boost12future_errorE+16, (%rdi)
	call	_ZNSt11logic_errorD2Ev
	movq	%rbx, %rdi
	movl	$32, %esi
	popq	%rbx
	.cfi_def_cfa_offset 8
	jmp	_ZdlPvm
	.cfi_endproc
.LFE12288:
	.size	_ZN5boost14broken_promiseD0Ev, .-_ZN5boost14broken_promiseD0Ev
	.section	.text._ZN5boost25promise_already_satisfiedD2Ev,"axG",@progbits,_ZN5boost25promise_already_satisfiedD5Ev,comdat
	.align 2
	.p2align 4,,15
	.weak	_ZN5boost25promise_already_satisfiedD2Ev
	.type	_ZN5boost25promise_already_satisfiedD2Ev, @function
_ZN5boost25promise_already_satisfiedD2Ev:
.LFB12232:
	.cfi_startproc
	movq	$_ZTVN5boost12future_errorE+16, (%rdi)
	jmp	_ZNSt11logic_errorD2Ev
	.cfi_endproc
.LFE12232:
	.size	_ZN5boost25promise_already_satisfiedD2Ev, .-_ZN5boost25promise_already_satisfiedD2Ev
	.weak	_ZN5boost25promise_already_satisfiedD1Ev
	.set	_ZN5boost25promise_already_satisfiedD1Ev,_ZN5boost25promise_already_satisfiedD2Ev
	.section	.text._ZN5boost25promise_already_satisfiedD0Ev,"axG",@progbits,_ZN5boost25promise_already_satisfiedD5Ev,comdat
	.align 2
	.p2align 4,,15
	.weak	_ZN5boost25promise_already_satisfiedD0Ev
	.type	_ZN5boost25promise_already_satisfiedD0Ev, @function
_ZN5boost25promise_already_satisfiedD0Ev:
.LFB12234:
	.cfi_startproc
	pushq	%rbx
	.cfi_def_cfa_offset 16
	.cfi_offset 3, -16
	movq	%rdi, %rbx
	movq	$_ZTVN5boost12future_errorE+16, (%rdi)
	call	_ZNSt11logic_errorD2Ev
	movq	%rbx, %rdi
	movl	$32, %esi
	popq	%rbx
	.cfi_def_cfa_offset 8
	jmp	_ZdlPvm
	.cfi_endproc
.LFE12234:
	.size	_ZN5boost25promise_already_satisfiedD0Ev, .-_ZN5boost25promise_already_satisfiedD0Ev
	.section	.text._ZN5boost16exception_detail10clone_implINS_14broken_promiseEED1Ev,"axG",@progbits,_ZN5boost16exception_detail10clone_implINS_14broken_promiseEED1Ev,comdat
	.align 2
	.p2align 4,,15
	.weak	_ZN5boost16exception_detail10clone_implINS_14broken_promiseEED1Ev
	.type	_ZN5boost16exception_detail10clone_implINS_14broken_promiseEED1Ev, @function
_ZN5boost16exception_detail10clone_implINS_14broken_promiseEED1Ev:
.LFB12290:
	.cfi_startproc
	movq	$_ZTVN5boost16exception_detail10clone_implINS_14broken_promiseEEE+104, 32(%rdi)
	movq	$_ZTVN5boost12future_errorE+16, (%rdi)
	jmp	_ZNSt11logic_errorD2Ev
	.cfi_endproc
.LFE12290:
	.size	_ZN5boost16exception_detail10clone_implINS_14broken_promiseEED1Ev, .-_ZN5boost16exception_detail10clone_implINS_14broken_promiseEED1Ev
	.section	.text._ZN5boost16exception_detail10clone_implINS_14broken_promiseEED0Ev,"axG",@progbits,_ZN5boost16exception_detail10clone_implINS_14broken_promiseEED0Ev,comdat
	.align 2
	.p2align 4,,15
	.weak	_ZN5boost16exception_detail10clone_implINS_14broken_promiseEED0Ev
	.type	_ZN5boost16exception_detail10clone_implINS_14broken_promiseEED0Ev, @function
_ZN5boost16exception_detail10clone_implINS_14broken_promiseEED0Ev:
.LFB12291:
	.cfi_startproc
	pushq	%rbx
	.cfi_def_cfa_offset 16
	.cfi_offset 3, -16
	movq	%rdi, %rbx
	movq	$_ZTVN5boost16exception_detail10clone_implINS_14broken_promiseEEE+104, 32(%rdi)
	movq	$_ZTVN5boost12future_errorE+16, (%rdi)
	call	_ZNSt11logic_errorD2Ev
	movq	%rbx, %rdi
	movl	$40, %esi
	popq	%rbx
	.cfi_def_cfa_offset 8
	jmp	_ZdlPvm
	.cfi_endproc
.LFE12291:
	.size	_ZN5boost16exception_detail10clone_implINS_14broken_promiseEED0Ev, .-_ZN5boost16exception_detail10clone_implINS_14broken_promiseEED0Ev
	.section	.text._ZN5boost16exception_detail19error_info_injectorINS_10task_movedEED2Ev,"axG",@progbits,_ZN5boost16exception_detail19error_info_injectorINS_10task_movedEED5Ev,comdat
	.align 2
	.p2align 4,,15
	.weak	_ZN5boost16exception_detail19error_info_injectorINS_10task_movedEED2Ev
	.type	_ZN5boost16exception_detail19error_info_injectorINS_10task_movedEED2Ev, @function
_ZN5boost16exception_detail19error_info_injectorINS_10task_movedEED2Ev:
.LFB13610:
	.cfi_startproc
	.cfi_personality 0x3,__gxx_personality_v0
	.cfi_lsda 0x3,.LLSDA13610
	pushq	%rbx
	.cfi_def_cfa_offset 16
	.cfi_offset 3, -16
	movq	%rdi, %rbx
	movq	$_ZTVN5boost16exception_detail19error_info_injectorINS_10task_movedEEE+16, (%rdi)
	movq	$_ZTVN5boost9exceptionE+16, 32(%rdi)
	movq	40(%rdi), %rdi
	testq	%rdi, %rdi
	je	.L164
	movq	(%rdi), %rax
	call	*32(%rax)
.L164:
	movq	$_ZTVN5boost12future_errorE+16, (%rbx)
	movq	%rbx, %rdi
	popq	%rbx
	.cfi_def_cfa_offset 8
	jmp	_ZNSt11logic_errorD2Ev
	.cfi_endproc
.LFE13610:
	.section	.gcc_except_table._ZN5boost16exception_detail19error_info_injectorINS_10task_movedEED2Ev,"aG",@progbits,_ZN5boost16exception_detail19error_info_injectorINS_10task_movedEED5Ev,comdat
.LLSDA13610:
	.byte	0xff
	.byte	0xff
	.byte	0x1
	.uleb128 .LLSDACSE13610-.LLSDACSB13610
.LLSDACSB13610:
.LLSDACSE13610:
	.section	.text._ZN5boost16exception_detail19error_info_injectorINS_10task_movedEED2Ev,"axG",@progbits,_ZN5boost16exception_detail19error_info_injectorINS_10task_movedEED5Ev,comdat
	.size	_ZN5boost16exception_detail19error_info_injectorINS_10task_movedEED2Ev, .-_ZN5boost16exception_detail19error_info_injectorINS_10task_movedEED2Ev
	.weak	_ZN5boost16exception_detail19error_info_injectorINS_10task_movedEED1Ev
	.set	_ZN5boost16exception_detail19error_info_injectorINS_10task_movedEED1Ev,_ZN5boost16exception_detail19error_info_injectorINS_10task_movedEED2Ev
	.set	.LTHUNK200,_ZN5boost16exception_detail19error_info_injectorINS_10task_movedEED1Ev
	.p2align 4,,15
	.weak	_ZThn32_N5boost16exception_detail19error_info_injectorINS_10task_movedEED1Ev
	.type	_ZThn32_N5boost16exception_detail19error_info_injectorINS_10task_movedEED1Ev, @function
_ZThn32_N5boost16exception_detail19error_info_injectorINS_10task_movedEED1Ev:
.LFB15063:
	.cfi_startproc
	subq	$32, %rdi
	jmp	.LTHUNK200
	.cfi_endproc
.LFE15063:
	.size	_ZThn32_N5boost16exception_detail19error_info_injectorINS_10task_movedEED1Ev, .-_ZThn32_N5boost16exception_detail19error_info_injectorINS_10task_movedEED1Ev
	.section	.text._ZN5boost16exception_detail19error_info_injectorINS_10task_movedEED0Ev,"axG",@progbits,_ZN5boost16exception_detail19error_info_injectorINS_10task_movedEED5Ev,comdat
	.align 2
	.p2align 4,,15
	.weak	_ZN5boost16exception_detail19error_info_injectorINS_10task_movedEED0Ev
	.type	_ZN5boost16exception_detail19error_info_injectorINS_10task_movedEED0Ev, @function
_ZN5boost16exception_detail19error_info_injectorINS_10task_movedEED0Ev:
.LFB13612:
	.cfi_startproc
	pushq	%rbx
	.cfi_def_cfa_offset 16
	.cfi_offset 3, -16
	movq	%rdi, %rbx
	call	_ZN5boost16exception_detail19error_info_injectorINS_10task_movedEED1Ev
	movq	%rbx, %rdi
	movl	$72, %esi
	popq	%rbx
	.cfi_def_cfa_offset 8
	jmp	_ZdlPvm
	.cfi_endproc
.LFE13612:
	.size	_ZN5boost16exception_detail19error_info_injectorINS_10task_movedEED0Ev, .-_ZN5boost16exception_detail19error_info_injectorINS_10task_movedEED0Ev
	.section	.text._ZN5boost16exception_detail10clone_implINS0_19error_info_injectorINS_10task_movedEEEED1Ev,"axG",@progbits,_ZN5boost16exception_detail10clone_implINS0_19error_info_injectorINS_10task_movedEEEED1Ev,comdat
	.align 2
	.p2align 4,,15
	.weak	_ZN5boost16exception_detail10clone_implINS0_19error_info_injectorINS_10task_movedEEEED1Ev
	.type	_ZN5boost16exception_detail10clone_implINS0_19error_info_injectorINS_10task_movedEEEED1Ev, @function
_ZN5boost16exception_detail10clone_implINS0_19error_info_injectorINS_10task_movedEEEED1Ev:
.LFB13616:
	.cfi_startproc
	movq	$_ZTVN5boost16exception_detail10clone_implINS0_19error_info_injectorINS_10task_movedEEEEE+24, (%rdi)
	movq	$_ZTVN5boost16exception_detail10clone_implINS0_19error_info_injectorINS_10task_movedEEEEE+80, 32(%rdi)
	movq	$_ZTVN5boost16exception_detail10clone_implINS0_19error_info_injectorINS_10task_movedEEEEE+136, 72(%rdi)
	jmp	_ZN5boost16exception_detail19error_info_injectorINS_10task_movedEED2Ev
	.cfi_endproc
.LFE13616:
	.size	_ZN5boost16exception_detail10clone_implINS0_19error_info_injectorINS_10task_movedEEEED1Ev, .-_ZN5boost16exception_detail10clone_implINS0_19error_info_injectorINS_10task_movedEEEED1Ev
	.section	.text._ZN5boost16exception_detail10clone_implINS0_19error_info_injectorINS_10task_movedEEEED0Ev,"axG",@progbits,_ZN5boost16exception_detail10clone_implINS0_19error_info_injectorINS_10task_movedEEEED0Ev,comdat
	.align 2
	.p2align 4,,15
	.weak	_ZN5boost16exception_detail10clone_implINS0_19error_info_injectorINS_10task_movedEEEED0Ev
	.type	_ZN5boost16exception_detail10clone_implINS0_19error_info_injectorINS_10task_movedEEEED0Ev, @function
_ZN5boost16exception_detail10clone_implINS0_19error_info_injectorINS_10task_movedEEEED0Ev:
.LFB13617:
	.cfi_startproc
	pushq	%rbx
	.cfi_def_cfa_offset 16
	.cfi_offset 3, -16
	movq	%rdi, %rbx
	movq	$_ZTVN5boost16exception_detail10clone_implINS0_19error_info_injectorINS_10task_movedEEEEE+24, (%rdi)
	movq	$_ZTVN5boost16exception_detail10clone_implINS0_19error_info_injectorINS_10task_movedEEEEE+80, 32(%rdi)
	movq	$_ZTVN5boost16exception_detail10clone_implINS0_19error_info_injectorINS_10task_movedEEEEE+136, 72(%rdi)
	call	_ZN5boost16exception_detail19error_info_injectorINS_10task_movedEED2Ev
	movq	%rbx, %rdi
	movl	$80, %esi
	popq	%rbx
	.cfi_def_cfa_offset 8
	jmp	_ZdlPvm
	.cfi_endproc
.LFE13617:
	.size	_ZN5boost16exception_detail10clone_implINS0_19error_info_injectorINS_10task_movedEEEED0Ev, .-_ZN5boost16exception_detail10clone_implINS0_19error_info_injectorINS_10task_movedEEEED0Ev
	.section	.text._ZN5boost16exception_detail19error_info_injectorINS_20task_already_startedEED2Ev,"axG",@progbits,_ZN5boost16exception_detail19error_info_injectorINS_20task_already_startedEED5Ev,comdat
	.align 2
	.p2align 4,,15
	.weak	_ZN5boost16exception_detail19error_info_injectorINS_20task_already_startedEED2Ev
	.type	_ZN5boost16exception_detail19error_info_injectorINS_20task_already_startedEED2Ev, @function
_ZN5boost16exception_detail19error_info_injectorINS_20task_already_startedEED2Ev:
.LFB14437:
	.cfi_startproc
	.cfi_personality 0x3,__gxx_personality_v0
	.cfi_lsda 0x3,.LLSDA14437
	pushq	%rbx
	.cfi_def_cfa_offset 16
	.cfi_offset 3, -16
	movq	%rdi, %rbx
	movq	$_ZTVN5boost16exception_detail19error_info_injectorINS_20task_already_startedEEE+16, (%rdi)
	movq	$_ZTVN5boost9exceptionE+16, 32(%rdi)
	movq	40(%rdi), %rdi
	testq	%rdi, %rdi
	je	.L175
	movq	(%rdi), %rax
	call	*32(%rax)
.L175:
	movq	$_ZTVN5boost12future_errorE+16, (%rbx)
	movq	%rbx, %rdi
	popq	%rbx
	.cfi_def_cfa_offset 8
	jmp	_ZNSt11logic_errorD2Ev
	.cfi_endproc
.LFE14437:
	.section	.gcc_except_table._ZN5boost16exception_detail19error_info_injectorINS_20task_already_startedEED2Ev,"aG",@progbits,_ZN5boost16exception_detail19error_info_injectorINS_20task_already_startedEED5Ev,comdat
.LLSDA14437:
	.byte	0xff
	.byte	0xff
	.byte	0x1
	.uleb128 .LLSDACSE14437-.LLSDACSB14437
.LLSDACSB14437:
.LLSDACSE14437:
	.section	.text._ZN5boost16exception_detail19error_info_injectorINS_20task_already_startedEED2Ev,"axG",@progbits,_ZN5boost16exception_detail19error_info_injectorINS_20task_already_startedEED5Ev,comdat
	.size	_ZN5boost16exception_detail19error_info_injectorINS_20task_already_startedEED2Ev, .-_ZN5boost16exception_detail19error_info_injectorINS_20task_already_startedEED2Ev
	.weak	_ZN5boost16exception_detail19error_info_injectorINS_20task_already_startedEED1Ev
	.set	_ZN5boost16exception_detail19error_info_injectorINS_20task_already_startedEED1Ev,_ZN5boost16exception_detail19error_info_injectorINS_20task_already_startedEED2Ev
	.set	.LTHUNK276,_ZN5boost16exception_detail19error_info_injectorINS_20task_already_startedEED1Ev
	.p2align 4,,15
	.weak	_ZThn32_N5boost16exception_detail19error_info_injectorINS_20task_already_startedEED1Ev
	.type	_ZThn32_N5boost16exception_detail19error_info_injectorINS_20task_already_startedEED1Ev, @function
_ZThn32_N5boost16exception_detail19error_info_injectorINS_20task_already_startedEED1Ev:
.LFB15067:
	.cfi_startproc
	subq	$32, %rdi
	jmp	.LTHUNK276
	.cfi_endproc
.LFE15067:
	.size	_ZThn32_N5boost16exception_detail19error_info_injectorINS_20task_already_startedEED1Ev, .-_ZThn32_N5boost16exception_detail19error_info_injectorINS_20task_already_startedEED1Ev
	.section	.text._ZN5boost16exception_detail19error_info_injectorINS_20task_already_startedEED0Ev,"axG",@progbits,_ZN5boost16exception_detail19error_info_injectorINS_20task_already_startedEED5Ev,comdat
	.align 2
	.p2align 4,,15
	.weak	_ZN5boost16exception_detail19error_info_injectorINS_20task_already_startedEED0Ev
	.type	_ZN5boost16exception_detail19error_info_injectorINS_20task_already_startedEED0Ev, @function
_ZN5boost16exception_detail19error_info_injectorINS_20task_already_startedEED0Ev:
.LFB14439:
	.cfi_startproc
	pushq	%rbx
	.cfi_def_cfa_offset 16
	.cfi_offset 3, -16
	movq	%rdi, %rbx
	call	_ZN5boost16exception_detail19error_info_injectorINS_20task_already_startedEED1Ev
	movq	%rbx, %rdi
	movl	$72, %esi
	popq	%rbx
	.cfi_def_cfa_offset 8
	jmp	_ZdlPvm
	.cfi_endproc
.LFE14439:
	.size	_ZN5boost16exception_detail19error_info_injectorINS_20task_already_startedEED0Ev, .-_ZN5boost16exception_detail19error_info_injectorINS_20task_already_startedEED0Ev
	.section	.text._ZN5boost16exception_detail10clone_implINS0_19error_info_injectorINS_20task_already_startedEEEED1Ev,"axG",@progbits,_ZN5boost16exception_detail10clone_implINS0_19error_info_injectorINS_20task_already_startedEEEED1Ev,comdat
	.align 2
	.p2align 4,,15
	.weak	_ZN5boost16exception_detail10clone_implINS0_19error_info_injectorINS_20task_already_startedEEEED1Ev
	.type	_ZN5boost16exception_detail10clone_implINS0_19error_info_injectorINS_20task_already_startedEEEED1Ev, @function
_ZN5boost16exception_detail10clone_implINS0_19error_info_injectorINS_20task_already_startedEEEED1Ev:
.LFB14443:
	.cfi_startproc
	movq	$_ZTVN5boost16exception_detail10clone_implINS0_19error_info_injectorINS_20task_already_startedEEEEE+24, (%rdi)
	movq	$_ZTVN5boost16exception_detail10clone_implINS0_19error_info_injectorINS_20task_already_startedEEEEE+80, 32(%rdi)
	movq	$_ZTVN5boost16exception_detail10clone_implINS0_19error_info_injectorINS_20task_already_startedEEEEE+136, 72(%rdi)
	jmp	_ZN5boost16exception_detail19error_info_injectorINS_20task_already_startedEED2Ev
	.cfi_endproc
.LFE14443:
	.size	_ZN5boost16exception_detail10clone_implINS0_19error_info_injectorINS_20task_already_startedEEEED1Ev, .-_ZN5boost16exception_detail10clone_implINS0_19error_info_injectorINS_20task_already_startedEEEED1Ev
	.section	.text._ZN5boost16exception_detail10clone_implINS0_19error_info_injectorINS_20task_already_startedEEEED0Ev,"axG",@progbits,_ZN5boost16exception_detail10clone_implINS0_19error_info_injectorINS_20task_already_startedEEEED0Ev,comdat
	.align 2
	.p2align 4,,15
	.weak	_ZN5boost16exception_detail10clone_implINS0_19error_info_injectorINS_20task_already_startedEEEED0Ev
	.type	_ZN5boost16exception_detail10clone_implINS0_19error_info_injectorINS_20task_already_startedEEEED0Ev, @function
_ZN5boost16exception_detail10clone_implINS0_19error_info_injectorINS_20task_already_startedEEEED0Ev:
.LFB14444:
	.cfi_startproc
	pushq	%rbx
	.cfi_def_cfa_offset 16
	.cfi_offset 3, -16
	movq	%rdi, %rbx
	movq	$_ZTVN5boost16exception_detail10clone_implINS0_19error_info_injectorINS_20task_already_startedEEEEE+24, (%rdi)
	movq	$_ZTVN5boost16exception_detail10clone_implINS0_19error_info_injectorINS_20task_already_startedEEEEE+80, 32(%rdi)
	movq	$_ZTVN5boost16exception_detail10clone_implINS0_19error_info_injectorINS_20task_already_startedEEEEE+136, 72(%rdi)
	call	_ZN5boost16exception_detail19error_info_injectorINS_20task_already_startedEED2Ev
	movq	%rbx, %rdi
	movl	$80, %esi
	popq	%rbx
	.cfi_def_cfa_offset 8
	jmp	_ZdlPvm
	.cfi_endproc
.LFE14444:
	.size	_ZN5boost16exception_detail10clone_implINS0_19error_info_injectorINS_20task_already_startedEEEED0Ev, .-_ZN5boost16exception_detail10clone_implINS0_19error_info_injectorINS_20task_already_startedEEEED0Ev
	.section	.text._ZN5boost16exception_detail19error_info_injectorINS_20future_uninitializedEED2Ev,"axG",@progbits,_ZN5boost16exception_detail19error_info_injectorINS_20future_uninitializedEED5Ev,comdat
	.align 2
	.p2align 4,,15
	.weak	_ZN5boost16exception_detail19error_info_injectorINS_20future_uninitializedEED2Ev
	.type	_ZN5boost16exception_detail19error_info_injectorINS_20future_uninitializedEED2Ev, @function
_ZN5boost16exception_detail19error_info_injectorINS_20future_uninitializedEED2Ev:
.LFB12954:
	.cfi_startproc
	.cfi_personality 0x3,__gxx_personality_v0
	.cfi_lsda 0x3,.LLSDA12954
	pushq	%rbx
	.cfi_def_cfa_offset 16
	.cfi_offset 3, -16
	movq	%rdi, %rbx
	movq	$_ZTVN5boost16exception_detail19error_info_injectorINS_20future_uninitializedEEE+16, (%rdi)
	movq	$_ZTVN5boost9exceptionE+16, 32(%rdi)
	movq	40(%rdi), %rdi
	testq	%rdi, %rdi
	je	.L186
	movq	(%rdi), %rax
	call	*32(%rax)
.L186:
	movq	$_ZTVN5boost12future_errorE+16, (%rbx)
	movq	%rbx, %rdi
	popq	%rbx
	.cfi_def_cfa_offset 8
	jmp	_ZNSt11logic_errorD2Ev
	.cfi_endproc
.LFE12954:
	.section	.gcc_except_table._ZN5boost16exception_detail19error_info_injectorINS_20future_uninitializedEED2Ev,"aG",@progbits,_ZN5boost16exception_detail19error_info_injectorINS_20future_uninitializedEED5Ev,comdat
.LLSDA12954:
	.byte	0xff
	.byte	0xff
	.byte	0x1
	.uleb128 .LLSDACSE12954-.LLSDACSB12954
.LLSDACSB12954:
.LLSDACSE12954:
	.section	.text._ZN5boost16exception_detail19error_info_injectorINS_20future_uninitializedEED2Ev,"axG",@progbits,_ZN5boost16exception_detail19error_info_injectorINS_20future_uninitializedEED5Ev,comdat
	.size	_ZN5boost16exception_detail19error_info_injectorINS_20future_uninitializedEED2Ev, .-_ZN5boost16exception_detail19error_info_injectorINS_20future_uninitializedEED2Ev
	.weak	_ZN5boost16exception_detail19error_info_injectorINS_20future_uninitializedEED1Ev
	.set	_ZN5boost16exception_detail19error_info_injectorINS_20future_uninitializedEED1Ev,_ZN5boost16exception_detail19error_info_injectorINS_20future_uninitializedEED2Ev
	.set	.LTHUNK170,_ZN5boost16exception_detail19error_info_injectorINS_20future_uninitializedEED1Ev
	.p2align 4,,15
	.weak	_ZThn32_N5boost16exception_detail19error_info_injectorINS_20future_uninitializedEED1Ev
	.type	_ZThn32_N5boost16exception_detail19error_info_injectorINS_20future_uninitializedEED1Ev, @function
_ZThn32_N5boost16exception_detail19error_info_injectorINS_20future_uninitializedEED1Ev:
.LFB15071:
	.cfi_startproc
	subq	$32, %rdi
	jmp	.LTHUNK170
	.cfi_endproc
.LFE15071:
	.size	_ZThn32_N5boost16exception_detail19error_info_injectorINS_20future_uninitializedEED1Ev, .-_ZThn32_N5boost16exception_detail19error_info_injectorINS_20future_uninitializedEED1Ev
	.section	.text._ZN5boost16exception_detail19error_info_injectorINS_20future_uninitializedEED0Ev,"axG",@progbits,_ZN5boost16exception_detail19error_info_injectorINS_20future_uninitializedEED5Ev,comdat
	.align 2
	.p2align 4,,15
	.weak	_ZN5boost16exception_detail19error_info_injectorINS_20future_uninitializedEED0Ev
	.type	_ZN5boost16exception_detail19error_info_injectorINS_20future_uninitializedEED0Ev, @function
_ZN5boost16exception_detail19error_info_injectorINS_20future_uninitializedEED0Ev:
.LFB12956:
	.cfi_startproc
	pushq	%rbx
	.cfi_def_cfa_offset 16
	.cfi_offset 3, -16
	movq	%rdi, %rbx
	call	_ZN5boost16exception_detail19error_info_injectorINS_20future_uninitializedEED1Ev
	movq	%rbx, %rdi
	movl	$72, %esi
	popq	%rbx
	.cfi_def_cfa_offset 8
	jmp	_ZdlPvm
	.cfi_endproc
.LFE12956:
	.size	_ZN5boost16exception_detail19error_info_injectorINS_20future_uninitializedEED0Ev, .-_ZN5boost16exception_detail19error_info_injectorINS_20future_uninitializedEED0Ev
	.section	.text._ZN5boost16exception_detail10clone_implINS0_19error_info_injectorINS_20future_uninitializedEEEED1Ev,"axG",@progbits,_ZN5boost16exception_detail10clone_implINS0_19error_info_injectorINS_20future_uninitializedEEEED1Ev,comdat
	.align 2
	.p2align 4,,15
	.weak	_ZN5boost16exception_detail10clone_implINS0_19error_info_injectorINS_20future_uninitializedEEEED1Ev
	.type	_ZN5boost16exception_detail10clone_implINS0_19error_info_injectorINS_20future_uninitializedEEEED1Ev, @function
_ZN5boost16exception_detail10clone_implINS0_19error_info_injectorINS_20future_uninitializedEEEED1Ev:
.LFB12960:
	.cfi_startproc
	movq	$_ZTVN5boost16exception_detail10clone_implINS0_19error_info_injectorINS_20future_uninitializedEEEEE+24, (%rdi)
	movq	$_ZTVN5boost16exception_detail10clone_implINS0_19error_info_injectorINS_20future_uninitializedEEEEE+80, 32(%rdi)
	movq	$_ZTVN5boost16exception_detail10clone_implINS0_19error_info_injectorINS_20future_uninitializedEEEEE+136, 72(%rdi)
	jmp	_ZN5boost16exception_detail19error_info_injectorINS_20future_uninitializedEED2Ev
	.cfi_endproc
.LFE12960:
	.size	_ZN5boost16exception_detail10clone_implINS0_19error_info_injectorINS_20future_uninitializedEEEED1Ev, .-_ZN5boost16exception_detail10clone_implINS0_19error_info_injectorINS_20future_uninitializedEEEED1Ev
	.section	.text._ZN5boost16exception_detail10clone_implINS0_19error_info_injectorINS_20future_uninitializedEEEED0Ev,"axG",@progbits,_ZN5boost16exception_detail10clone_implINS0_19error_info_injectorINS_20future_uninitializedEEEED0Ev,comdat
	.align 2
	.p2align 4,,15
	.weak	_ZN5boost16exception_detail10clone_implINS0_19error_info_injectorINS_20future_uninitializedEEEED0Ev
	.type	_ZN5boost16exception_detail10clone_implINS0_19error_info_injectorINS_20future_uninitializedEEEED0Ev, @function
_ZN5boost16exception_detail10clone_implINS0_19error_info_injectorINS_20future_uninitializedEEEED0Ev:
.LFB12961:
	.cfi_startproc
	pushq	%rbx
	.cfi_def_cfa_offset 16
	.cfi_offset 3, -16
	movq	%rdi, %rbx
	movq	$_ZTVN5boost16exception_detail10clone_implINS0_19error_info_injectorINS_20future_uninitializedEEEEE+24, (%rdi)
	movq	$_ZTVN5boost16exception_detail10clone_implINS0_19error_info_injectorINS_20future_uninitializedEEEEE+80, 32(%rdi)
	movq	$_ZTVN5boost16exception_detail10clone_implINS0_19error_info_injectorINS_20future_uninitializedEEEEE+136, 72(%rdi)
	call	_ZN5boost16exception_detail19error_info_injectorINS_20future_uninitializedEED2Ev
	movq	%rbx, %rdi
	movl	$80, %esi
	popq	%rbx
	.cfi_def_cfa_offset 8
	jmp	_ZdlPvm
	.cfi_endproc
.LFE12961:
	.size	_ZN5boost16exception_detail10clone_implINS0_19error_info_injectorINS_20future_uninitializedEEEED0Ev, .-_ZN5boost16exception_detail10clone_implINS0_19error_info_injectorINS_20future_uninitializedEEEED0Ev
	.section	.text._ZN5boost16exception_detail39current_exception_std_exception_wrapperISt11logic_errorED2Ev,"axG",@progbits,_ZN5boost16exception_detail39current_exception_std_exception_wrapperISt11logic_errorED5Ev,comdat
	.align 2
	.p2align 4,,15
	.weak	_ZN5boost16exception_detail39current_exception_std_exception_wrapperISt11logic_errorED2Ev
	.type	_ZN5boost16exception_detail39current_exception_std_exception_wrapperISt11logic_errorED2Ev, @function
_ZN5boost16exception_detail39current_exception_std_exception_wrapperISt11logic_errorED2Ev:
.LFB12000:
	.cfi_startproc
	.cfi_personality 0x3,__gxx_personality_v0
	.cfi_lsda 0x3,.LLSDA12000
	pushq	%rbx
	.cfi_def_cfa_offset 16
	.cfi_offset 3, -16
	movq	%rdi, %rbx
	movq	$_ZTVN5boost16exception_detail39current_exception_std_exception_wrapperISt11logic_errorEE+16, (%rdi)
	movq	$_ZTVN5boost9exceptionE+16, 16(%rdi)
	movq	24(%rdi), %rdi
	testq	%rdi, %rdi
	je	.L197
	movq	(%rdi), %rax
	call	*32(%rax)
.L197:
	movq	%rbx, %rdi
	popq	%rbx
	.cfi_def_cfa_offset 8
	jmp	_ZNSt11logic_errorD2Ev
	.cfi_endproc
.LFE12000:
	.section	.gcc_except_table._ZN5boost16exception_detail39current_exception_std_exception_wrapperISt11logic_errorED2Ev,"aG",@progbits,_ZN5boost16exception_detail39current_exception_std_exception_wrapperISt11logic_errorED5Ev,comdat
.LLSDA12000:
	.byte	0xff
	.byte	0xff
	.byte	0x1
	.uleb128 .LLSDACSE12000-.LLSDACSB12000
.LLSDACSB12000:
.LLSDACSE12000:
	.section	.text._ZN5boost16exception_detail39current_exception_std_exception_wrapperISt11logic_errorED2Ev,"axG",@progbits,_ZN5boost16exception_detail39current_exception_std_exception_wrapperISt11logic_errorED5Ev,comdat
	.size	_ZN5boost16exception_detail39current_exception_std_exception_wrapperISt11logic_errorED2Ev, .-_ZN5boost16exception_detail39current_exception_std_exception_wrapperISt11logic_errorED2Ev
	.weak	_ZN5boost16exception_detail39current_exception_std_exception_wrapperISt11logic_errorED1Ev
	.set	_ZN5boost16exception_detail39current_exception_std_exception_wrapperISt11logic_errorED1Ev,_ZN5boost16exception_detail39current_exception_std_exception_wrapperISt11logic_errorED2Ev
	.set	.LTHUNK68,_ZN5boost16exception_detail39current_exception_std_exception_wrapperISt11logic_errorED1Ev
	.p2align 4,,15
	.weak	_ZThn16_N5boost16exception_detail39current_exception_std_exception_wrapperISt11logic_errorED1Ev
	.type	_ZThn16_N5boost16exception_detail39current_exception_std_exception_wrapperISt11logic_errorED1Ev, @function
_ZThn16_N5boost16exception_detail39current_exception_std_exception_wrapperISt11logic_errorED1Ev:
.LFB15075:
	.cfi_startproc
	subq	$16, %rdi
	jmp	.LTHUNK68
	.cfi_endproc
.LFE15075:
	.size	_ZThn16_N5boost16exception_detail39current_exception_std_exception_wrapperISt11logic_errorED1Ev, .-_ZThn16_N5boost16exception_detail39current_exception_std_exception_wrapperISt11logic_errorED1Ev
	.section	.text._ZN5boost16exception_detail39current_exception_std_exception_wrapperISt11logic_errorED0Ev,"axG",@progbits,_ZN5boost16exception_detail39current_exception_std_exception_wrapperISt11logic_errorED5Ev,comdat
	.align 2
	.p2align 4,,15
	.weak	_ZN5boost16exception_detail39current_exception_std_exception_wrapperISt11logic_errorED0Ev
	.type	_ZN5boost16exception_detail39current_exception_std_exception_wrapperISt11logic_errorED0Ev, @function
_ZN5boost16exception_detail39current_exception_std_exception_wrapperISt11logic_errorED0Ev:
.LFB12002:
	.cfi_startproc
	pushq	%rbx
	.cfi_def_cfa_offset 16
	.cfi_offset 3, -16
	movq	%rdi, %rbx
	call	_ZN5boost16exception_detail39current_exception_std_exception_wrapperISt11logic_errorED1Ev
	movq	%rbx, %rdi
	movl	$56, %esi
	popq	%rbx
	.cfi_def_cfa_offset 8
	jmp	_ZdlPvm
	.cfi_endproc
.LFE12002:
	.size	_ZN5boost16exception_detail39current_exception_std_exception_wrapperISt11logic_errorED0Ev, .-_ZN5boost16exception_detail39current_exception_std_exception_wrapperISt11logic_errorED0Ev
	.section	.text._ZN5boost16exception_detail10clone_implINS0_39current_exception_std_exception_wrapperISt11logic_errorEEED1Ev,"axG",@progbits,_ZN5boost16exception_detail10clone_implINS0_39current_exception_std_exception_wrapperISt11logic_errorEEED1Ev,comdat
	.align 2
	.p2align 4,,15
	.weak	_ZN5boost16exception_detail10clone_implINS0_39current_exception_std_exception_wrapperISt11logic_errorEEED1Ev
	.type	_ZN5boost16exception_detail10clone_implINS0_39current_exception_std_exception_wrapperISt11logic_errorEEED1Ev, @function
_ZN5boost16exception_detail10clone_implINS0_39current_exception_std_exception_wrapperISt11logic_errorEEED1Ev:
.LFB12718:
	.cfi_startproc
	movq	$_ZTVN5boost16exception_detail10clone_implINS0_39current_exception_std_exception_wrapperISt11logic_errorEEEE+24, (%rdi)
	movq	$_ZTVN5boost16exception_detail10clone_implINS0_39current_exception_std_exception_wrapperISt11logic_errorEEEE+80, 16(%rdi)
	movq	$_ZTVN5boost16exception_detail10clone_implINS0_39current_exception_std_exception_wrapperISt11logic_errorEEEE+136, 56(%rdi)
	jmp	_ZN5boost16exception_detail39current_exception_std_exception_wrapperISt11logic_errorED2Ev
	.cfi_endproc
.LFE12718:
	.size	_ZN5boost16exception_detail10clone_implINS0_39current_exception_std_exception_wrapperISt11logic_errorEEED1Ev, .-_ZN5boost16exception_detail10clone_implINS0_39current_exception_std_exception_wrapperISt11logic_errorEEED1Ev
	.section	.text._ZN5boost16exception_detail10clone_implINS0_39current_exception_std_exception_wrapperISt11logic_errorEEED0Ev,"axG",@progbits,_ZN5boost16exception_detail10clone_implINS0_39current_exception_std_exception_wrapperISt11logic_errorEEED0Ev,comdat
	.align 2
	.p2align 4,,15
	.weak	_ZN5boost16exception_detail10clone_implINS0_39current_exception_std_exception_wrapperISt11logic_errorEEED0Ev
	.type	_ZN5boost16exception_detail10clone_implINS0_39current_exception_std_exception_wrapperISt11logic_errorEEED0Ev, @function
_ZN5boost16exception_detail10clone_implINS0_39current_exception_std_exception_wrapperISt11logic_errorEEED0Ev:
.LFB12719:
	.cfi_startproc
	pushq	%rbx
	.cfi_def_cfa_offset 16
	.cfi_offset 3, -16
	movq	%rdi, %rbx
	movq	$_ZTVN5boost16exception_detail10clone_implINS0_39current_exception_std_exception_wrapperISt11logic_errorEEEE+24, (%rdi)
	movq	$_ZTVN5boost16exception_detail10clone_implINS0_39current_exception_std_exception_wrapperISt11logic_errorEEEE+80, 16(%rdi)
	movq	$_ZTVN5boost16exception_detail10clone_implINS0_39current_exception_std_exception_wrapperISt11logic_errorEEEE+136, 56(%rdi)
	call	_ZN5boost16exception_detail39current_exception_std_exception_wrapperISt11logic_errorED2Ev
	movq	%rbx, %rdi
	movl	$64, %esi
	popq	%rbx
	.cfi_def_cfa_offset 8
	jmp	_ZdlPvm
	.cfi_endproc
.LFE12719:
	.size	_ZN5boost16exception_detail10clone_implINS0_39current_exception_std_exception_wrapperISt11logic_errorEEED0Ev, .-_ZN5boost16exception_detail10clone_implINS0_39current_exception_std_exception_wrapperISt11logic_errorEEED0Ev
	.section	.text._ZN5boost16exception_detail19error_info_injectorINS_24future_already_retrievedEED2Ev,"axG",@progbits,_ZN5boost16exception_detail19error_info_injectorINS_24future_already_retrievedEED5Ev,comdat
	.align 2
	.p2align 4,,15
	.weak	_ZN5boost16exception_detail19error_info_injectorINS_24future_already_retrievedEED2Ev
	.type	_ZN5boost16exception_detail19error_info_injectorINS_24future_already_retrievedEED2Ev, @function
_ZN5boost16exception_detail19error_info_injectorINS_24future_already_retrievedEED2Ev:
.LFB12314:
	.cfi_startproc
	.cfi_personality 0x3,__gxx_personality_v0
	.cfi_lsda 0x3,.LLSDA12314
	pushq	%rbx
	.cfi_def_cfa_offset 16
	.cfi_offset 3, -16
	movq	%rdi, %rbx
	movq	$_ZTVN5boost16exception_detail19error_info_injectorINS_24future_already_retrievedEEE+16, (%rdi)
	movq	$_ZTVN5boost9exceptionE+16, 32(%rdi)
	movq	40(%rdi), %rdi
	testq	%rdi, %rdi
	je	.L208
	movq	(%rdi), %rax
	call	*32(%rax)
.L208:
	movq	$_ZTVN5boost12future_errorE+16, (%rbx)
	movq	%rbx, %rdi
	popq	%rbx
	.cfi_def_cfa_offset 8
	jmp	_ZNSt11logic_errorD2Ev
	.cfi_endproc
.LFE12314:
	.section	.gcc_except_table._ZN5boost16exception_detail19error_info_injectorINS_24future_already_retrievedEED2Ev,"aG",@progbits,_ZN5boost16exception_detail19error_info_injectorINS_24future_already_retrievedEED5Ev,comdat
.LLSDA12314:
	.byte	0xff
	.byte	0xff
	.byte	0x1
	.uleb128 .LLSDACSE12314-.LLSDACSB12314
.LLSDACSB12314:
.LLSDACSE12314:
	.section	.text._ZN5boost16exception_detail19error_info_injectorINS_24future_already_retrievedEED2Ev,"axG",@progbits,_ZN5boost16exception_detail19error_info_injectorINS_24future_already_retrievedEED5Ev,comdat
	.size	_ZN5boost16exception_detail19error_info_injectorINS_24future_already_retrievedEED2Ev, .-_ZN5boost16exception_detail19error_info_injectorINS_24future_already_retrievedEED2Ev
	.weak	_ZN5boost16exception_detail19error_info_injectorINS_24future_already_retrievedEED1Ev
	.set	_ZN5boost16exception_detail19error_info_injectorINS_24future_already_retrievedEED1Ev,_ZN5boost16exception_detail19error_info_injectorINS_24future_already_retrievedEED2Ev
	.set	.LTHUNK102,_ZN5boost16exception_detail19error_info_injectorINS_24future_already_retrievedEED1Ev
	.p2align 4,,15
	.weak	_ZThn32_N5boost16exception_detail19error_info_injectorINS_24future_already_retrievedEED1Ev
	.type	_ZThn32_N5boost16exception_detail19error_info_injectorINS_24future_already_retrievedEED1Ev, @function
_ZThn32_N5boost16exception_detail19error_info_injectorINS_24future_already_retrievedEED1Ev:
.LFB15079:
	.cfi_startproc
	subq	$32, %rdi
	jmp	.LTHUNK102
	.cfi_endproc
.LFE15079:
	.size	_ZThn32_N5boost16exception_detail19error_info_injectorINS_24future_already_retrievedEED1Ev, .-_ZThn32_N5boost16exception_detail19error_info_injectorINS_24future_already_retrievedEED1Ev
	.section	.text._ZN5boost16exception_detail19error_info_injectorINS_24future_already_retrievedEED0Ev,"axG",@progbits,_ZN5boost16exception_detail19error_info_injectorINS_24future_already_retrievedEED5Ev,comdat
	.align 2
	.p2align 4,,15
	.weak	_ZN5boost16exception_detail19error_info_injectorINS_24future_already_retrievedEED0Ev
	.type	_ZN5boost16exception_detail19error_info_injectorINS_24future_already_retrievedEED0Ev, @function
_ZN5boost16exception_detail19error_info_injectorINS_24future_already_retrievedEED0Ev:
.LFB12316:
	.cfi_startproc
	pushq	%rbx
	.cfi_def_cfa_offset 16
	.cfi_offset 3, -16
	movq	%rdi, %rbx
	call	_ZN5boost16exception_detail19error_info_injectorINS_24future_already_retrievedEED1Ev
	movq	%rbx, %rdi
	movl	$72, %esi
	popq	%rbx
	.cfi_def_cfa_offset 8
	jmp	_ZdlPvm
	.cfi_endproc
.LFE12316:
	.size	_ZN5boost16exception_detail19error_info_injectorINS_24future_already_retrievedEED0Ev, .-_ZN5boost16exception_detail19error_info_injectorINS_24future_already_retrievedEED0Ev
	.section	.text._ZN5boost16exception_detail10clone_implINS0_19error_info_injectorINS_24future_already_retrievedEEEED1Ev,"axG",@progbits,_ZN5boost16exception_detail10clone_implINS0_19error_info_injectorINS_24future_already_retrievedEEEED1Ev,comdat
	.align 2
	.p2align 4,,15
	.weak	_ZN5boost16exception_detail10clone_implINS0_19error_info_injectorINS_24future_already_retrievedEEEED1Ev
	.type	_ZN5boost16exception_detail10clone_implINS0_19error_info_injectorINS_24future_already_retrievedEEEED1Ev, @function
_ZN5boost16exception_detail10clone_implINS0_19error_info_injectorINS_24future_already_retrievedEEEED1Ev:
.LFB12320:
	.cfi_startproc
	movq	$_ZTVN5boost16exception_detail10clone_implINS0_19error_info_injectorINS_24future_already_retrievedEEEEE+24, (%rdi)
	movq	$_ZTVN5boost16exception_detail10clone_implINS0_19error_info_injectorINS_24future_already_retrievedEEEEE+80, 32(%rdi)
	movq	$_ZTVN5boost16exception_detail10clone_implINS0_19error_info_injectorINS_24future_already_retrievedEEEEE+136, 72(%rdi)
	jmp	_ZN5boost16exception_detail19error_info_injectorINS_24future_already_retrievedEED2Ev
	.cfi_endproc
.LFE12320:
	.size	_ZN5boost16exception_detail10clone_implINS0_19error_info_injectorINS_24future_already_retrievedEEEED1Ev, .-_ZN5boost16exception_detail10clone_implINS0_19error_info_injectorINS_24future_already_retrievedEEEED1Ev
	.section	.text._ZN5boost16exception_detail10clone_implINS0_19error_info_injectorINS_24future_already_retrievedEEEED0Ev,"axG",@progbits,_ZN5boost16exception_detail10clone_implINS0_19error_info_injectorINS_24future_already_retrievedEEEED0Ev,comdat
	.align 2
	.p2align 4,,15
	.weak	_ZN5boost16exception_detail10clone_implINS0_19error_info_injectorINS_24future_already_retrievedEEEED0Ev
	.type	_ZN5boost16exception_detail10clone_implINS0_19error_info_injectorINS_24future_already_retrievedEEEED0Ev, @function
_ZN5boost16exception_detail10clone_implINS0_19error_info_injectorINS_24future_already_retrievedEEEED0Ev:
.LFB12321:
	.cfi_startproc
	pushq	%rbx
	.cfi_def_cfa_offset 16
	.cfi_offset 3, -16
	movq	%rdi, %rbx
	movq	$_ZTVN5boost16exception_detail10clone_implINS0_19error_info_injectorINS_24future_already_retrievedEEEEE+24, (%rdi)
	movq	$_ZTVN5boost16exception_detail10clone_implINS0_19error_info_injectorINS_24future_already_retrievedEEEEE+80, 32(%rdi)
	movq	$_ZTVN5boost16exception_detail10clone_implINS0_19error_info_injectorINS_24future_already_retrievedEEEEE+136, 72(%rdi)
	call	_ZN5boost16exception_detail19error_info_injectorINS_24future_already_retrievedEED2Ev
	movq	%rbx, %rdi
	movl	$80, %esi
	popq	%rbx
	.cfi_def_cfa_offset 8
	jmp	_ZdlPvm
	.cfi_endproc
.LFE12321:
	.size	_ZN5boost16exception_detail10clone_implINS0_19error_info_injectorINS_24future_already_retrievedEEEED0Ev, .-_ZN5boost16exception_detail10clone_implINS0_19error_info_injectorINS_24future_already_retrievedEEEED0Ev
	.section	.text._ZN5boost16exception_detail19error_info_injectorINS_25promise_already_satisfiedEED2Ev,"axG",@progbits,_ZN5boost16exception_detail19error_info_injectorINS_25promise_already_satisfiedEED5Ev,comdat
	.align 2
	.p2align 4,,15
	.weak	_ZN5boost16exception_detail19error_info_injectorINS_25promise_already_satisfiedEED2Ev
	.type	_ZN5boost16exception_detail19error_info_injectorINS_25promise_already_satisfiedEED2Ev, @function
_ZN5boost16exception_detail19error_info_injectorINS_25promise_already_satisfiedEED2Ev:
.LFB12235:
	.cfi_startproc
	.cfi_personality 0x3,__gxx_personality_v0
	.cfi_lsda 0x3,.LLSDA12235
	pushq	%rbx
	.cfi_def_cfa_offset 16
	.cfi_offset 3, -16
	movq	%rdi, %rbx
	movq	$_ZTVN5boost16exception_detail19error_info_injectorINS_25promise_already_satisfiedEEE+16, (%rdi)
	movq	$_ZTVN5boost9exceptionE+16, 32(%rdi)
	movq	40(%rdi), %rdi
	testq	%rdi, %rdi
	je	.L219
	movq	(%rdi), %rax
	call	*32(%rax)
.L219:
	movq	$_ZTVN5boost12future_errorE+16, (%rbx)
	movq	%rbx, %rdi
	popq	%rbx
	.cfi_def_cfa_offset 8
	jmp	_ZNSt11logic_errorD2Ev
	.cfi_endproc
.LFE12235:
	.section	.gcc_except_table._ZN5boost16exception_detail19error_info_injectorINS_25promise_already_satisfiedEED2Ev,"aG",@progbits,_ZN5boost16exception_detail19error_info_injectorINS_25promise_already_satisfiedEED5Ev,comdat
.LLSDA12235:
	.byte	0xff
	.byte	0xff
	.byte	0x1
	.uleb128 .LLSDACSE12235-.LLSDACSB12235
.LLSDACSB12235:
.LLSDACSE12235:
	.section	.text._ZN5boost16exception_detail19error_info_injectorINS_25promise_already_satisfiedEED2Ev,"axG",@progbits,_ZN5boost16exception_detail19error_info_injectorINS_25promise_already_satisfiedEED5Ev,comdat
	.size	_ZN5boost16exception_detail19error_info_injectorINS_25promise_already_satisfiedEED2Ev, .-_ZN5boost16exception_detail19error_info_injectorINS_25promise_already_satisfiedEED2Ev
	.weak	_ZN5boost16exception_detail19error_info_injectorINS_25promise_already_satisfiedEED1Ev
	.set	_ZN5boost16exception_detail19error_info_injectorINS_25promise_already_satisfiedEED1Ev,_ZN5boost16exception_detail19error_info_injectorINS_25promise_already_satisfiedEED2Ev
	.set	.LTHUNK88,_ZN5boost16exception_detail19error_info_injectorINS_25promise_already_satisfiedEED1Ev
	.p2align 4,,15
	.weak	_ZThn32_N5boost16exception_detail19error_info_injectorINS_25promise_already_satisfiedEED1Ev
	.type	_ZThn32_N5boost16exception_detail19error_info_injectorINS_25promise_already_satisfiedEED1Ev, @function
_ZThn32_N5boost16exception_detail19error_info_injectorINS_25promise_already_satisfiedEED1Ev:
.LFB15083:
	.cfi_startproc
	subq	$32, %rdi
	jmp	.LTHUNK88
	.cfi_endproc
.LFE15083:
	.size	_ZThn32_N5boost16exception_detail19error_info_injectorINS_25promise_already_satisfiedEED1Ev, .-_ZThn32_N5boost16exception_detail19error_info_injectorINS_25promise_already_satisfiedEED1Ev
	.section	.text._ZN5boost16exception_detail19error_info_injectorINS_25promise_already_satisfiedEED0Ev,"axG",@progbits,_ZN5boost16exception_detail19error_info_injectorINS_25promise_already_satisfiedEED5Ev,comdat
	.align 2
	.p2align 4,,15
	.weak	_ZN5boost16exception_detail19error_info_injectorINS_25promise_already_satisfiedEED0Ev
	.type	_ZN5boost16exception_detail19error_info_injectorINS_25promise_already_satisfiedEED0Ev, @function
_ZN5boost16exception_detail19error_info_injectorINS_25promise_already_satisfiedEED0Ev:
.LFB12237:
	.cfi_startproc
	pushq	%rbx
	.cfi_def_cfa_offset 16
	.cfi_offset 3, -16
	movq	%rdi, %rbx
	call	_ZN5boost16exception_detail19error_info_injectorINS_25promise_already_satisfiedEED1Ev
	movq	%rbx, %rdi
	movl	$72, %esi
	popq	%rbx
	.cfi_def_cfa_offset 8
	jmp	_ZdlPvm
	.cfi_endproc
.LFE12237:
	.size	_ZN5boost16exception_detail19error_info_injectorINS_25promise_already_satisfiedEED0Ev, .-_ZN5boost16exception_detail19error_info_injectorINS_25promise_already_satisfiedEED0Ev
	.section	.text._ZN5boost16exception_detail10clone_implINS0_19error_info_injectorINS_25promise_already_satisfiedEEEED1Ev,"axG",@progbits,_ZN5boost16exception_detail10clone_implINS0_19error_info_injectorINS_25promise_already_satisfiedEEEED1Ev,comdat
	.align 2
	.p2align 4,,15
	.weak	_ZN5boost16exception_detail10clone_implINS0_19error_info_injectorINS_25promise_already_satisfiedEEEED1Ev
	.type	_ZN5boost16exception_detail10clone_implINS0_19error_info_injectorINS_25promise_already_satisfiedEEEED1Ev, @function
_ZN5boost16exception_detail10clone_implINS0_19error_info_injectorINS_25promise_already_satisfiedEEEED1Ev:
.LFB12241:
	.cfi_startproc
	movq	$_ZTVN5boost16exception_detail10clone_implINS0_19error_info_injectorINS_25promise_already_satisfiedEEEEE+24, (%rdi)
	movq	$_ZTVN5boost16exception_detail10clone_implINS0_19error_info_injectorINS_25promise_already_satisfiedEEEEE+80, 32(%rdi)
	movq	$_ZTVN5boost16exception_detail10clone_implINS0_19error_info_injectorINS_25promise_already_satisfiedEEEEE+136, 72(%rdi)
	jmp	_ZN5boost16exception_detail19error_info_injectorINS_25promise_already_satisfiedEED2Ev
	.cfi_endproc
.LFE12241:
	.size	_ZN5boost16exception_detail10clone_implINS0_19error_info_injectorINS_25promise_already_satisfiedEEEED1Ev, .-_ZN5boost16exception_detail10clone_implINS0_19error_info_injectorINS_25promise_already_satisfiedEEEED1Ev
	.section	.text._ZN5boost16exception_detail10clone_implINS0_19error_info_injectorINS_25promise_already_satisfiedEEEED0Ev,"axG",@progbits,_ZN5boost16exception_detail10clone_implINS0_19error_info_injectorINS_25promise_already_satisfiedEEEED0Ev,comdat
	.align 2
	.p2align 4,,15
	.weak	_ZN5boost16exception_detail10clone_implINS0_19error_info_injectorINS_25promise_already_satisfiedEEEED0Ev
	.type	_ZN5boost16exception_detail10clone_implINS0_19error_info_injectorINS_25promise_already_satisfiedEEEED0Ev, @function
_ZN5boost16exception_detail10clone_implINS0_19error_info_injectorINS_25promise_already_satisfiedEEEED0Ev:
.LFB12242:
	.cfi_startproc
	pushq	%rbx
	.cfi_def_cfa_offset 16
	.cfi_offset 3, -16
	movq	%rdi, %rbx
	movq	$_ZTVN5boost16exception_detail10clone_implINS0_19error_info_injectorINS_25promise_already_satisfiedEEEEE+24, (%rdi)
	movq	$_ZTVN5boost16exception_detail10clone_implINS0_19error_info_injectorINS_25promise_already_satisfiedEEEEE+80, 32(%rdi)
	movq	$_ZTVN5boost16exception_detail10clone_implINS0_19error_info_injectorINS_25promise_already_satisfiedEEEEE+136, 72(%rdi)
	call	_ZN5boost16exception_detail19error_info_injectorINS_25promise_already_satisfiedEED2Ev
	movq	%rbx, %rdi
	movl	$80, %esi
	popq	%rbx
	.cfi_def_cfa_offset 8
	jmp	_ZdlPvm
	.cfi_endproc
.LFE12242:
	.size	_ZN5boost16exception_detail10clone_implINS0_19error_info_injectorINS_25promise_already_satisfiedEEEED0Ev, .-_ZN5boost16exception_detail10clone_implINS0_19error_info_injectorINS_25promise_already_satisfiedEEEED0Ev
	.section	.text._ZNK5boost16exception_detail10clone_implINS_14broken_promiseEE7rethrowEv,"axG",@progbits,_ZNK5boost16exception_detail10clone_implINS_14broken_promiseEE7rethrowEv,comdat
	.align 2
	.p2align 4,,15
	.weak	_ZNK5boost16exception_detail10clone_implINS_14broken_promiseEE7rethrowEv
	.type	_ZNK5boost16exception_detail10clone_implINS_14broken_promiseEE7rethrowEv, @function
_ZNK5boost16exception_detail10clone_implINS_14broken_promiseEE7rethrowEv:
.LFB14197:
	.cfi_startproc
	pushq	%rbp
	.cfi_def_cfa_offset 16
	.cfi_offset 6, -16
	pushq	%rbx
	.cfi_def_cfa_offset 24
	.cfi_offset 3, -24
	movq	%rdi, %rbp
	movl	$40, %edi
	subq	$8, %rsp
	.cfi_def_cfa_offset 32
	call	__cxa_allocate_exception
	movq	%rbp, %rsi
	movq	%rax, %rdi
	movq	$_ZTVN5boost16exception_detail10clone_baseE+16, 32(%rax)
	movq	%rax, %rbx
	call	_ZNSt11logic_errorC2ERKS_
	movdqu	16(%rbp), %xmm0
	movl	$_ZN5boost16exception_detail10clone_implINS_14broken_promiseEED1Ev, %edx
	movl	$_ZTIN5boost16exception_detail10clone_implINS_14broken_promiseEEE, %esi
	movq	%rbx, %rdi
	movq	$_ZTVN5boost16exception_detail10clone_implINS_14broken_promiseEEE+24, (%rbx)
	movups	%xmm0, 16(%rbx)
	movq	$_ZTVN5boost16exception_detail10clone_implINS_14broken_promiseEEE+104, 32(%rbx)
	call	__cxa_throw
	.cfi_endproc
.LFE14197:
	.size	_ZNK5boost16exception_detail10clone_implINS_14broken_promiseEE7rethrowEv, .-_ZNK5boost16exception_detail10clone_implINS_14broken_promiseEE7rethrowEv
	.section	.text._ZNK5boost16exception_detail10clone_implINS_14broken_promiseEE5cloneEv,"axG",@progbits,_ZNK5boost16exception_detail10clone_implINS_14broken_promiseEE5cloneEv,comdat
	.align 2
	.p2align 4,,15
	.weak	_ZNK5boost16exception_detail10clone_implINS_14broken_promiseEE5cloneEv
	.type	_ZNK5boost16exception_detail10clone_implINS_14broken_promiseEE5cloneEv, @function
_ZNK5boost16exception_detail10clone_implINS_14broken_promiseEE5cloneEv:
.LFB14196:
	.cfi_startproc
	pushq	%rbp
	.cfi_def_cfa_offset 16
	.cfi_offset 6, -16
	pushq	%rbx
	.cfi_def_cfa_offset 24
	.cfi_offset 3, -24
	movq	%rdi, %rbp
	movl	$40, %edi
	subq	$8, %rsp
	.cfi_def_cfa_offset 32
	call	_Znwm
	movq	%rbp, %rsi
	movq	$_ZTVN5boost16exception_detail10clone_baseE+16, 32(%rax)
	movq	%rax, %rdi
	movq	%rax, %rbx
	call	_ZNSt11logic_errorC2ERKS_
	movdqu	16(%rbp), %xmm0
	leaq	32(%rbx), %rax
	movq	$_ZTVN5boost16exception_detail10clone_implINS_14broken_promiseEEE+24, (%rbx)
	movq	$_ZTVN5boost16exception_detail10clone_implINS_14broken_promiseEEE+104, 32(%rbx)
	movups	%xmm0, 16(%rbx)
	addq	$8, %rsp
	.cfi_def_cfa_offset 24
	popq	%rbx
	.cfi_def_cfa_offset 16
	popq	%rbp
	.cfi_def_cfa_offset 8
	ret
	.cfi_endproc
.LFE14196:
	.size	_ZNK5boost16exception_detail10clone_implINS_14broken_promiseEE5cloneEv, .-_ZNK5boost16exception_detail10clone_implINS_14broken_promiseEE5cloneEv
	.section	.text._ZN5boost16exception_detail14bad_exception_D2Ev,"axG",@progbits,_ZN5boost16exception_detail14bad_exception_D5Ev,comdat
	.align 2
	.p2align 4,,15
	.weak	_ZN5boost16exception_detail14bad_exception_D2Ev
	.type	_ZN5boost16exception_detail14bad_exception_D2Ev, @function
_ZN5boost16exception_detail14bad_exception_D2Ev:
.LFB6972:
	.cfi_startproc
	.cfi_personality 0x3,__gxx_personality_v0
	.cfi_lsda 0x3,.LLSDA6972
	pushq	%rbx
	.cfi_def_cfa_offset 16
	.cfi_offset 3, -16
	movq	$_ZTVN5boost16exception_detail14bad_exception_E+16, (%rdi)
	movq	%rdi, %rbx
	movq	$_ZTVN5boost16exception_detail14bad_exception_E+48, 40(%rdi)
	addq	$40, %rdi
	call	_ZNSt13bad_exceptionD2Ev
	movq	8(%rbx), %rdi
	movq	$_ZTVN5boost9exceptionE+16, (%rbx)
	testq	%rdi, %rdi
	je	.L233
	movq	(%rdi), %rax
	popq	%rbx
	.cfi_remember_state
	.cfi_def_cfa_offset 8
	movq	32(%rax), %rax
	jmp	*%rax
	.p2align 4,,10
	.p2align 3
.L233:
	.cfi_restore_state
	popq	%rbx
	.cfi_def_cfa_offset 8
	ret
	.cfi_endproc
.LFE6972:
	.section	.gcc_except_table._ZN5boost16exception_detail14bad_exception_D2Ev,"aG",@progbits,_ZN5boost16exception_detail14bad_exception_D5Ev,comdat
.LLSDA6972:
	.byte	0xff
	.byte	0xff
	.byte	0x1
	.uleb128 .LLSDACSE6972-.LLSDACSB6972
.LLSDACSB6972:
.LLSDACSE6972:
	.section	.text._ZN5boost16exception_detail14bad_exception_D2Ev,"axG",@progbits,_ZN5boost16exception_detail14bad_exception_D5Ev,comdat
	.size	_ZN5boost16exception_detail14bad_exception_D2Ev, .-_ZN5boost16exception_detail14bad_exception_D2Ev
	.set	.LTHUNK2,_ZN5boost16exception_detail14bad_exception_D2Ev
	.p2align 4,,15
	.weak	_ZThn40_N5boost16exception_detail14bad_exception_D1Ev
	.type	_ZThn40_N5boost16exception_detail14bad_exception_D1Ev, @function
_ZThn40_N5boost16exception_detail14bad_exception_D1Ev:
.LFB15089:
	.cfi_startproc
	subq	$40, %rdi
	jmp	.LTHUNK2
	.cfi_endproc
.LFE15089:
	.size	_ZThn40_N5boost16exception_detail14bad_exception_D1Ev, .-_ZThn40_N5boost16exception_detail14bad_exception_D1Ev
	.weak	_ZN5boost16exception_detail14bad_exception_D1Ev
	.set	_ZN5boost16exception_detail14bad_exception_D1Ev,_ZN5boost16exception_detail14bad_exception_D2Ev
	.section	.text._ZN5boost16exception_detail14bad_exception_D0Ev,"axG",@progbits,_ZN5boost16exception_detail14bad_exception_D5Ev,comdat
	.align 2
	.p2align 4,,15
	.weak	_ZN5boost16exception_detail14bad_exception_D0Ev
	.type	_ZN5boost16exception_detail14bad_exception_D0Ev, @function
_ZN5boost16exception_detail14bad_exception_D0Ev:
.LFB6974:
	.cfi_startproc
	pushq	%rbx
	.cfi_def_cfa_offset 16
	.cfi_offset 3, -16
	movq	%rdi, %rbx
	call	_ZN5boost16exception_detail14bad_exception_D1Ev
	movq	%rbx, %rdi
	movl	$48, %esi
	popq	%rbx
	.cfi_def_cfa_offset 8
	jmp	_ZdlPvm
	.cfi_endproc
.LFE6974:
	.size	_ZN5boost16exception_detail14bad_exception_D0Ev, .-_ZN5boost16exception_detail14bad_exception_D0Ev
	.section	.text._ZN5boost16exception_detail10clone_implINS0_14bad_exception_EED1Ev,"axG",@progbits,_ZN5boost16exception_detail10clone_implINS0_14bad_exception_EED1Ev,comdat
	.align 2
	.p2align 4,,15
	.weak	_ZN5boost16exception_detail10clone_implINS0_14bad_exception_EED1Ev
	.type	_ZN5boost16exception_detail10clone_implINS0_14bad_exception_EED1Ev, @function
_ZN5boost16exception_detail10clone_implINS0_14bad_exception_EED1Ev:
.LFB11927:
	.cfi_startproc
	movq	$_ZTVN5boost16exception_detail10clone_implINS0_14bad_exception_EEE+24, (%rdi)
	movq	$_ZTVN5boost16exception_detail10clone_implINS0_14bad_exception_EEE+72, 40(%rdi)
	movq	$_ZTVN5boost16exception_detail10clone_implINS0_14bad_exception_EEE+136, 48(%rdi)
	jmp	_ZN5boost16exception_detail14bad_exception_D2Ev
	.cfi_endproc
.LFE11927:
	.size	_ZN5boost16exception_detail10clone_implINS0_14bad_exception_EED1Ev, .-_ZN5boost16exception_detail10clone_implINS0_14bad_exception_EED1Ev
	.section	.text._ZN5boost16exception_detail10clone_implINS0_14bad_exception_EED0Ev,"axG",@progbits,_ZN5boost16exception_detail10clone_implINS0_14bad_exception_EED0Ev,comdat
	.align 2
	.p2align 4,,15
	.weak	_ZN5boost16exception_detail10clone_implINS0_14bad_exception_EED0Ev
	.type	_ZN5boost16exception_detail10clone_implINS0_14bad_exception_EED0Ev, @function
_ZN5boost16exception_detail10clone_implINS0_14bad_exception_EED0Ev:
.LFB11928:
	.cfi_startproc
	pushq	%rbx
	.cfi_def_cfa_offset 16
	.cfi_offset 3, -16
	movq	%rdi, %rbx
	movq	$_ZTVN5boost16exception_detail10clone_implINS0_14bad_exception_EEE+24, (%rdi)
	movq	$_ZTVN5boost16exception_detail10clone_implINS0_14bad_exception_EEE+72, 40(%rdi)
	movq	$_ZTVN5boost16exception_detail10clone_implINS0_14bad_exception_EEE+136, 48(%rdi)
	call	_ZN5boost16exception_detail14bad_exception_D2Ev
	movq	%rbx, %rdi
	movl	$56, %esi
	popq	%rbx
	.cfi_def_cfa_offset 8
	jmp	_ZdlPvm
	.cfi_endproc
.LFE11928:
	.size	_ZN5boost16exception_detail10clone_implINS0_14bad_exception_EED0Ev, .-_ZN5boost16exception_detail10clone_implINS0_14bad_exception_EED0Ev
	.section	.text._ZN5boost16exception_detail39current_exception_std_exception_wrapperISt13bad_exceptionED2Ev,"axG",@progbits,_ZN5boost16exception_detail39current_exception_std_exception_wrapperISt13bad_exceptionED5Ev,comdat
	.align 2
	.p2align 4,,15
	.weak	_ZN5boost16exception_detail39current_exception_std_exception_wrapperISt13bad_exceptionED2Ev
	.type	_ZN5boost16exception_detail39current_exception_std_exception_wrapperISt13bad_exceptionED2Ev, @function
_ZN5boost16exception_detail39current_exception_std_exception_wrapperISt13bad_exceptionED2Ev:
.LFB12129:
	.cfi_startproc
	.cfi_personality 0x3,__gxx_personality_v0
	.cfi_lsda 0x3,.LLSDA12129
	pushq	%rbx
	.cfi_def_cfa_offset 16
	.cfi_offset 3, -16
	movq	%rdi, %rbx
	movq	$_ZTVN5boost16exception_detail39current_exception_std_exception_wrapperISt13bad_exceptionEE+16, (%rdi)
	movq	$_ZTVN5boost9exceptionE+16, 8(%rdi)
	movq	16(%rdi), %rdi
	testq	%rdi, %rdi
	je	.L242
	movq	(%rdi), %rax
	call	*32(%rax)
.L242:
	movq	%rbx, %rdi
	popq	%rbx
	.cfi_def_cfa_offset 8
	jmp	_ZNSt13bad_exceptionD2Ev
	.cfi_endproc
.LFE12129:
	.section	.gcc_except_table._ZN5boost16exception_detail39current_exception_std_exception_wrapperISt13bad_exceptionED2Ev,"aG",@progbits,_ZN5boost16exception_detail39current_exception_std_exception_wrapperISt13bad_exceptionED5Ev,comdat
.LLSDA12129:
	.byte	0xff
	.byte	0xff
	.byte	0x1
	.uleb128 .LLSDACSE12129-.LLSDACSB12129
.LLSDACSB12129:
.LLSDACSE12129:
	.section	.text._ZN5boost16exception_detail39current_exception_std_exception_wrapperISt13bad_exceptionED2Ev,"axG",@progbits,_ZN5boost16exception_detail39current_exception_std_exception_wrapperISt13bad_exceptionED5Ev,comdat
	.size	_ZN5boost16exception_detail39current_exception_std_exception_wrapperISt13bad_exceptionED2Ev, .-_ZN5boost16exception_detail39current_exception_std_exception_wrapperISt13bad_exceptionED2Ev
	.weak	_ZN5boost16exception_detail39current_exception_std_exception_wrapperISt13bad_exceptionED1Ev
	.set	_ZN5boost16exception_detail39current_exception_std_exception_wrapperISt13bad_exceptionED1Ev,_ZN5boost16exception_detail39current_exception_std_exception_wrapperISt13bad_exceptionED2Ev
	.set	.LTHUNK86,_ZN5boost16exception_detail39current_exception_std_exception_wrapperISt13bad_exceptionED1Ev
	.p2align 4,,15
	.weak	_ZThn8_N5boost16exception_detail39current_exception_std_exception_wrapperISt13bad_exceptionED1Ev
	.type	_ZThn8_N5boost16exception_detail39current_exception_std_exception_wrapperISt13bad_exceptionED1Ev, @function
_ZThn8_N5boost16exception_detail39current_exception_std_exception_wrapperISt13bad_exceptionED1Ev:
.LFB15093:
	.cfi_startproc
	subq	$8, %rdi
	jmp	.LTHUNK86
	.cfi_endproc
.LFE15093:
	.size	_ZThn8_N5boost16exception_detail39current_exception_std_exception_wrapperISt13bad_exceptionED1Ev, .-_ZThn8_N5boost16exception_detail39current_exception_std_exception_wrapperISt13bad_exceptionED1Ev
	.section	.text._ZN5boost16exception_detail39current_exception_std_exception_wrapperISt13bad_exceptionED0Ev,"axG",@progbits,_ZN5boost16exception_detail39current_exception_std_exception_wrapperISt13bad_exceptionED5Ev,comdat
	.align 2
	.p2align 4,,15
	.weak	_ZN5boost16exception_detail39current_exception_std_exception_wrapperISt13bad_exceptionED0Ev
	.type	_ZN5boost16exception_detail39current_exception_std_exception_wrapperISt13bad_exceptionED0Ev, @function
_ZN5boost16exception_detail39current_exception_std_exception_wrapperISt13bad_exceptionED0Ev:
.LFB12131:
	.cfi_startproc
	pushq	%rbx
	.cfi_def_cfa_offset 16
	.cfi_offset 3, -16
	movq	%rdi, %rbx
	call	_ZN5boost16exception_detail39current_exception_std_exception_wrapperISt13bad_exceptionED1Ev
	movq	%rbx, %rdi
	movl	$48, %esi
	popq	%rbx
	.cfi_def_cfa_offset 8
	jmp	_ZdlPvm
	.cfi_endproc
.LFE12131:
	.size	_ZN5boost16exception_detail39current_exception_std_exception_wrapperISt13bad_exceptionED0Ev, .-_ZN5boost16exception_detail39current_exception_std_exception_wrapperISt13bad_exceptionED0Ev
	.section	.text._ZN5boost16exception_detail10clone_implINS0_39current_exception_std_exception_wrapperISt13bad_exceptionEEED1Ev,"axG",@progbits,_ZN5boost16exception_detail10clone_implINS0_39current_exception_std_exception_wrapperISt13bad_exceptionEEED1Ev,comdat
	.align 2
	.p2align 4,,15
	.weak	_ZN5boost16exception_detail10clone_implINS0_39current_exception_std_exception_wrapperISt13bad_exceptionEEED1Ev
	.type	_ZN5boost16exception_detail10clone_implINS0_39current_exception_std_exception_wrapperISt13bad_exceptionEEED1Ev, @function
_ZN5boost16exception_detail10clone_implINS0_39current_exception_std_exception_wrapperISt13bad_exceptionEEED1Ev:
.LFB12772:
	.cfi_startproc
	movq	$_ZTVN5boost16exception_detail10clone_implINS0_39current_exception_std_exception_wrapperISt13bad_exceptionEEEE+24, (%rdi)
	movq	$_ZTVN5boost16exception_detail10clone_implINS0_39current_exception_std_exception_wrapperISt13bad_exceptionEEEE+80, 8(%rdi)
	movq	$_ZTVN5boost16exception_detail10clone_implINS0_39current_exception_std_exception_wrapperISt13bad_exceptionEEEE+136, 48(%rdi)
	jmp	_ZN5boost16exception_detail39current_exception_std_exception_wrapperISt13bad_exceptionED2Ev
	.cfi_endproc
.LFE12772:
	.size	_ZN5boost16exception_detail10clone_implINS0_39current_exception_std_exception_wrapperISt13bad_exceptionEEED1Ev, .-_ZN5boost16exception_detail10clone_implINS0_39current_exception_std_exception_wrapperISt13bad_exceptionEEED1Ev
	.section	.text._ZN5boost16exception_detail10clone_implINS0_39current_exception_std_exception_wrapperISt13bad_exceptionEEED0Ev,"axG",@progbits,_ZN5boost16exception_detail10clone_implINS0_39current_exception_std_exception_wrapperISt13bad_exceptionEEED0Ev,comdat
	.align 2
	.p2align 4,,15
	.weak	_ZN5boost16exception_detail10clone_implINS0_39current_exception_std_exception_wrapperISt13bad_exceptionEEED0Ev
	.type	_ZN5boost16exception_detail10clone_implINS0_39current_exception_std_exception_wrapperISt13bad_exceptionEEED0Ev, @function
_ZN5boost16exception_detail10clone_implINS0_39current_exception_std_exception_wrapperISt13bad_exceptionEEED0Ev:
.LFB12773:
	.cfi_startproc
	pushq	%rbx
	.cfi_def_cfa_offset 16
	.cfi_offset 3, -16
	movq	%rdi, %rbx
	movq	$_ZTVN5boost16exception_detail10clone_implINS0_39current_exception_std_exception_wrapperISt13bad_exceptionEEEE+24, (%rdi)
	movq	$_ZTVN5boost16exception_detail10clone_implINS0_39current_exception_std_exception_wrapperISt13bad_exceptionEEEE+80, 8(%rdi)
	movq	$_ZTVN5boost16exception_detail10clone_implINS0_39current_exception_std_exception_wrapperISt13bad_exceptionEEEE+136, 48(%rdi)
	call	_ZN5boost16exception_detail39current_exception_std_exception_wrapperISt13bad_exceptionED2Ev
	movq	%rbx, %rdi
	movl	$56, %esi
	popq	%rbx
	.cfi_def_cfa_offset 8
	jmp	_ZdlPvm
	.cfi_endproc
.LFE12773:
	.size	_ZN5boost16exception_detail10clone_implINS0_39current_exception_std_exception_wrapperISt13bad_exceptionEEED0Ev, .-_ZN5boost16exception_detail10clone_implINS0_39current_exception_std_exception_wrapperISt13bad_exceptionEEED0Ev
	.section	.text._ZN5boost16exception_detail10bad_alloc_D2Ev,"axG",@progbits,_ZN5boost16exception_detail10bad_alloc_D5Ev,comdat
	.align 2
	.p2align 4,,15
	.weak	_ZN5boost16exception_detail10bad_alloc_D2Ev
	.type	_ZN5boost16exception_detail10bad_alloc_D2Ev, @function
_ZN5boost16exception_detail10bad_alloc_D2Ev:
.LFB6968:
	.cfi_startproc
	.cfi_personality 0x3,__gxx_personality_v0
	.cfi_lsda 0x3,.LLSDA6968
	pushq	%rbx
	.cfi_def_cfa_offset 16
	.cfi_offset 3, -16
	movq	$_ZTVN5boost16exception_detail10bad_alloc_E+16, (%rdi)
	movq	%rdi, %rbx
	movq	$_ZTVN5boost16exception_detail10bad_alloc_E+48, 40(%rdi)
	addq	$40, %rdi
	call	_ZNSt9bad_allocD2Ev
	movq	8(%rbx), %rdi
	movq	$_ZTVN5boost9exceptionE+16, (%rbx)
	testq	%rdi, %rdi
	je	.L252
	movq	(%rdi), %rax
	popq	%rbx
	.cfi_remember_state
	.cfi_def_cfa_offset 8
	movq	32(%rax), %rax
	jmp	*%rax
	.p2align 4,,10
	.p2align 3
.L252:
	.cfi_restore_state
	popq	%rbx
	.cfi_def_cfa_offset 8
	ret
	.cfi_endproc
.LFE6968:
	.section	.gcc_except_table._ZN5boost16exception_detail10bad_alloc_D2Ev,"aG",@progbits,_ZN5boost16exception_detail10bad_alloc_D5Ev,comdat
.LLSDA6968:
	.byte	0xff
	.byte	0xff
	.byte	0x1
	.uleb128 .LLSDACSE6968-.LLSDACSB6968
.LLSDACSB6968:
.LLSDACSE6968:
	.section	.text._ZN5boost16exception_detail10bad_alloc_D2Ev,"axG",@progbits,_ZN5boost16exception_detail10bad_alloc_D5Ev,comdat
	.size	_ZN5boost16exception_detail10bad_alloc_D2Ev, .-_ZN5boost16exception_detail10bad_alloc_D2Ev
	.set	.LTHUNK0,_ZN5boost16exception_detail10bad_alloc_D2Ev
	.p2align 4,,15
	.weak	_ZThn40_N5boost16exception_detail10bad_alloc_D1Ev
	.type	_ZThn40_N5boost16exception_detail10bad_alloc_D1Ev, @function
_ZThn40_N5boost16exception_detail10bad_alloc_D1Ev:
.LFB15097:
	.cfi_startproc
	subq	$40, %rdi
	jmp	.LTHUNK0
	.cfi_endproc
.LFE15097:
	.size	_ZThn40_N5boost16exception_detail10bad_alloc_D1Ev, .-_ZThn40_N5boost16exception_detail10bad_alloc_D1Ev
	.weak	_ZN5boost16exception_detail10bad_alloc_D1Ev
	.set	_ZN5boost16exception_detail10bad_alloc_D1Ev,_ZN5boost16exception_detail10bad_alloc_D2Ev
	.section	.text._ZN5boost16exception_detail10bad_alloc_D0Ev,"axG",@progbits,_ZN5boost16exception_detail10bad_alloc_D5Ev,comdat
	.align 2
	.p2align 4,,15
	.weak	_ZN5boost16exception_detail10bad_alloc_D0Ev
	.type	_ZN5boost16exception_detail10bad_alloc_D0Ev, @function
_ZN5boost16exception_detail10bad_alloc_D0Ev:
.LFB6970:
	.cfi_startproc
	pushq	%rbx
	.cfi_def_cfa_offset 16
	.cfi_offset 3, -16
	movq	%rdi, %rbx
	call	_ZN5boost16exception_detail10bad_alloc_D1Ev
	movq	%rbx, %rdi
	movl	$48, %esi
	popq	%rbx
	.cfi_def_cfa_offset 8
	jmp	_ZdlPvm
	.cfi_endproc
.LFE6970:
	.size	_ZN5boost16exception_detail10bad_alloc_D0Ev, .-_ZN5boost16exception_detail10bad_alloc_D0Ev
	.section	.text._ZN5boost16exception_detail10clone_implINS0_10bad_alloc_EED1Ev,"axG",@progbits,_ZN5boost16exception_detail10clone_implINS0_10bad_alloc_EED1Ev,comdat
	.align 2
	.p2align 4,,15
	.weak	_ZN5boost16exception_detail10clone_implINS0_10bad_alloc_EED1Ev
	.type	_ZN5boost16exception_detail10clone_implINS0_10bad_alloc_EED1Ev, @function
_ZN5boost16exception_detail10clone_implINS0_10bad_alloc_EED1Ev:
.LFB11911:
	.cfi_startproc
	movq	$_ZTVN5boost16exception_detail10clone_implINS0_10bad_alloc_EEE+24, (%rdi)
	movq	$_ZTVN5boost16exception_detail10clone_implINS0_10bad_alloc_EEE+72, 40(%rdi)
	movq	$_ZTVN5boost16exception_detail10clone_implINS0_10bad_alloc_EEE+136, 48(%rdi)
	jmp	_ZN5boost16exception_detail10bad_alloc_D2Ev
	.cfi_endproc
.LFE11911:
	.size	_ZN5boost16exception_detail10clone_implINS0_10bad_alloc_EED1Ev, .-_ZN5boost16exception_detail10clone_implINS0_10bad_alloc_EED1Ev
	.section	.text._ZN5boost16exception_detail10clone_implINS0_10bad_alloc_EED0Ev,"axG",@progbits,_ZN5boost16exception_detail10clone_implINS0_10bad_alloc_EED0Ev,comdat
	.align 2
	.p2align 4,,15
	.weak	_ZN5boost16exception_detail10clone_implINS0_10bad_alloc_EED0Ev
	.type	_ZN5boost16exception_detail10clone_implINS0_10bad_alloc_EED0Ev, @function
_ZN5boost16exception_detail10clone_implINS0_10bad_alloc_EED0Ev:
.LFB11912:
	.cfi_startproc
	pushq	%rbx
	.cfi_def_cfa_offset 16
	.cfi_offset 3, -16
	movq	%rdi, %rbx
	movq	$_ZTVN5boost16exception_detail10clone_implINS0_10bad_alloc_EEE+24, (%rdi)
	movq	$_ZTVN5boost16exception_detail10clone_implINS0_10bad_alloc_EEE+72, 40(%rdi)
	movq	$_ZTVN5boost16exception_detail10clone_implINS0_10bad_alloc_EEE+136, 48(%rdi)
	call	_ZN5boost16exception_detail10bad_alloc_D2Ev
	movq	%rbx, %rdi
	movl	$56, %esi
	popq	%rbx
	.cfi_def_cfa_offset 8
	jmp	_ZdlPvm
	.cfi_endproc
.LFE11912:
	.size	_ZN5boost16exception_detail10clone_implINS0_10bad_alloc_EED0Ev, .-_ZN5boost16exception_detail10clone_implINS0_10bad_alloc_EED0Ev
	.section	.text._ZN5boost16exception_detail39current_exception_std_exception_wrapperISt9bad_allocED2Ev,"axG",@progbits,_ZN5boost16exception_detail39current_exception_std_exception_wrapperISt9bad_allocED5Ev,comdat
	.align 2
	.p2align 4,,15
	.weak	_ZN5boost16exception_detail39current_exception_std_exception_wrapperISt9bad_allocED2Ev
	.type	_ZN5boost16exception_detail39current_exception_std_exception_wrapperISt9bad_allocED2Ev, @function
_ZN5boost16exception_detail39current_exception_std_exception_wrapperISt9bad_allocED2Ev:
.LFB12087:
	.cfi_startproc
	.cfi_personality 0x3,__gxx_personality_v0
	.cfi_lsda 0x3,.LLSDA12087
	pushq	%rbx
	.cfi_def_cfa_offset 16
	.cfi_offset 3, -16
	movq	%rdi, %rbx
	movq	$_ZTVN5boost16exception_detail39current_exception_std_exception_wrapperISt9bad_allocEE+16, (%rdi)
	movq	$_ZTVN5boost9exceptionE+16, 8(%rdi)
	movq	16(%rdi), %rdi
	testq	%rdi, %rdi
	je	.L261
	movq	(%rdi), %rax
	call	*32(%rax)
.L261:
	movq	%rbx, %rdi
	popq	%rbx
	.cfi_def_cfa_offset 8
	jmp	_ZNSt9bad_allocD2Ev
	.cfi_endproc
.LFE12087:
	.section	.gcc_except_table._ZN5boost16exception_detail39current_exception_std_exception_wrapperISt9bad_allocED2Ev,"aG",@progbits,_ZN5boost16exception_detail39current_exception_std_exception_wrapperISt9bad_allocED5Ev,comdat
.LLSDA12087:
	.byte	0xff
	.byte	0xff
	.byte	0x1
	.uleb128 .LLSDACSE12087-.LLSDACSB12087
.LLSDACSB12087:
.LLSDACSE12087:
	.section	.text._ZN5boost16exception_detail39current_exception_std_exception_wrapperISt9bad_allocED2Ev,"axG",@progbits,_ZN5boost16exception_detail39current_exception_std_exception_wrapperISt9bad_allocED5Ev,comdat
	.size	_ZN5boost16exception_detail39current_exception_std_exception_wrapperISt9bad_allocED2Ev, .-_ZN5boost16exception_detail39current_exception_std_exception_wrapperISt9bad_allocED2Ev
	.weak	_ZN5boost16exception_detail39current_exception_std_exception_wrapperISt9bad_allocED1Ev
	.set	_ZN5boost16exception_detail39current_exception_std_exception_wrapperISt9bad_allocED1Ev,_ZN5boost16exception_detail39current_exception_std_exception_wrapperISt9bad_allocED2Ev
	.set	.LTHUNK80,_ZN5boost16exception_detail39current_exception_std_exception_wrapperISt9bad_allocED1Ev
	.p2align 4,,15
	.weak	_ZThn8_N5boost16exception_detail39current_exception_std_exception_wrapperISt9bad_allocED1Ev
	.type	_ZThn8_N5boost16exception_detail39current_exception_std_exception_wrapperISt9bad_allocED1Ev, @function
_ZThn8_N5boost16exception_detail39current_exception_std_exception_wrapperISt9bad_allocED1Ev:
.LFB15101:
	.cfi_startproc
	subq	$8, %rdi
	jmp	.LTHUNK80
	.cfi_endproc
.LFE15101:
	.size	_ZThn8_N5boost16exception_detail39current_exception_std_exception_wrapperISt9bad_allocED1Ev, .-_ZThn8_N5boost16exception_detail39current_exception_std_exception_wrapperISt9bad_allocED1Ev
	.section	.text._ZN5boost16exception_detail39current_exception_std_exception_wrapperISt9bad_allocED0Ev,"axG",@progbits,_ZN5boost16exception_detail39current_exception_std_exception_wrapperISt9bad_allocED5Ev,comdat
	.align 2
	.p2align 4,,15
	.weak	_ZN5boost16exception_detail39current_exception_std_exception_wrapperISt9bad_allocED0Ev
	.type	_ZN5boost16exception_detail39current_exception_std_exception_wrapperISt9bad_allocED0Ev, @function
_ZN5boost16exception_detail39current_exception_std_exception_wrapperISt9bad_allocED0Ev:
.LFB12089:
	.cfi_startproc
	pushq	%rbx
	.cfi_def_cfa_offset 16
	.cfi_offset 3, -16
	movq	%rdi, %rbx
	call	_ZN5boost16exception_detail39current_exception_std_exception_wrapperISt9bad_allocED1Ev
	movq	%rbx, %rdi
	movl	$48, %esi
	popq	%rbx
	.cfi_def_cfa_offset 8
	jmp	_ZdlPvm
	.cfi_endproc
.LFE12089:
	.size	_ZN5boost16exception_detail39current_exception_std_exception_wrapperISt9bad_allocED0Ev, .-_ZN5boost16exception_detail39current_exception_std_exception_wrapperISt9bad_allocED0Ev
	.section	.text._ZN5boost16exception_detail10clone_implINS0_39current_exception_std_exception_wrapperISt9bad_allocEEED1Ev,"axG",@progbits,_ZN5boost16exception_detail10clone_implINS0_39current_exception_std_exception_wrapperISt9bad_allocEEED1Ev,comdat
	.align 2
	.p2align 4,,15
	.weak	_ZN5boost16exception_detail10clone_implINS0_39current_exception_std_exception_wrapperISt9bad_allocEEED1Ev
	.type	_ZN5boost16exception_detail10clone_implINS0_39current_exception_std_exception_wrapperISt9bad_allocEEED1Ev, @function
_ZN5boost16exception_detail10clone_implINS0_39current_exception_std_exception_wrapperISt9bad_allocEEED1Ev:
.LFB12754:
	.cfi_startproc
	movq	$_ZTVN5boost16exception_detail10clone_implINS0_39current_exception_std_exception_wrapperISt9bad_allocEEEE+24, (%rdi)
	movq	$_ZTVN5boost16exception_detail10clone_implINS0_39current_exception_std_exception_wrapperISt9bad_allocEEEE+80, 8(%rdi)
	movq	$_ZTVN5boost16exception_detail10clone_implINS0_39current_exception_std_exception_wrapperISt9bad_allocEEEE+136, 48(%rdi)
	jmp	_ZN5boost16exception_detail39current_exception_std_exception_wrapperISt9bad_allocED2Ev
	.cfi_endproc
.LFE12754:
	.size	_ZN5boost16exception_detail10clone_implINS0_39current_exception_std_exception_wrapperISt9bad_allocEEED1Ev, .-_ZN5boost16exception_detail10clone_implINS0_39current_exception_std_exception_wrapperISt9bad_allocEEED1Ev
	.section	.text._ZN5boost16exception_detail10clone_implINS0_39current_exception_std_exception_wrapperISt9bad_allocEEED0Ev,"axG",@progbits,_ZN5boost16exception_detail10clone_implINS0_39current_exception_std_exception_wrapperISt9bad_allocEEED0Ev,comdat
	.align 2
	.p2align 4,,15
	.weak	_ZN5boost16exception_detail10clone_implINS0_39current_exception_std_exception_wrapperISt9bad_allocEEED0Ev
	.type	_ZN5boost16exception_detail10clone_implINS0_39current_exception_std_exception_wrapperISt9bad_allocEEED0Ev, @function
_ZN5boost16exception_detail10clone_implINS0_39current_exception_std_exception_wrapperISt9bad_allocEEED0Ev:
.LFB12755:
	.cfi_startproc
	pushq	%rbx
	.cfi_def_cfa_offset 16
	.cfi_offset 3, -16
	movq	%rdi, %rbx
	movq	$_ZTVN5boost16exception_detail10clone_implINS0_39current_exception_std_exception_wrapperISt9bad_allocEEEE+24, (%rdi)
	movq	$_ZTVN5boost16exception_detail10clone_implINS0_39current_exception_std_exception_wrapperISt9bad_allocEEEE+80, 8(%rdi)
	movq	$_ZTVN5boost16exception_detail10clone_implINS0_39current_exception_std_exception_wrapperISt9bad_allocEEEE+136, 48(%rdi)
	call	_ZN5boost16exception_detail39current_exception_std_exception_wrapperISt9bad_allocED2Ev
	movq	%rbx, %rdi
	movl	$56, %esi
	popq	%rbx
	.cfi_def_cfa_offset 8
	jmp	_ZdlPvm
	.cfi_endproc
.LFE12755:
	.size	_ZN5boost16exception_detail10clone_implINS0_39current_exception_std_exception_wrapperISt9bad_allocEEED0Ev, .-_ZN5boost16exception_detail10clone_implINS0_39current_exception_std_exception_wrapperISt9bad_allocEEED0Ev
	.section	.text._ZN5boost16exception_detail39current_exception_std_exception_wrapperISt12out_of_rangeED2Ev,"axG",@progbits,_ZN5boost16exception_detail39current_exception_std_exception_wrapperISt12out_of_rangeED5Ev,comdat
	.align 2
	.p2align 4,,15
	.weak	_ZN5boost16exception_detail39current_exception_std_exception_wrapperISt12out_of_rangeED2Ev
	.type	_ZN5boost16exception_detail39current_exception_std_exception_wrapperISt12out_of_rangeED2Ev, @function
_ZN5boost16exception_detail39current_exception_std_exception_wrapperISt12out_of_rangeED2Ev:
.LFB11988:
	.cfi_startproc
	.cfi_personality 0x3,__gxx_personality_v0
	.cfi_lsda 0x3,.LLSDA11988
	pushq	%rbx
	.cfi_def_cfa_offset 16
	.cfi_offset 3, -16
	movq	%rdi, %rbx
	movq	$_ZTVN5boost16exception_detail39current_exception_std_exception_wrapperISt12out_of_rangeEE+16, (%rdi)
	movq	$_ZTVN5boost9exceptionE+16, 16(%rdi)
	movq	24(%rdi), %rdi
	testq	%rdi, %rdi
	je	.L272
	movq	(%rdi), %rax
	call	*32(%rax)
.L272:
	movq	%rbx, %rdi
	popq	%rbx
	.cfi_def_cfa_offset 8
	jmp	_ZNSt12out_of_rangeD2Ev
	.cfi_endproc
.LFE11988:
	.section	.gcc_except_table._ZN5boost16exception_detail39current_exception_std_exception_wrapperISt12out_of_rangeED2Ev,"aG",@progbits,_ZN5boost16exception_detail39current_exception_std_exception_wrapperISt12out_of_rangeED5Ev,comdat
.LLSDA11988:
	.byte	0xff
	.byte	0xff
	.byte	0x1
	.uleb128 .LLSDACSE11988-.LLSDACSB11988
.LLSDACSB11988:
.LLSDACSE11988:
	.section	.text._ZN5boost16exception_detail39current_exception_std_exception_wrapperISt12out_of_rangeED2Ev,"axG",@progbits,_ZN5boost16exception_detail39current_exception_std_exception_wrapperISt12out_of_rangeED5Ev,comdat
	.size	_ZN5boost16exception_detail39current_exception_std_exception_wrapperISt12out_of_rangeED2Ev, .-_ZN5boost16exception_detail39current_exception_std_exception_wrapperISt12out_of_rangeED2Ev
	.weak	_ZN5boost16exception_detail39current_exception_std_exception_wrapperISt12out_of_rangeED1Ev
	.set	_ZN5boost16exception_detail39current_exception_std_exception_wrapperISt12out_of_rangeED1Ev,_ZN5boost16exception_detail39current_exception_std_exception_wrapperISt12out_of_rangeED2Ev
	.set	.LTHUNK66,_ZN5boost16exception_detail39current_exception_std_exception_wrapperISt12out_of_rangeED1Ev
	.p2align 4,,15
	.weak	_ZThn16_N5boost16exception_detail39current_exception_std_exception_wrapperISt12out_of_rangeED1Ev
	.type	_ZThn16_N5boost16exception_detail39current_exception_std_exception_wrapperISt12out_of_rangeED1Ev, @function
_ZThn16_N5boost16exception_detail39current_exception_std_exception_wrapperISt12out_of_rangeED1Ev:
.LFB15105:
	.cfi_startproc
	subq	$16, %rdi
	jmp	.LTHUNK66
	.cfi_endproc
.LFE15105:
	.size	_ZThn16_N5boost16exception_detail39current_exception_std_exception_wrapperISt12out_of_rangeED1Ev, .-_ZThn16_N5boost16exception_detail39current_exception_std_exception_wrapperISt12out_of_rangeED1Ev
	.section	.text._ZN5boost16exception_detail39current_exception_std_exception_wrapperISt12out_of_rangeED0Ev,"axG",@progbits,_ZN5boost16exception_detail39current_exception_std_exception_wrapperISt12out_of_rangeED5Ev,comdat
	.align 2
	.p2align 4,,15
	.weak	_ZN5boost16exception_detail39current_exception_std_exception_wrapperISt12out_of_rangeED0Ev
	.type	_ZN5boost16exception_detail39current_exception_std_exception_wrapperISt12out_of_rangeED0Ev, @function
_ZN5boost16exception_detail39current_exception_std_exception_wrapperISt12out_of_rangeED0Ev:
.LFB11990:
	.cfi_startproc
	pushq	%rbx
	.cfi_def_cfa_offset 16
	.cfi_offset 3, -16
	movq	%rdi, %rbx
	call	_ZN5boost16exception_detail39current_exception_std_exception_wrapperISt12out_of_rangeED1Ev
	movq	%rbx, %rdi
	movl	$56, %esi
	popq	%rbx
	.cfi_def_cfa_offset 8
	jmp	_ZdlPvm
	.cfi_endproc
.LFE11990:
	.size	_ZN5boost16exception_detail39current_exception_std_exception_wrapperISt12out_of_rangeED0Ev, .-_ZN5boost16exception_detail39current_exception_std_exception_wrapperISt12out_of_rangeED0Ev
	.section	.text._ZN5boost16exception_detail10clone_implINS0_39current_exception_std_exception_wrapperISt12out_of_rangeEEED1Ev,"axG",@progbits,_ZN5boost16exception_detail10clone_implINS0_39current_exception_std_exception_wrapperISt12out_of_rangeEEED1Ev,comdat
	.align 2
	.p2align 4,,15
	.weak	_ZN5boost16exception_detail10clone_implINS0_39current_exception_std_exception_wrapperISt12out_of_rangeEEED1Ev
	.type	_ZN5boost16exception_detail10clone_implINS0_39current_exception_std_exception_wrapperISt12out_of_rangeEEED1Ev, @function
_ZN5boost16exception_detail10clone_implINS0_39current_exception_std_exception_wrapperISt12out_of_rangeEEED1Ev:
.LFB12712:
	.cfi_startproc
	movq	$_ZTVN5boost16exception_detail10clone_implINS0_39current_exception_std_exception_wrapperISt12out_of_rangeEEEE+24, (%rdi)
	movq	$_ZTVN5boost16exception_detail10clone_implINS0_39current_exception_std_exception_wrapperISt12out_of_rangeEEEE+80, 16(%rdi)
	movq	$_ZTVN5boost16exception_detail10clone_implINS0_39current_exception_std_exception_wrapperISt12out_of_rangeEEEE+136, 56(%rdi)
	jmp	_ZN5boost16exception_detail39current_exception_std_exception_wrapperISt12out_of_rangeED2Ev
	.cfi_endproc
.LFE12712:
	.size	_ZN5boost16exception_detail10clone_implINS0_39current_exception_std_exception_wrapperISt12out_of_rangeEEED1Ev, .-_ZN5boost16exception_detail10clone_implINS0_39current_exception_std_exception_wrapperISt12out_of_rangeEEED1Ev
	.section	.text._ZN5boost16exception_detail10clone_implINS0_39current_exception_std_exception_wrapperISt12out_of_rangeEEED0Ev,"axG",@progbits,_ZN5boost16exception_detail10clone_implINS0_39current_exception_std_exception_wrapperISt12out_of_rangeEEED0Ev,comdat
	.align 2
	.p2align 4,,15
	.weak	_ZN5boost16exception_detail10clone_implINS0_39current_exception_std_exception_wrapperISt12out_of_rangeEEED0Ev
	.type	_ZN5boost16exception_detail10clone_implINS0_39current_exception_std_exception_wrapperISt12out_of_rangeEEED0Ev, @function
_ZN5boost16exception_detail10clone_implINS0_39current_exception_std_exception_wrapperISt12out_of_rangeEEED0Ev:
.LFB12713:
	.cfi_startproc
	pushq	%rbx
	.cfi_def_cfa_offset 16
	.cfi_offset 3, -16
	movq	%rdi, %rbx
	movq	$_ZTVN5boost16exception_detail10clone_implINS0_39current_exception_std_exception_wrapperISt12out_of_rangeEEEE+24, (%rdi)
	movq	$_ZTVN5boost16exception_detail10clone_implINS0_39current_exception_std_exception_wrapperISt12out_of_rangeEEEE+80, 16(%rdi)
	movq	$_ZTVN5boost16exception_detail10clone_implINS0_39current_exception_std_exception_wrapperISt12out_of_rangeEEEE+136, 56(%rdi)
	call	_ZN5boost16exception_detail39current_exception_std_exception_wrapperISt12out_of_rangeED2Ev
	movq	%rbx, %rdi
	movl	$64, %esi
	popq	%rbx
	.cfi_def_cfa_offset 8
	jmp	_ZdlPvm
	.cfi_endproc
.LFE12713:
	.size	_ZN5boost16exception_detail10clone_implINS0_39current_exception_std_exception_wrapperISt12out_of_rangeEEED0Ev, .-_ZN5boost16exception_detail10clone_implINS0_39current_exception_std_exception_wrapperISt12out_of_rangeEEED0Ev
	.section	.text._ZN5boost16exception_detail39current_exception_std_exception_wrapperISt10bad_typeidED2Ev,"axG",@progbits,_ZN5boost16exception_detail39current_exception_std_exception_wrapperISt10bad_typeidED5Ev,comdat
	.align 2
	.p2align 4,,15
	.weak	_ZN5boost16exception_detail39current_exception_std_exception_wrapperISt10bad_typeidED2Ev
	.type	_ZN5boost16exception_detail39current_exception_std_exception_wrapperISt10bad_typeidED2Ev, @function
_ZN5boost16exception_detail39current_exception_std_exception_wrapperISt10bad_typeidED2Ev:
.LFB12117:
	.cfi_startproc
	.cfi_personality 0x3,__gxx_personality_v0
	.cfi_lsda 0x3,.LLSDA12117
	pushq	%rbx
	.cfi_def_cfa_offset 16
	.cfi_offset 3, -16
	movq	%rdi, %rbx
	movq	$_ZTVN5boost16exception_detail39current_exception_std_exception_wrapperISt10bad_typeidEE+16, (%rdi)
	movq	$_ZTVN5boost9exceptionE+16, 8(%rdi)
	movq	16(%rdi), %rdi
	testq	%rdi, %rdi
	je	.L283
	movq	(%rdi), %rax
	call	*32(%rax)
.L283:
	movq	%rbx, %rdi
	popq	%rbx
	.cfi_def_cfa_offset 8
	jmp	_ZNSt10bad_typeidD2Ev
	.cfi_endproc
.LFE12117:
	.section	.gcc_except_table._ZN5boost16exception_detail39current_exception_std_exception_wrapperISt10bad_typeidED2Ev,"aG",@progbits,_ZN5boost16exception_detail39current_exception_std_exception_wrapperISt10bad_typeidED5Ev,comdat
.LLSDA12117:
	.byte	0xff
	.byte	0xff
	.byte	0x1
	.uleb128 .LLSDACSE12117-.LLSDACSB12117
.LLSDACSB12117:
.LLSDACSE12117:
	.section	.text._ZN5boost16exception_detail39current_exception_std_exception_wrapperISt10bad_typeidED2Ev,"axG",@progbits,_ZN5boost16exception_detail39current_exception_std_exception_wrapperISt10bad_typeidED5Ev,comdat
	.size	_ZN5boost16exception_detail39current_exception_std_exception_wrapperISt10bad_typeidED2Ev, .-_ZN5boost16exception_detail39current_exception_std_exception_wrapperISt10bad_typeidED2Ev
	.weak	_ZN5boost16exception_detail39current_exception_std_exception_wrapperISt10bad_typeidED1Ev
	.set	_ZN5boost16exception_detail39current_exception_std_exception_wrapperISt10bad_typeidED1Ev,_ZN5boost16exception_detail39current_exception_std_exception_wrapperISt10bad_typeidED2Ev
	.set	.LTHUNK84,_ZN5boost16exception_detail39current_exception_std_exception_wrapperISt10bad_typeidED1Ev
	.p2align 4,,15
	.weak	_ZThn8_N5boost16exception_detail39current_exception_std_exception_wrapperISt10bad_typeidED1Ev
	.type	_ZThn8_N5boost16exception_detail39current_exception_std_exception_wrapperISt10bad_typeidED1Ev, @function
_ZThn8_N5boost16exception_detail39current_exception_std_exception_wrapperISt10bad_typeidED1Ev:
.LFB15109:
	.cfi_startproc
	subq	$8, %rdi
	jmp	.LTHUNK84
	.cfi_endproc
.LFE15109:
	.size	_ZThn8_N5boost16exception_detail39current_exception_std_exception_wrapperISt10bad_typeidED1Ev, .-_ZThn8_N5boost16exception_detail39current_exception_std_exception_wrapperISt10bad_typeidED1Ev
	.section	.text._ZN5boost16exception_detail39current_exception_std_exception_wrapperISt10bad_typeidED0Ev,"axG",@progbits,_ZN5boost16exception_detail39current_exception_std_exception_wrapperISt10bad_typeidED5Ev,comdat
	.align 2
	.p2align 4,,15
	.weak	_ZN5boost16exception_detail39current_exception_std_exception_wrapperISt10bad_typeidED0Ev
	.type	_ZN5boost16exception_detail39current_exception_std_exception_wrapperISt10bad_typeidED0Ev, @function
_ZN5boost16exception_detail39current_exception_std_exception_wrapperISt10bad_typeidED0Ev:
.LFB12119:
	.cfi_startproc
	pushq	%rbx
	.cfi_def_cfa_offset 16
	.cfi_offset 3, -16
	movq	%rdi, %rbx
	call	_ZN5boost16exception_detail39current_exception_std_exception_wrapperISt10bad_typeidED1Ev
	movq	%rbx, %rdi
	movl	$48, %esi
	popq	%rbx
	.cfi_def_cfa_offset 8
	jmp	_ZdlPvm
	.cfi_endproc
.LFE12119:
	.size	_ZN5boost16exception_detail39current_exception_std_exception_wrapperISt10bad_typeidED0Ev, .-_ZN5boost16exception_detail39current_exception_std_exception_wrapperISt10bad_typeidED0Ev
	.section	.text._ZN5boost16exception_detail10clone_implINS0_39current_exception_std_exception_wrapperISt10bad_typeidEEED1Ev,"axG",@progbits,_ZN5boost16exception_detail10clone_implINS0_39current_exception_std_exception_wrapperISt10bad_typeidEEED1Ev,comdat
	.align 2
	.p2align 4,,15
	.weak	_ZN5boost16exception_detail10clone_implINS0_39current_exception_std_exception_wrapperISt10bad_typeidEEED1Ev
	.type	_ZN5boost16exception_detail10clone_implINS0_39current_exception_std_exception_wrapperISt10bad_typeidEEED1Ev, @function
_ZN5boost16exception_detail10clone_implINS0_39current_exception_std_exception_wrapperISt10bad_typeidEEED1Ev:
.LFB12766:
	.cfi_startproc
	movq	$_ZTVN5boost16exception_detail10clone_implINS0_39current_exception_std_exception_wrapperISt10bad_typeidEEEE+24, (%rdi)
	movq	$_ZTVN5boost16exception_detail10clone_implINS0_39current_exception_std_exception_wrapperISt10bad_typeidEEEE+80, 8(%rdi)
	movq	$_ZTVN5boost16exception_detail10clone_implINS0_39current_exception_std_exception_wrapperISt10bad_typeidEEEE+136, 48(%rdi)
	jmp	_ZN5boost16exception_detail39current_exception_std_exception_wrapperISt10bad_typeidED2Ev
	.cfi_endproc
.LFE12766:
	.size	_ZN5boost16exception_detail10clone_implINS0_39current_exception_std_exception_wrapperISt10bad_typeidEEED1Ev, .-_ZN5boost16exception_detail10clone_implINS0_39current_exception_std_exception_wrapperISt10bad_typeidEEED1Ev
	.section	.text._ZN5boost16exception_detail10clone_implINS0_39current_exception_std_exception_wrapperISt10bad_typeidEEED0Ev,"axG",@progbits,_ZN5boost16exception_detail10clone_implINS0_39current_exception_std_exception_wrapperISt10bad_typeidEEED0Ev,comdat
	.align 2
	.p2align 4,,15
	.weak	_ZN5boost16exception_detail10clone_implINS0_39current_exception_std_exception_wrapperISt10bad_typeidEEED0Ev
	.type	_ZN5boost16exception_detail10clone_implINS0_39current_exception_std_exception_wrapperISt10bad_typeidEEED0Ev, @function
_ZN5boost16exception_detail10clone_implINS0_39current_exception_std_exception_wrapperISt10bad_typeidEEED0Ev:
.LFB12767:
	.cfi_startproc
	pushq	%rbx
	.cfi_def_cfa_offset 16
	.cfi_offset 3, -16
	movq	%rdi, %rbx
	movq	$_ZTVN5boost16exception_detail10clone_implINS0_39current_exception_std_exception_wrapperISt10bad_typeidEEEE+24, (%rdi)
	movq	$_ZTVN5boost16exception_detail10clone_implINS0_39current_exception_std_exception_wrapperISt10bad_typeidEEEE+80, 8(%rdi)
	movq	$_ZTVN5boost16exception_detail10clone_implINS0_39current_exception_std_exception_wrapperISt10bad_typeidEEEE+136, 48(%rdi)
	call	_ZN5boost16exception_detail39current_exception_std_exception_wrapperISt10bad_typeidED2Ev
	movq	%rbx, %rdi
	movl	$56, %esi
	popq	%rbx
	.cfi_def_cfa_offset 8
	jmp	_ZdlPvm
	.cfi_endproc
.LFE12767:
	.size	_ZN5boost16exception_detail10clone_implINS0_39current_exception_std_exception_wrapperISt10bad_typeidEEED0Ev, .-_ZN5boost16exception_detail10clone_implINS0_39current_exception_std_exception_wrapperISt10bad_typeidEEED0Ev
	.section	.text._ZN5boost16exception_detail39current_exception_std_exception_wrapperISt8bad_castED2Ev,"axG",@progbits,_ZN5boost16exception_detail39current_exception_std_exception_wrapperISt8bad_castED5Ev,comdat
	.align 2
	.p2align 4,,15
	.weak	_ZN5boost16exception_detail39current_exception_std_exception_wrapperISt8bad_castED2Ev
	.type	_ZN5boost16exception_detail39current_exception_std_exception_wrapperISt8bad_castED2Ev, @function
_ZN5boost16exception_detail39current_exception_std_exception_wrapperISt8bad_castED2Ev:
.LFB12102:
	.cfi_startproc
	.cfi_personality 0x3,__gxx_personality_v0
	.cfi_lsda 0x3,.LLSDA12102
	pushq	%rbx
	.cfi_def_cfa_offset 16
	.cfi_offset 3, -16
	movq	%rdi, %rbx
	movq	$_ZTVN5boost16exception_detail39current_exception_std_exception_wrapperISt8bad_castEE+16, (%rdi)
	movq	$_ZTVN5boost9exceptionE+16, 8(%rdi)
	movq	16(%rdi), %rdi
	testq	%rdi, %rdi
	je	.L294
	movq	(%rdi), %rax
	call	*32(%rax)
.L294:
	movq	%rbx, %rdi
	popq	%rbx
	.cfi_def_cfa_offset 8
	jmp	_ZNSt8bad_castD2Ev
	.cfi_endproc
.LFE12102:
	.section	.gcc_except_table._ZN5boost16exception_detail39current_exception_std_exception_wrapperISt8bad_castED2Ev,"aG",@progbits,_ZN5boost16exception_detail39current_exception_std_exception_wrapperISt8bad_castED5Ev,comdat
.LLSDA12102:
	.byte	0xff
	.byte	0xff
	.byte	0x1
	.uleb128 .LLSDACSE12102-.LLSDACSB12102
.LLSDACSB12102:
.LLSDACSE12102:
	.section	.text._ZN5boost16exception_detail39current_exception_std_exception_wrapperISt8bad_castED2Ev,"axG",@progbits,_ZN5boost16exception_detail39current_exception_std_exception_wrapperISt8bad_castED5Ev,comdat
	.size	_ZN5boost16exception_detail39current_exception_std_exception_wrapperISt8bad_castED2Ev, .-_ZN5boost16exception_detail39current_exception_std_exception_wrapperISt8bad_castED2Ev
	.weak	_ZN5boost16exception_detail39current_exception_std_exception_wrapperISt8bad_castED1Ev
	.set	_ZN5boost16exception_detail39current_exception_std_exception_wrapperISt8bad_castED1Ev,_ZN5boost16exception_detail39current_exception_std_exception_wrapperISt8bad_castED2Ev
	.set	.LTHUNK82,_ZN5boost16exception_detail39current_exception_std_exception_wrapperISt8bad_castED1Ev
	.p2align 4,,15
	.weak	_ZThn8_N5boost16exception_detail39current_exception_std_exception_wrapperISt8bad_castED1Ev
	.type	_ZThn8_N5boost16exception_detail39current_exception_std_exception_wrapperISt8bad_castED1Ev, @function
_ZThn8_N5boost16exception_detail39current_exception_std_exception_wrapperISt8bad_castED1Ev:
.LFB15113:
	.cfi_startproc
	subq	$8, %rdi
	jmp	.LTHUNK82
	.cfi_endproc
.LFE15113:
	.size	_ZThn8_N5boost16exception_detail39current_exception_std_exception_wrapperISt8bad_castED1Ev, .-_ZThn8_N5boost16exception_detail39current_exception_std_exception_wrapperISt8bad_castED1Ev
	.section	.text._ZN5boost16exception_detail39current_exception_std_exception_wrapperISt8bad_castED0Ev,"axG",@progbits,_ZN5boost16exception_detail39current_exception_std_exception_wrapperISt8bad_castED5Ev,comdat
	.align 2
	.p2align 4,,15
	.weak	_ZN5boost16exception_detail39current_exception_std_exception_wrapperISt8bad_castED0Ev
	.type	_ZN5boost16exception_detail39current_exception_std_exception_wrapperISt8bad_castED0Ev, @function
_ZN5boost16exception_detail39current_exception_std_exception_wrapperISt8bad_castED0Ev:
.LFB12104:
	.cfi_startproc
	pushq	%rbx
	.cfi_def_cfa_offset 16
	.cfi_offset 3, -16
	movq	%rdi, %rbx
	call	_ZN5boost16exception_detail39current_exception_std_exception_wrapperISt8bad_castED1Ev
	movq	%rbx, %rdi
	movl	$48, %esi
	popq	%rbx
	.cfi_def_cfa_offset 8
	jmp	_ZdlPvm
	.cfi_endproc
.LFE12104:
	.size	_ZN5boost16exception_detail39current_exception_std_exception_wrapperISt8bad_castED0Ev, .-_ZN5boost16exception_detail39current_exception_std_exception_wrapperISt8bad_castED0Ev
	.section	.text._ZN5boost16exception_detail10clone_implINS0_39current_exception_std_exception_wrapperISt8bad_castEEED1Ev,"axG",@progbits,_ZN5boost16exception_detail10clone_implINS0_39current_exception_std_exception_wrapperISt8bad_castEEED1Ev,comdat
	.align 2
	.p2align 4,,15
	.weak	_ZN5boost16exception_detail10clone_implINS0_39current_exception_std_exception_wrapperISt8bad_castEEED1Ev
	.type	_ZN5boost16exception_detail10clone_implINS0_39current_exception_std_exception_wrapperISt8bad_castEEED1Ev, @function
_ZN5boost16exception_detail10clone_implINS0_39current_exception_std_exception_wrapperISt8bad_castEEED1Ev:
.LFB12760:
	.cfi_startproc
	movq	$_ZTVN5boost16exception_detail10clone_implINS0_39current_exception_std_exception_wrapperISt8bad_castEEEE+24, (%rdi)
	movq	$_ZTVN5boost16exception_detail10clone_implINS0_39current_exception_std_exception_wrapperISt8bad_castEEEE+80, 8(%rdi)
	movq	$_ZTVN5boost16exception_detail10clone_implINS0_39current_exception_std_exception_wrapperISt8bad_castEEEE+136, 48(%rdi)
	jmp	_ZN5boost16exception_detail39current_exception_std_exception_wrapperISt8bad_castED2Ev
	.cfi_endproc
.LFE12760:
	.size	_ZN5boost16exception_detail10clone_implINS0_39current_exception_std_exception_wrapperISt8bad_castEEED1Ev, .-_ZN5boost16exception_detail10clone_implINS0_39current_exception_std_exception_wrapperISt8bad_castEEED1Ev
	.section	.text._ZN5boost16exception_detail10clone_implINS0_39current_exception_std_exception_wrapperISt8bad_castEEED0Ev,"axG",@progbits,_ZN5boost16exception_detail10clone_implINS0_39current_exception_std_exception_wrapperISt8bad_castEEED0Ev,comdat
	.align 2
	.p2align 4,,15
	.weak	_ZN5boost16exception_detail10clone_implINS0_39current_exception_std_exception_wrapperISt8bad_castEEED0Ev
	.type	_ZN5boost16exception_detail10clone_implINS0_39current_exception_std_exception_wrapperISt8bad_castEEED0Ev, @function
_ZN5boost16exception_detail10clone_implINS0_39current_exception_std_exception_wrapperISt8bad_castEEED0Ev:
.LFB12761:
	.cfi_startproc
	pushq	%rbx
	.cfi_def_cfa_offset 16
	.cfi_offset 3, -16
	movq	%rdi, %rbx
	movq	$_ZTVN5boost16exception_detail10clone_implINS0_39current_exception_std_exception_wrapperISt8bad_castEEEE+24, (%rdi)
	movq	$_ZTVN5boost16exception_detail10clone_implINS0_39current_exception_std_exception_wrapperISt8bad_castEEEE+80, 8(%rdi)
	movq	$_ZTVN5boost16exception_detail10clone_implINS0_39current_exception_std_exception_wrapperISt8bad_castEEEE+136, 48(%rdi)
	call	_ZN5boost16exception_detail39current_exception_std_exception_wrapperISt8bad_castED2Ev
	movq	%rbx, %rdi
	movl	$56, %esi
	popq	%rbx
	.cfi_def_cfa_offset 8
	jmp	_ZdlPvm
	.cfi_endproc
.LFE12761:
	.size	_ZN5boost16exception_detail10clone_implINS0_39current_exception_std_exception_wrapperISt8bad_castEEED0Ev, .-_ZN5boost16exception_detail10clone_implINS0_39current_exception_std_exception_wrapperISt8bad_castEEED0Ev
	.section	.text._ZN5boost16exception_detail39current_exception_std_exception_wrapperINSt8ios_base7failureB5cxx11EED2Ev,"axG",@progbits,_ZN5boost16exception_detail39current_exception_std_exception_wrapperINSt8ios_base7failureB5cxx11EED5Ev,comdat
	.align 2
	.p2align 4,,15
	.weak	_ZN5boost16exception_detail39current_exception_std_exception_wrapperINSt8ios_base7failureB5cxx11EED2Ev
	.type	_ZN5boost16exception_detail39current_exception_std_exception_wrapperINSt8ios_base7failureB5cxx11EED2Ev, @function
_ZN5boost16exception_detail39current_exception_std_exception_wrapperINSt8ios_base7failureB5cxx11EED2Ev:
.LFB12063:
	.cfi_startproc
	.cfi_personality 0x3,__gxx_personality_v0
	.cfi_lsda 0x3,.LLSDA12063
	pushq	%rbx
	.cfi_def_cfa_offset 16
	.cfi_offset 3, -16
	movq	%rdi, %rbx
	movq	$_ZTVN5boost16exception_detail39current_exception_std_exception_wrapperINSt8ios_base7failureB5cxx11EEE+16, (%rdi)
	movq	$_ZTVN5boost9exceptionE+16, 32(%rdi)
	movq	40(%rdi), %rdi
	testq	%rdi, %rdi
	je	.L305
	movq	(%rdi), %rax
	call	*32(%rax)
.L305:
	movq	%rbx, %rdi
	popq	%rbx
	.cfi_def_cfa_offset 8
	jmp	_ZNSt8ios_base7failureB5cxx11D2Ev
	.cfi_endproc
.LFE12063:
	.section	.gcc_except_table._ZN5boost16exception_detail39current_exception_std_exception_wrapperINSt8ios_base7failureB5cxx11EED2Ev,"aG",@progbits,_ZN5boost16exception_detail39current_exception_std_exception_wrapperINSt8ios_base7failureB5cxx11EED5Ev,comdat
.LLSDA12063:
	.byte	0xff
	.byte	0xff
	.byte	0x1
	.uleb128 .LLSDACSE12063-.LLSDACSB12063
.LLSDACSB12063:
.LLSDACSE12063:
	.section	.text._ZN5boost16exception_detail39current_exception_std_exception_wrapperINSt8ios_base7failureB5cxx11EED2Ev,"axG",@progbits,_ZN5boost16exception_detail39current_exception_std_exception_wrapperINSt8ios_base7failureB5cxx11EED5Ev,comdat
	.size	_ZN5boost16exception_detail39current_exception_std_exception_wrapperINSt8ios_base7failureB5cxx11EED2Ev, .-_ZN5boost16exception_detail39current_exception_std_exception_wrapperINSt8ios_base7failureB5cxx11EED2Ev
	.weak	_ZN5boost16exception_detail39current_exception_std_exception_wrapperINSt8ios_base7failureB5cxx11EED1Ev
	.set	_ZN5boost16exception_detail39current_exception_std_exception_wrapperINSt8ios_base7failureB5cxx11EED1Ev,_ZN5boost16exception_detail39current_exception_std_exception_wrapperINSt8ios_base7failureB5cxx11EED2Ev
	.set	.LTHUNK76,_ZN5boost16exception_detail39current_exception_std_exception_wrapperINSt8ios_base7failureB5cxx11EED1Ev
	.p2align 4,,15
	.weak	_ZThn32_N5boost16exception_detail39current_exception_std_exception_wrapperINSt8ios_base7failureB5cxx11EED1Ev
	.type	_ZThn32_N5boost16exception_detail39current_exception_std_exception_wrapperINSt8ios_base7failureB5cxx11EED1Ev, @function
_ZThn32_N5boost16exception_detail39current_exception_std_exception_wrapperINSt8ios_base7failureB5cxx11EED1Ev:
.LFB15117:
	.cfi_startproc
	subq	$32, %rdi
	jmp	.LTHUNK76
	.cfi_endproc
.LFE15117:
	.size	_ZThn32_N5boost16exception_detail39current_exception_std_exception_wrapperINSt8ios_base7failureB5cxx11EED1Ev, .-_ZThn32_N5boost16exception_detail39current_exception_std_exception_wrapperINSt8ios_base7failureB5cxx11EED1Ev
	.section	.text._ZN5boost16exception_detail39current_exception_std_exception_wrapperINSt8ios_base7failureB5cxx11EED0Ev,"axG",@progbits,_ZN5boost16exception_detail39current_exception_std_exception_wrapperINSt8ios_base7failureB5cxx11EED5Ev,comdat
	.align 2
	.p2align 4,,15
	.weak	_ZN5boost16exception_detail39current_exception_std_exception_wrapperINSt8ios_base7failureB5cxx11EED0Ev
	.type	_ZN5boost16exception_detail39current_exception_std_exception_wrapperINSt8ios_base7failureB5cxx11EED0Ev, @function
_ZN5boost16exception_detail39current_exception_std_exception_wrapperINSt8ios_base7failureB5cxx11EED0Ev:
.LFB12065:
	.cfi_startproc
	pushq	%rbx
	.cfi_def_cfa_offset 16
	.cfi_offset 3, -16
	movq	%rdi, %rbx
	call	_ZN5boost16exception_detail39current_exception_std_exception_wrapperINSt8ios_base7failureB5cxx11EED1Ev
	movq	%rbx, %rdi
	movl	$72, %esi
	popq	%rbx
	.cfi_def_cfa_offset 8
	jmp	_ZdlPvm
	.cfi_endproc
.LFE12065:
	.size	_ZN5boost16exception_detail39current_exception_std_exception_wrapperINSt8ios_base7failureB5cxx11EED0Ev, .-_ZN5boost16exception_detail39current_exception_std_exception_wrapperINSt8ios_base7failureB5cxx11EED0Ev
	.section	.text._ZN5boost16exception_detail10clone_implINS0_39current_exception_std_exception_wrapperINSt8ios_base7failureB5cxx11EEEED1Ev,"axG",@progbits,_ZN5boost16exception_detail10clone_implINS0_39current_exception_std_exception_wrapperINSt8ios_base7failureB5cxx11EEEED1Ev,comdat
	.align 2
	.p2align 4,,15
	.weak	_ZN5boost16exception_detail10clone_implINS0_39current_exception_std_exception_wrapperINSt8ios_base7failureB5cxx11EEEED1Ev
	.type	_ZN5boost16exception_detail10clone_implINS0_39current_exception_std_exception_wrapperINSt8ios_base7failureB5cxx11EEEED1Ev, @function
_ZN5boost16exception_detail10clone_implINS0_39current_exception_std_exception_wrapperINSt8ios_base7failureB5cxx11EEEED1Ev:
.LFB12742:
	.cfi_startproc
	movq	$_ZTVN5boost16exception_detail10clone_implINS0_39current_exception_std_exception_wrapperINSt8ios_base7failureB5cxx11EEEEE+24, (%rdi)
	movq	$_ZTVN5boost16exception_detail10clone_implINS0_39current_exception_std_exception_wrapperINSt8ios_base7failureB5cxx11EEEEE+80, 32(%rdi)
	movq	$_ZTVN5boost16exception_detail10clone_implINS0_39current_exception_std_exception_wrapperINSt8ios_base7failureB5cxx11EEEEE+136, 72(%rdi)
	jmp	_ZN5boost16exception_detail39current_exception_std_exception_wrapperINSt8ios_base7failureB5cxx11EED2Ev
	.cfi_endproc
.LFE12742:
	.size	_ZN5boost16exception_detail10clone_implINS0_39current_exception_std_exception_wrapperINSt8ios_base7failureB5cxx11EEEED1Ev, .-_ZN5boost16exception_detail10clone_implINS0_39current_exception_std_exception_wrapperINSt8ios_base7failureB5cxx11EEEED1Ev
	.section	.text._ZN5boost16exception_detail10clone_implINS0_39current_exception_std_exception_wrapperINSt8ios_base7failureB5cxx11EEEED0Ev,"axG",@progbits,_ZN5boost16exception_detail10clone_implINS0_39current_exception_std_exception_wrapperINSt8ios_base7failureB5cxx11EEEED0Ev,comdat
	.align 2
	.p2align 4,,15
	.weak	_ZN5boost16exception_detail10clone_implINS0_39current_exception_std_exception_wrapperINSt8ios_base7failureB5cxx11EEEED0Ev
	.type	_ZN5boost16exception_detail10clone_implINS0_39current_exception_std_exception_wrapperINSt8ios_base7failureB5cxx11EEEED0Ev, @function
_ZN5boost16exception_detail10clone_implINS0_39current_exception_std_exception_wrapperINSt8ios_base7failureB5cxx11EEEED0Ev:
.LFB12743:
	.cfi_startproc
	pushq	%rbx
	.cfi_def_cfa_offset 16
	.cfi_offset 3, -16
	movq	%rdi, %rbx
	movq	$_ZTVN5boost16exception_detail10clone_implINS0_39current_exception_std_exception_wrapperINSt8ios_base7failureB5cxx11EEEEE+24, (%rdi)
	movq	$_ZTVN5boost16exception_detail10clone_implINS0_39current_exception_std_exception_wrapperINSt8ios_base7failureB5cxx11EEEEE+80, 32(%rdi)
	movq	$_ZTVN5boost16exception_detail10clone_implINS0_39current_exception_std_exception_wrapperINSt8ios_base7failureB5cxx11EEEEE+136, 72(%rdi)
	call	_ZN5boost16exception_detail39current_exception_std_exception_wrapperINSt8ios_base7failureB5cxx11EED2Ev
	movq	%rbx, %rdi
	movl	$80, %esi
	popq	%rbx
	.cfi_def_cfa_offset 8
	jmp	_ZdlPvm
	.cfi_endproc
.LFE12743:
	.size	_ZN5boost16exception_detail10clone_implINS0_39current_exception_std_exception_wrapperINSt8ios_base7failureB5cxx11EEEED0Ev, .-_ZN5boost16exception_detail10clone_implINS0_39current_exception_std_exception_wrapperINSt8ios_base7failureB5cxx11EEEED0Ev
	.section	.text._ZN5boost16exception_detail39current_exception_std_exception_wrapperISt15underflow_errorED2Ev,"axG",@progbits,_ZN5boost16exception_detail39current_exception_std_exception_wrapperISt15underflow_errorED5Ev,comdat
	.align 2
	.p2align 4,,15
	.weak	_ZN5boost16exception_detail39current_exception_std_exception_wrapperISt15underflow_errorED2Ev
	.type	_ZN5boost16exception_detail39current_exception_std_exception_wrapperISt15underflow_errorED2Ev, @function
_ZN5boost16exception_detail39current_exception_std_exception_wrapperISt15underflow_errorED2Ev:
.LFB12045:
	.cfi_startproc
	.cfi_personality 0x3,__gxx_personality_v0
	.cfi_lsda 0x3,.LLSDA12045
	pushq	%rbx
	.cfi_def_cfa_offset 16
	.cfi_offset 3, -16
	movq	%rdi, %rbx
	movq	$_ZTVN5boost16exception_detail39current_exception_std_exception_wrapperISt15underflow_errorEE+16, (%rdi)
	movq	$_ZTVN5boost9exceptionE+16, 16(%rdi)
	movq	24(%rdi), %rdi
	testq	%rdi, %rdi
	je	.L316
	movq	(%rdi), %rax
	call	*32(%rax)
.L316:
	movq	%rbx, %rdi
	popq	%rbx
	.cfi_def_cfa_offset 8
	jmp	_ZNSt15underflow_errorD2Ev
	.cfi_endproc
.LFE12045:
	.section	.gcc_except_table._ZN5boost16exception_detail39current_exception_std_exception_wrapperISt15underflow_errorED2Ev,"aG",@progbits,_ZN5boost16exception_detail39current_exception_std_exception_wrapperISt15underflow_errorED5Ev,comdat
.LLSDA12045:
	.byte	0xff
	.byte	0xff
	.byte	0x1
	.uleb128 .LLSDACSE12045-.LLSDACSB12045
.LLSDACSB12045:
.LLSDACSE12045:
	.section	.text._ZN5boost16exception_detail39current_exception_std_exception_wrapperISt15underflow_errorED2Ev,"axG",@progbits,_ZN5boost16exception_detail39current_exception_std_exception_wrapperISt15underflow_errorED5Ev,comdat
	.size	_ZN5boost16exception_detail39current_exception_std_exception_wrapperISt15underflow_errorED2Ev, .-_ZN5boost16exception_detail39current_exception_std_exception_wrapperISt15underflow_errorED2Ev
	.weak	_ZN5boost16exception_detail39current_exception_std_exception_wrapperISt15underflow_errorED1Ev
	.set	_ZN5boost16exception_detail39current_exception_std_exception_wrapperISt15underflow_errorED1Ev,_ZN5boost16exception_detail39current_exception_std_exception_wrapperISt15underflow_errorED2Ev
	.set	.LTHUNK74,_ZN5boost16exception_detail39current_exception_std_exception_wrapperISt15underflow_errorED1Ev
	.p2align 4,,15
	.weak	_ZThn16_N5boost16exception_detail39current_exception_std_exception_wrapperISt15underflow_errorED1Ev
	.type	_ZThn16_N5boost16exception_detail39current_exception_std_exception_wrapperISt15underflow_errorED1Ev, @function
_ZThn16_N5boost16exception_detail39current_exception_std_exception_wrapperISt15underflow_errorED1Ev:
.LFB15121:
	.cfi_startproc
	subq	$16, %rdi
	jmp	.LTHUNK74
	.cfi_endproc
.LFE15121:
	.size	_ZThn16_N5boost16exception_detail39current_exception_std_exception_wrapperISt15underflow_errorED1Ev, .-_ZThn16_N5boost16exception_detail39current_exception_std_exception_wrapperISt15underflow_errorED1Ev
	.section	.text._ZN5boost16exception_detail39current_exception_std_exception_wrapperISt15underflow_errorED0Ev,"axG",@progbits,_ZN5boost16exception_detail39current_exception_std_exception_wrapperISt15underflow_errorED5Ev,comdat
	.align 2
	.p2align 4,,15
	.weak	_ZN5boost16exception_detail39current_exception_std_exception_wrapperISt15underflow_errorED0Ev
	.type	_ZN5boost16exception_detail39current_exception_std_exception_wrapperISt15underflow_errorED0Ev, @function
_ZN5boost16exception_detail39current_exception_std_exception_wrapperISt15underflow_errorED0Ev:
.LFB12047:
	.cfi_startproc
	pushq	%rbx
	.cfi_def_cfa_offset 16
	.cfi_offset 3, -16
	movq	%rdi, %rbx
	call	_ZN5boost16exception_detail39current_exception_std_exception_wrapperISt15underflow_errorED1Ev
	movq	%rbx, %rdi
	movl	$56, %esi
	popq	%rbx
	.cfi_def_cfa_offset 8
	jmp	_ZdlPvm
	.cfi_endproc
.LFE12047:
	.size	_ZN5boost16exception_detail39current_exception_std_exception_wrapperISt15underflow_errorED0Ev, .-_ZN5boost16exception_detail39current_exception_std_exception_wrapperISt15underflow_errorED0Ev
	.section	.text._ZN5boost16exception_detail10clone_implINS0_39current_exception_std_exception_wrapperISt15underflow_errorEEED1Ev,"axG",@progbits,_ZN5boost16exception_detail10clone_implINS0_39current_exception_std_exception_wrapperISt15underflow_errorEEED1Ev,comdat
	.align 2
	.p2align 4,,15
	.weak	_ZN5boost16exception_detail10clone_implINS0_39current_exception_std_exception_wrapperISt15underflow_errorEEED1Ev
	.type	_ZN5boost16exception_detail10clone_implINS0_39current_exception_std_exception_wrapperISt15underflow_errorEEED1Ev, @function
_ZN5boost16exception_detail10clone_implINS0_39current_exception_std_exception_wrapperISt15underflow_errorEEED1Ev:
.LFB12736:
	.cfi_startproc
	movq	$_ZTVN5boost16exception_detail10clone_implINS0_39current_exception_std_exception_wrapperISt15underflow_errorEEEE+24, (%rdi)
	movq	$_ZTVN5boost16exception_detail10clone_implINS0_39current_exception_std_exception_wrapperISt15underflow_errorEEEE+80, 16(%rdi)
	movq	$_ZTVN5boost16exception_detail10clone_implINS0_39current_exception_std_exception_wrapperISt15underflow_errorEEEE+136, 56(%rdi)
	jmp	_ZN5boost16exception_detail39current_exception_std_exception_wrapperISt15underflow_errorED2Ev
	.cfi_endproc
.LFE12736:
	.size	_ZN5boost16exception_detail10clone_implINS0_39current_exception_std_exception_wrapperISt15underflow_errorEEED1Ev, .-_ZN5boost16exception_detail10clone_implINS0_39current_exception_std_exception_wrapperISt15underflow_errorEEED1Ev
	.section	.text._ZN5boost16exception_detail10clone_implINS0_39current_exception_std_exception_wrapperISt15underflow_errorEEED0Ev,"axG",@progbits,_ZN5boost16exception_detail10clone_implINS0_39current_exception_std_exception_wrapperISt15underflow_errorEEED0Ev,comdat
	.align 2
	.p2align 4,,15
	.weak	_ZN5boost16exception_detail10clone_implINS0_39current_exception_std_exception_wrapperISt15underflow_errorEEED0Ev
	.type	_ZN5boost16exception_detail10clone_implINS0_39current_exception_std_exception_wrapperISt15underflow_errorEEED0Ev, @function
_ZN5boost16exception_detail10clone_implINS0_39current_exception_std_exception_wrapperISt15underflow_errorEEED0Ev:
.LFB12737:
	.cfi_startproc
	pushq	%rbx
	.cfi_def_cfa_offset 16
	.cfi_offset 3, -16
	movq	%rdi, %rbx
	movq	$_ZTVN5boost16exception_detail10clone_implINS0_39current_exception_std_exception_wrapperISt15underflow_errorEEEE+24, (%rdi)
	movq	$_ZTVN5boost16exception_detail10clone_implINS0_39current_exception_std_exception_wrapperISt15underflow_errorEEEE+80, 16(%rdi)
	movq	$_ZTVN5boost16exception_detail10clone_implINS0_39current_exception_std_exception_wrapperISt15underflow_errorEEEE+136, 56(%rdi)
	call	_ZN5boost16exception_detail39current_exception_std_exception_wrapperISt15underflow_errorED2Ev
	movq	%rbx, %rdi
	movl	$64, %esi
	popq	%rbx
	.cfi_def_cfa_offset 8
	jmp	_ZdlPvm
	.cfi_endproc
.LFE12737:
	.size	_ZN5boost16exception_detail10clone_implINS0_39current_exception_std_exception_wrapperISt15underflow_errorEEED0Ev, .-_ZN5boost16exception_detail10clone_implINS0_39current_exception_std_exception_wrapperISt15underflow_errorEEED0Ev
	.section	.text._ZN5boost16exception_detail39current_exception_std_exception_wrapperISt14overflow_errorED2Ev,"axG",@progbits,_ZN5boost16exception_detail39current_exception_std_exception_wrapperISt14overflow_errorED5Ev,comdat
	.align 2
	.p2align 4,,15
	.weak	_ZN5boost16exception_detail39current_exception_std_exception_wrapperISt14overflow_errorED2Ev
	.type	_ZN5boost16exception_detail39current_exception_std_exception_wrapperISt14overflow_errorED2Ev, @function
_ZN5boost16exception_detail39current_exception_std_exception_wrapperISt14overflow_errorED2Ev:
.LFB12030:
	.cfi_startproc
	.cfi_personality 0x3,__gxx_personality_v0
	.cfi_lsda 0x3,.LLSDA12030
	pushq	%rbx
	.cfi_def_cfa_offset 16
	.cfi_offset 3, -16
	movq	%rdi, %rbx
	movq	$_ZTVN5boost16exception_detail39current_exception_std_exception_wrapperISt14overflow_errorEE+16, (%rdi)
	movq	$_ZTVN5boost9exceptionE+16, 16(%rdi)
	movq	24(%rdi), %rdi
	testq	%rdi, %rdi
	je	.L327
	movq	(%rdi), %rax
	call	*32(%rax)
.L327:
	movq	%rbx, %rdi
	popq	%rbx
	.cfi_def_cfa_offset 8
	jmp	_ZNSt14overflow_errorD2Ev
	.cfi_endproc
.LFE12030:
	.section	.gcc_except_table._ZN5boost16exception_detail39current_exception_std_exception_wrapperISt14overflow_errorED2Ev,"aG",@progbits,_ZN5boost16exception_detail39current_exception_std_exception_wrapperISt14overflow_errorED5Ev,comdat
.LLSDA12030:
	.byte	0xff
	.byte	0xff
	.byte	0x1
	.uleb128 .LLSDACSE12030-.LLSDACSB12030
.LLSDACSB12030:
.LLSDACSE12030:
	.section	.text._ZN5boost16exception_detail39current_exception_std_exception_wrapperISt14overflow_errorED2Ev,"axG",@progbits,_ZN5boost16exception_detail39current_exception_std_exception_wrapperISt14overflow_errorED5Ev,comdat
	.size	_ZN5boost16exception_detail39current_exception_std_exception_wrapperISt14overflow_errorED2Ev, .-_ZN5boost16exception_detail39current_exception_std_exception_wrapperISt14overflow_errorED2Ev
	.weak	_ZN5boost16exception_detail39current_exception_std_exception_wrapperISt14overflow_errorED1Ev
	.set	_ZN5boost16exception_detail39current_exception_std_exception_wrapperISt14overflow_errorED1Ev,_ZN5boost16exception_detail39current_exception_std_exception_wrapperISt14overflow_errorED2Ev
	.set	.LTHUNK72,_ZN5boost16exception_detail39current_exception_std_exception_wrapperISt14overflow_errorED1Ev
	.p2align 4,,15
	.weak	_ZThn16_N5boost16exception_detail39current_exception_std_exception_wrapperISt14overflow_errorED1Ev
	.type	_ZThn16_N5boost16exception_detail39current_exception_std_exception_wrapperISt14overflow_errorED1Ev, @function
_ZThn16_N5boost16exception_detail39current_exception_std_exception_wrapperISt14overflow_errorED1Ev:
.LFB15125:
	.cfi_startproc
	subq	$16, %rdi
	jmp	.LTHUNK72
	.cfi_endproc
.LFE15125:
	.size	_ZThn16_N5boost16exception_detail39current_exception_std_exception_wrapperISt14overflow_errorED1Ev, .-_ZThn16_N5boost16exception_detail39current_exception_std_exception_wrapperISt14overflow_errorED1Ev
	.section	.text._ZN5boost16exception_detail39current_exception_std_exception_wrapperISt14overflow_errorED0Ev,"axG",@progbits,_ZN5boost16exception_detail39current_exception_std_exception_wrapperISt14overflow_errorED5Ev,comdat
	.align 2
	.p2align 4,,15
	.weak	_ZN5boost16exception_detail39current_exception_std_exception_wrapperISt14overflow_errorED0Ev
	.type	_ZN5boost16exception_detail39current_exception_std_exception_wrapperISt14overflow_errorED0Ev, @function
_ZN5boost16exception_detail39current_exception_std_exception_wrapperISt14overflow_errorED0Ev:
.LFB12032:
	.cfi_startproc
	pushq	%rbx
	.cfi_def_cfa_offset 16
	.cfi_offset 3, -16
	movq	%rdi, %rbx
	call	_ZN5boost16exception_detail39current_exception_std_exception_wrapperISt14overflow_errorED1Ev
	movq	%rbx, %rdi
	movl	$56, %esi
	popq	%rbx
	.cfi_def_cfa_offset 8
	jmp	_ZdlPvm
	.cfi_endproc
.LFE12032:
	.size	_ZN5boost16exception_detail39current_exception_std_exception_wrapperISt14overflow_errorED0Ev, .-_ZN5boost16exception_detail39current_exception_std_exception_wrapperISt14overflow_errorED0Ev
	.section	.text._ZN5boost16exception_detail10clone_implINS0_39current_exception_std_exception_wrapperISt14overflow_errorEEED1Ev,"axG",@progbits,_ZN5boost16exception_detail10clone_implINS0_39current_exception_std_exception_wrapperISt14overflow_errorEEED1Ev,comdat
	.align 2
	.p2align 4,,15
	.weak	_ZN5boost16exception_detail10clone_implINS0_39current_exception_std_exception_wrapperISt14overflow_errorEEED1Ev
	.type	_ZN5boost16exception_detail10clone_implINS0_39current_exception_std_exception_wrapperISt14overflow_errorEEED1Ev, @function
_ZN5boost16exception_detail10clone_implINS0_39current_exception_std_exception_wrapperISt14overflow_errorEEED1Ev:
.LFB12730:
	.cfi_startproc
	movq	$_ZTVN5boost16exception_detail10clone_implINS0_39current_exception_std_exception_wrapperISt14overflow_errorEEEE+24, (%rdi)
	movq	$_ZTVN5boost16exception_detail10clone_implINS0_39current_exception_std_exception_wrapperISt14overflow_errorEEEE+80, 16(%rdi)
	movq	$_ZTVN5boost16exception_detail10clone_implINS0_39current_exception_std_exception_wrapperISt14overflow_errorEEEE+136, 56(%rdi)
	jmp	_ZN5boost16exception_detail39current_exception_std_exception_wrapperISt14overflow_errorED2Ev
	.cfi_endproc
.LFE12730:
	.size	_ZN5boost16exception_detail10clone_implINS0_39current_exception_std_exception_wrapperISt14overflow_errorEEED1Ev, .-_ZN5boost16exception_detail10clone_implINS0_39current_exception_std_exception_wrapperISt14overflow_errorEEED1Ev
	.section	.text._ZN5boost16exception_detail10clone_implINS0_39current_exception_std_exception_wrapperISt14overflow_errorEEED0Ev,"axG",@progbits,_ZN5boost16exception_detail10clone_implINS0_39current_exception_std_exception_wrapperISt14overflow_errorEEED0Ev,comdat
	.align 2
	.p2align 4,,15
	.weak	_ZN5boost16exception_detail10clone_implINS0_39current_exception_std_exception_wrapperISt14overflow_errorEEED0Ev
	.type	_ZN5boost16exception_detail10clone_implINS0_39current_exception_std_exception_wrapperISt14overflow_errorEEED0Ev, @function
_ZN5boost16exception_detail10clone_implINS0_39current_exception_std_exception_wrapperISt14overflow_errorEEED0Ev:
.LFB12731:
	.cfi_startproc
	pushq	%rbx
	.cfi_def_cfa_offset 16
	.cfi_offset 3, -16
	movq	%rdi, %rbx
	movq	$_ZTVN5boost16exception_detail10clone_implINS0_39current_exception_std_exception_wrapperISt14overflow_errorEEEE+24, (%rdi)
	movq	$_ZTVN5boost16exception_detail10clone_implINS0_39current_exception_std_exception_wrapperISt14overflow_errorEEEE+80, 16(%rdi)
	movq	$_ZTVN5boost16exception_detail10clone_implINS0_39current_exception_std_exception_wrapperISt14overflow_errorEEEE+136, 56(%rdi)
	call	_ZN5boost16exception_detail39current_exception_std_exception_wrapperISt14overflow_errorED2Ev
	movq	%rbx, %rdi
	movl	$64, %esi
	popq	%rbx
	.cfi_def_cfa_offset 8
	jmp	_ZdlPvm
	.cfi_endproc
.LFE12731:
	.size	_ZN5boost16exception_detail10clone_implINS0_39current_exception_std_exception_wrapperISt14overflow_errorEEED0Ev, .-_ZN5boost16exception_detail10clone_implINS0_39current_exception_std_exception_wrapperISt14overflow_errorEEED0Ev
	.section	.text._ZN5boost16exception_detail39current_exception_std_exception_wrapperISt11range_errorED2Ev,"axG",@progbits,_ZN5boost16exception_detail39current_exception_std_exception_wrapperISt11range_errorED5Ev,comdat
	.align 2
	.p2align 4,,15
	.weak	_ZN5boost16exception_detail39current_exception_std_exception_wrapperISt11range_errorED2Ev
	.type	_ZN5boost16exception_detail39current_exception_std_exception_wrapperISt11range_errorED2Ev, @function
_ZN5boost16exception_detail39current_exception_std_exception_wrapperISt11range_errorED2Ev:
.LFB12015:
	.cfi_startproc
	.cfi_personality 0x3,__gxx_personality_v0
	.cfi_lsda 0x3,.LLSDA12015
	pushq	%rbx
	.cfi_def_cfa_offset 16
	.cfi_offset 3, -16
	movq	%rdi, %rbx
	movq	$_ZTVN5boost16exception_detail39current_exception_std_exception_wrapperISt11range_errorEE+16, (%rdi)
	movq	$_ZTVN5boost9exceptionE+16, 16(%rdi)
	movq	24(%rdi), %rdi
	testq	%rdi, %rdi
	je	.L338
	movq	(%rdi), %rax
	call	*32(%rax)
.L338:
	movq	%rbx, %rdi
	popq	%rbx
	.cfi_def_cfa_offset 8
	jmp	_ZNSt11range_errorD2Ev
	.cfi_endproc
.LFE12015:
	.section	.gcc_except_table._ZN5boost16exception_detail39current_exception_std_exception_wrapperISt11range_errorED2Ev,"aG",@progbits,_ZN5boost16exception_detail39current_exception_std_exception_wrapperISt11range_errorED5Ev,comdat
.LLSDA12015:
	.byte	0xff
	.byte	0xff
	.byte	0x1
	.uleb128 .LLSDACSE12015-.LLSDACSB12015
.LLSDACSB12015:
.LLSDACSE12015:
	.section	.text._ZN5boost16exception_detail39current_exception_std_exception_wrapperISt11range_errorED2Ev,"axG",@progbits,_ZN5boost16exception_detail39current_exception_std_exception_wrapperISt11range_errorED5Ev,comdat
	.size	_ZN5boost16exception_detail39current_exception_std_exception_wrapperISt11range_errorED2Ev, .-_ZN5boost16exception_detail39current_exception_std_exception_wrapperISt11range_errorED2Ev
	.weak	_ZN5boost16exception_detail39current_exception_std_exception_wrapperISt11range_errorED1Ev
	.set	_ZN5boost16exception_detail39current_exception_std_exception_wrapperISt11range_errorED1Ev,_ZN5boost16exception_detail39current_exception_std_exception_wrapperISt11range_errorED2Ev
	.set	.LTHUNK70,_ZN5boost16exception_detail39current_exception_std_exception_wrapperISt11range_errorED1Ev
	.p2align 4,,15
	.weak	_ZThn16_N5boost16exception_detail39current_exception_std_exception_wrapperISt11range_errorED1Ev
	.type	_ZThn16_N5boost16exception_detail39current_exception_std_exception_wrapperISt11range_errorED1Ev, @function
_ZThn16_N5boost16exception_detail39current_exception_std_exception_wrapperISt11range_errorED1Ev:
.LFB15129:
	.cfi_startproc
	subq	$16, %rdi
	jmp	.LTHUNK70
	.cfi_endproc
.LFE15129:
	.size	_ZThn16_N5boost16exception_detail39current_exception_std_exception_wrapperISt11range_errorED1Ev, .-_ZThn16_N5boost16exception_detail39current_exception_std_exception_wrapperISt11range_errorED1Ev
	.section	.text._ZN5boost16exception_detail39current_exception_std_exception_wrapperISt11range_errorED0Ev,"axG",@progbits,_ZN5boost16exception_detail39current_exception_std_exception_wrapperISt11range_errorED5Ev,comdat
	.align 2
	.p2align 4,,15
	.weak	_ZN5boost16exception_detail39current_exception_std_exception_wrapperISt11range_errorED0Ev
	.type	_ZN5boost16exception_detail39current_exception_std_exception_wrapperISt11range_errorED0Ev, @function
_ZN5boost16exception_detail39current_exception_std_exception_wrapperISt11range_errorED0Ev:
.LFB12017:
	.cfi_startproc
	pushq	%rbx
	.cfi_def_cfa_offset 16
	.cfi_offset 3, -16
	movq	%rdi, %rbx
	call	_ZN5boost16exception_detail39current_exception_std_exception_wrapperISt11range_errorED1Ev
	movq	%rbx, %rdi
	movl	$56, %esi
	popq	%rbx
	.cfi_def_cfa_offset 8
	jmp	_ZdlPvm
	.cfi_endproc
.LFE12017:
	.size	_ZN5boost16exception_detail39current_exception_std_exception_wrapperISt11range_errorED0Ev, .-_ZN5boost16exception_detail39current_exception_std_exception_wrapperISt11range_errorED0Ev
	.section	.text._ZN5boost16exception_detail10clone_implINS0_39current_exception_std_exception_wrapperISt11range_errorEEED1Ev,"axG",@progbits,_ZN5boost16exception_detail10clone_implINS0_39current_exception_std_exception_wrapperISt11range_errorEEED1Ev,comdat
	.align 2
	.p2align 4,,15
	.weak	_ZN5boost16exception_detail10clone_implINS0_39current_exception_std_exception_wrapperISt11range_errorEEED1Ev
	.type	_ZN5boost16exception_detail10clone_implINS0_39current_exception_std_exception_wrapperISt11range_errorEEED1Ev, @function
_ZN5boost16exception_detail10clone_implINS0_39current_exception_std_exception_wrapperISt11range_errorEEED1Ev:
.LFB12724:
	.cfi_startproc
	movq	$_ZTVN5boost16exception_detail10clone_implINS0_39current_exception_std_exception_wrapperISt11range_errorEEEE+24, (%rdi)
	movq	$_ZTVN5boost16exception_detail10clone_implINS0_39current_exception_std_exception_wrapperISt11range_errorEEEE+80, 16(%rdi)
	movq	$_ZTVN5boost16exception_detail10clone_implINS0_39current_exception_std_exception_wrapperISt11range_errorEEEE+136, 56(%rdi)
	jmp	_ZN5boost16exception_detail39current_exception_std_exception_wrapperISt11range_errorED2Ev
	.cfi_endproc
.LFE12724:
	.size	_ZN5boost16exception_detail10clone_implINS0_39current_exception_std_exception_wrapperISt11range_errorEEED1Ev, .-_ZN5boost16exception_detail10clone_implINS0_39current_exception_std_exception_wrapperISt11range_errorEEED1Ev
	.section	.text._ZN5boost16exception_detail10clone_implINS0_39current_exception_std_exception_wrapperISt11range_errorEEED0Ev,"axG",@progbits,_ZN5boost16exception_detail10clone_implINS0_39current_exception_std_exception_wrapperISt11range_errorEEED0Ev,comdat
	.align 2
	.p2align 4,,15
	.weak	_ZN5boost16exception_detail10clone_implINS0_39current_exception_std_exception_wrapperISt11range_errorEEED0Ev
	.type	_ZN5boost16exception_detail10clone_implINS0_39current_exception_std_exception_wrapperISt11range_errorEEED0Ev, @function
_ZN5boost16exception_detail10clone_implINS0_39current_exception_std_exception_wrapperISt11range_errorEEED0Ev:
.LFB12725:
	.cfi_startproc
	pushq	%rbx
	.cfi_def_cfa_offset 16
	.cfi_offset 3, -16
	movq	%rdi, %rbx
	movq	$_ZTVN5boost16exception_detail10clone_implINS0_39current_exception_std_exception_wrapperISt11range_errorEEEE+24, (%rdi)
	movq	$_ZTVN5boost16exception_detail10clone_implINS0_39current_exception_std_exception_wrapperISt11range_errorEEEE+80, 16(%rdi)
	movq	$_ZTVN5boost16exception_detail10clone_implINS0_39current_exception_std_exception_wrapperISt11range_errorEEEE+136, 56(%rdi)
	call	_ZN5boost16exception_detail39current_exception_std_exception_wrapperISt11range_errorED2Ev
	movq	%rbx, %rdi
	movl	$64, %esi
	popq	%rbx
	.cfi_def_cfa_offset 8
	jmp	_ZdlPvm
	.cfi_endproc
.LFE12725:
	.size	_ZN5boost16exception_detail10clone_implINS0_39current_exception_std_exception_wrapperISt11range_errorEEED0Ev, .-_ZN5boost16exception_detail10clone_implINS0_39current_exception_std_exception_wrapperISt11range_errorEEED0Ev
	.section	.text._ZN5boost16exception_detail39current_exception_std_exception_wrapperISt12length_errorED2Ev,"axG",@progbits,_ZN5boost16exception_detail39current_exception_std_exception_wrapperISt12length_errorED5Ev,comdat
	.align 2
	.p2align 4,,15
	.weak	_ZN5boost16exception_detail39current_exception_std_exception_wrapperISt12length_errorED2Ev
	.type	_ZN5boost16exception_detail39current_exception_std_exception_wrapperISt12length_errorED2Ev, @function
_ZN5boost16exception_detail39current_exception_std_exception_wrapperISt12length_errorED2Ev:
.LFB11973:
	.cfi_startproc
	.cfi_personality 0x3,__gxx_personality_v0
	.cfi_lsda 0x3,.LLSDA11973
	pushq	%rbx
	.cfi_def_cfa_offset 16
	.cfi_offset 3, -16
	movq	%rdi, %rbx
	movq	$_ZTVN5boost16exception_detail39current_exception_std_exception_wrapperISt12length_errorEE+16, (%rdi)
	movq	$_ZTVN5boost9exceptionE+16, 16(%rdi)
	movq	24(%rdi), %rdi
	testq	%rdi, %rdi
	je	.L349
	movq	(%rdi), %rax
	call	*32(%rax)
.L349:
	movq	%rbx, %rdi
	popq	%rbx
	.cfi_def_cfa_offset 8
	jmp	_ZNSt12length_errorD2Ev
	.cfi_endproc
.LFE11973:
	.section	.gcc_except_table._ZN5boost16exception_detail39current_exception_std_exception_wrapperISt12length_errorED2Ev,"aG",@progbits,_ZN5boost16exception_detail39current_exception_std_exception_wrapperISt12length_errorED5Ev,comdat
.LLSDA11973:
	.byte	0xff
	.byte	0xff
	.byte	0x1
	.uleb128 .LLSDACSE11973-.LLSDACSB11973
.LLSDACSB11973:
.LLSDACSE11973:
	.section	.text._ZN5boost16exception_detail39current_exception_std_exception_wrapperISt12length_errorED2Ev,"axG",@progbits,_ZN5boost16exception_detail39current_exception_std_exception_wrapperISt12length_errorED5Ev,comdat
	.size	_ZN5boost16exception_detail39current_exception_std_exception_wrapperISt12length_errorED2Ev, .-_ZN5boost16exception_detail39current_exception_std_exception_wrapperISt12length_errorED2Ev
	.weak	_ZN5boost16exception_detail39current_exception_std_exception_wrapperISt12length_errorED1Ev
	.set	_ZN5boost16exception_detail39current_exception_std_exception_wrapperISt12length_errorED1Ev,_ZN5boost16exception_detail39current_exception_std_exception_wrapperISt12length_errorED2Ev
	.set	.LTHUNK64,_ZN5boost16exception_detail39current_exception_std_exception_wrapperISt12length_errorED1Ev
	.p2align 4,,15
	.weak	_ZThn16_N5boost16exception_detail39current_exception_std_exception_wrapperISt12length_errorED1Ev
	.type	_ZThn16_N5boost16exception_detail39current_exception_std_exception_wrapperISt12length_errorED1Ev, @function
_ZThn16_N5boost16exception_detail39current_exception_std_exception_wrapperISt12length_errorED1Ev:
.LFB15133:
	.cfi_startproc
	subq	$16, %rdi
	jmp	.LTHUNK64
	.cfi_endproc
.LFE15133:
	.size	_ZThn16_N5boost16exception_detail39current_exception_std_exception_wrapperISt12length_errorED1Ev, .-_ZThn16_N5boost16exception_detail39current_exception_std_exception_wrapperISt12length_errorED1Ev
	.section	.text._ZN5boost16exception_detail39current_exception_std_exception_wrapperISt12length_errorED0Ev,"axG",@progbits,_ZN5boost16exception_detail39current_exception_std_exception_wrapperISt12length_errorED5Ev,comdat
	.align 2
	.p2align 4,,15
	.weak	_ZN5boost16exception_detail39current_exception_std_exception_wrapperISt12length_errorED0Ev
	.type	_ZN5boost16exception_detail39current_exception_std_exception_wrapperISt12length_errorED0Ev, @function
_ZN5boost16exception_detail39current_exception_std_exception_wrapperISt12length_errorED0Ev:
.LFB11975:
	.cfi_startproc
	pushq	%rbx
	.cfi_def_cfa_offset 16
	.cfi_offset 3, -16
	movq	%rdi, %rbx
	call	_ZN5boost16exception_detail39current_exception_std_exception_wrapperISt12length_errorED1Ev
	movq	%rbx, %rdi
	movl	$56, %esi
	popq	%rbx
	.cfi_def_cfa_offset 8
	jmp	_ZdlPvm
	.cfi_endproc
.LFE11975:
	.size	_ZN5boost16exception_detail39current_exception_std_exception_wrapperISt12length_errorED0Ev, .-_ZN5boost16exception_detail39current_exception_std_exception_wrapperISt12length_errorED0Ev
	.section	.text._ZN5boost16exception_detail10clone_implINS0_39current_exception_std_exception_wrapperISt12length_errorEEED1Ev,"axG",@progbits,_ZN5boost16exception_detail10clone_implINS0_39current_exception_std_exception_wrapperISt12length_errorEEED1Ev,comdat
	.align 2
	.p2align 4,,15
	.weak	_ZN5boost16exception_detail10clone_implINS0_39current_exception_std_exception_wrapperISt12length_errorEEED1Ev
	.type	_ZN5boost16exception_detail10clone_implINS0_39current_exception_std_exception_wrapperISt12length_errorEEED1Ev, @function
_ZN5boost16exception_detail10clone_implINS0_39current_exception_std_exception_wrapperISt12length_errorEEED1Ev:
.LFB12706:
	.cfi_startproc
	movq	$_ZTVN5boost16exception_detail10clone_implINS0_39current_exception_std_exception_wrapperISt12length_errorEEEE+24, (%rdi)
	movq	$_ZTVN5boost16exception_detail10clone_implINS0_39current_exception_std_exception_wrapperISt12length_errorEEEE+80, 16(%rdi)
	movq	$_ZTVN5boost16exception_detail10clone_implINS0_39current_exception_std_exception_wrapperISt12length_errorEEEE+136, 56(%rdi)
	jmp	_ZN5boost16exception_detail39current_exception_std_exception_wrapperISt12length_errorED2Ev
	.cfi_endproc
.LFE12706:
	.size	_ZN5boost16exception_detail10clone_implINS0_39current_exception_std_exception_wrapperISt12length_errorEEED1Ev, .-_ZN5boost16exception_detail10clone_implINS0_39current_exception_std_exception_wrapperISt12length_errorEEED1Ev
	.section	.text._ZN5boost16exception_detail10clone_implINS0_39current_exception_std_exception_wrapperISt12length_errorEEED0Ev,"axG",@progbits,_ZN5boost16exception_detail10clone_implINS0_39current_exception_std_exception_wrapperISt12length_errorEEED0Ev,comdat
	.align 2
	.p2align 4,,15
	.weak	_ZN5boost16exception_detail10clone_implINS0_39current_exception_std_exception_wrapperISt12length_errorEEED0Ev
	.type	_ZN5boost16exception_detail10clone_implINS0_39current_exception_std_exception_wrapperISt12length_errorEEED0Ev, @function
_ZN5boost16exception_detail10clone_implINS0_39current_exception_std_exception_wrapperISt12length_errorEEED0Ev:
.LFB12707:
	.cfi_startproc
	pushq	%rbx
	.cfi_def_cfa_offset 16
	.cfi_offset 3, -16
	movq	%rdi, %rbx
	movq	$_ZTVN5boost16exception_detail10clone_implINS0_39current_exception_std_exception_wrapperISt12length_errorEEEE+24, (%rdi)
	movq	$_ZTVN5boost16exception_detail10clone_implINS0_39current_exception_std_exception_wrapperISt12length_errorEEEE+80, 16(%rdi)
	movq	$_ZTVN5boost16exception_detail10clone_implINS0_39current_exception_std_exception_wrapperISt12length_errorEEEE+136, 56(%rdi)
	call	_ZN5boost16exception_detail39current_exception_std_exception_wrapperISt12length_errorED2Ev
	movq	%rbx, %rdi
	movl	$64, %esi
	popq	%rbx
	.cfi_def_cfa_offset 8
	jmp	_ZdlPvm
	.cfi_endproc
.LFE12707:
	.size	_ZN5boost16exception_detail10clone_implINS0_39current_exception_std_exception_wrapperISt12length_errorEEED0Ev, .-_ZN5boost16exception_detail10clone_implINS0_39current_exception_std_exception_wrapperISt12length_errorEEED0Ev
	.section	.text._ZN5boost16exception_detail39current_exception_std_exception_wrapperISt16invalid_argumentED2Ev,"axG",@progbits,_ZN5boost16exception_detail39current_exception_std_exception_wrapperISt16invalid_argumentED5Ev,comdat
	.align 2
	.p2align 4,,15
	.weak	_ZN5boost16exception_detail39current_exception_std_exception_wrapperISt16invalid_argumentED2Ev
	.type	_ZN5boost16exception_detail39current_exception_std_exception_wrapperISt16invalid_argumentED2Ev, @function
_ZN5boost16exception_detail39current_exception_std_exception_wrapperISt16invalid_argumentED2Ev:
.LFB11958:
	.cfi_startproc
	.cfi_personality 0x3,__gxx_personality_v0
	.cfi_lsda 0x3,.LLSDA11958
	pushq	%rbx
	.cfi_def_cfa_offset 16
	.cfi_offset 3, -16
	movq	%rdi, %rbx
	movq	$_ZTVN5boost16exception_detail39current_exception_std_exception_wrapperISt16invalid_argumentEE+16, (%rdi)
	movq	$_ZTVN5boost9exceptionE+16, 16(%rdi)
	movq	24(%rdi), %rdi
	testq	%rdi, %rdi
	je	.L360
	movq	(%rdi), %rax
	call	*32(%rax)
.L360:
	movq	%rbx, %rdi
	popq	%rbx
	.cfi_def_cfa_offset 8
	jmp	_ZNSt16invalid_argumentD2Ev
	.cfi_endproc
.LFE11958:
	.section	.gcc_except_table._ZN5boost16exception_detail39current_exception_std_exception_wrapperISt16invalid_argumentED2Ev,"aG",@progbits,_ZN5boost16exception_detail39current_exception_std_exception_wrapperISt16invalid_argumentED5Ev,comdat
.LLSDA11958:
	.byte	0xff
	.byte	0xff
	.byte	0x1
	.uleb128 .LLSDACSE11958-.LLSDACSB11958
.LLSDACSB11958:
.LLSDACSE11958:
	.section	.text._ZN5boost16exception_detail39current_exception_std_exception_wrapperISt16invalid_argumentED2Ev,"axG",@progbits,_ZN5boost16exception_detail39current_exception_std_exception_wrapperISt16invalid_argumentED5Ev,comdat
	.size	_ZN5boost16exception_detail39current_exception_std_exception_wrapperISt16invalid_argumentED2Ev, .-_ZN5boost16exception_detail39current_exception_std_exception_wrapperISt16invalid_argumentED2Ev
	.weak	_ZN5boost16exception_detail39current_exception_std_exception_wrapperISt16invalid_argumentED1Ev
	.set	_ZN5boost16exception_detail39current_exception_std_exception_wrapperISt16invalid_argumentED1Ev,_ZN5boost16exception_detail39current_exception_std_exception_wrapperISt16invalid_argumentED2Ev
	.set	.LTHUNK62,_ZN5boost16exception_detail39current_exception_std_exception_wrapperISt16invalid_argumentED1Ev
	.p2align 4,,15
	.weak	_ZThn16_N5boost16exception_detail39current_exception_std_exception_wrapperISt16invalid_argumentED1Ev
	.type	_ZThn16_N5boost16exception_detail39current_exception_std_exception_wrapperISt16invalid_argumentED1Ev, @function
_ZThn16_N5boost16exception_detail39current_exception_std_exception_wrapperISt16invalid_argumentED1Ev:
.LFB15137:
	.cfi_startproc
	subq	$16, %rdi
	jmp	.LTHUNK62
	.cfi_endproc
.LFE15137:
	.size	_ZThn16_N5boost16exception_detail39current_exception_std_exception_wrapperISt16invalid_argumentED1Ev, .-_ZThn16_N5boost16exception_detail39current_exception_std_exception_wrapperISt16invalid_argumentED1Ev
	.section	.text._ZN5boost16exception_detail39current_exception_std_exception_wrapperISt16invalid_argumentED0Ev,"axG",@progbits,_ZN5boost16exception_detail39current_exception_std_exception_wrapperISt16invalid_argumentED5Ev,comdat
	.align 2
	.p2align 4,,15
	.weak	_ZN5boost16exception_detail39current_exception_std_exception_wrapperISt16invalid_argumentED0Ev
	.type	_ZN5boost16exception_detail39current_exception_std_exception_wrapperISt16invalid_argumentED0Ev, @function
_ZN5boost16exception_detail39current_exception_std_exception_wrapperISt16invalid_argumentED0Ev:
.LFB11960:
	.cfi_startproc
	pushq	%rbx
	.cfi_def_cfa_offset 16
	.cfi_offset 3, -16
	movq	%rdi, %rbx
	call	_ZN5boost16exception_detail39current_exception_std_exception_wrapperISt16invalid_argumentED1Ev
	movq	%rbx, %rdi
	movl	$56, %esi
	popq	%rbx
	.cfi_def_cfa_offset 8
	jmp	_ZdlPvm
	.cfi_endproc
.LFE11960:
	.size	_ZN5boost16exception_detail39current_exception_std_exception_wrapperISt16invalid_argumentED0Ev, .-_ZN5boost16exception_detail39current_exception_std_exception_wrapperISt16invalid_argumentED0Ev
	.section	.text._ZN5boost16exception_detail10clone_implINS0_39current_exception_std_exception_wrapperISt16invalid_argumentEEED1Ev,"axG",@progbits,_ZN5boost16exception_detail10clone_implINS0_39current_exception_std_exception_wrapperISt16invalid_argumentEEED1Ev,comdat
	.align 2
	.p2align 4,,15
	.weak	_ZN5boost16exception_detail10clone_implINS0_39current_exception_std_exception_wrapperISt16invalid_argumentEEED1Ev
	.type	_ZN5boost16exception_detail10clone_implINS0_39current_exception_std_exception_wrapperISt16invalid_argumentEEED1Ev, @function
_ZN5boost16exception_detail10clone_implINS0_39current_exception_std_exception_wrapperISt16invalid_argumentEEED1Ev:
.LFB12700:
	.cfi_startproc
	movq	$_ZTVN5boost16exception_detail10clone_implINS0_39current_exception_std_exception_wrapperISt16invalid_argumentEEEE+24, (%rdi)
	movq	$_ZTVN5boost16exception_detail10clone_implINS0_39current_exception_std_exception_wrapperISt16invalid_argumentEEEE+80, 16(%rdi)
	movq	$_ZTVN5boost16exception_detail10clone_implINS0_39current_exception_std_exception_wrapperISt16invalid_argumentEEEE+136, 56(%rdi)
	jmp	_ZN5boost16exception_detail39current_exception_std_exception_wrapperISt16invalid_argumentED2Ev
	.cfi_endproc
.LFE12700:
	.size	_ZN5boost16exception_detail10clone_implINS0_39current_exception_std_exception_wrapperISt16invalid_argumentEEED1Ev, .-_ZN5boost16exception_detail10clone_implINS0_39current_exception_std_exception_wrapperISt16invalid_argumentEEED1Ev
	.section	.text._ZN5boost16exception_detail10clone_implINS0_39current_exception_std_exception_wrapperISt16invalid_argumentEEED0Ev,"axG",@progbits,_ZN5boost16exception_detail10clone_implINS0_39current_exception_std_exception_wrapperISt16invalid_argumentEEED0Ev,comdat
	.align 2
	.p2align 4,,15
	.weak	_ZN5boost16exception_detail10clone_implINS0_39current_exception_std_exception_wrapperISt16invalid_argumentEEED0Ev
	.type	_ZN5boost16exception_detail10clone_implINS0_39current_exception_std_exception_wrapperISt16invalid_argumentEEED0Ev, @function
_ZN5boost16exception_detail10clone_implINS0_39current_exception_std_exception_wrapperISt16invalid_argumentEEED0Ev:
.LFB12701:
	.cfi_startproc
	pushq	%rbx
	.cfi_def_cfa_offset 16
	.cfi_offset 3, -16
	movq	%rdi, %rbx
	movq	$_ZTVN5boost16exception_detail10clone_implINS0_39current_exception_std_exception_wrapperISt16invalid_argumentEEEE+24, (%rdi)
	movq	$_ZTVN5boost16exception_detail10clone_implINS0_39current_exception_std_exception_wrapperISt16invalid_argumentEEEE+80, 16(%rdi)
	movq	$_ZTVN5boost16exception_detail10clone_implINS0_39current_exception_std_exception_wrapperISt16invalid_argumentEEEE+136, 56(%rdi)
	call	_ZN5boost16exception_detail39current_exception_std_exception_wrapperISt16invalid_argumentED2Ev
	movq	%rbx, %rdi
	movl	$64, %esi
	popq	%rbx
	.cfi_def_cfa_offset 8
	jmp	_ZdlPvm
	.cfi_endproc
.LFE12701:
	.size	_ZN5boost16exception_detail10clone_implINS0_39current_exception_std_exception_wrapperISt16invalid_argumentEEED0Ev, .-_ZN5boost16exception_detail10clone_implINS0_39current_exception_std_exception_wrapperISt16invalid_argumentEEED0Ev
	.section	.text._ZN5boost16exception_detail39current_exception_std_exception_wrapperISt12domain_errorED2Ev,"axG",@progbits,_ZN5boost16exception_detail39current_exception_std_exception_wrapperISt12domain_errorED5Ev,comdat
	.align 2
	.p2align 4,,15
	.weak	_ZN5boost16exception_detail39current_exception_std_exception_wrapperISt12domain_errorED2Ev
	.type	_ZN5boost16exception_detail39current_exception_std_exception_wrapperISt12domain_errorED2Ev, @function
_ZN5boost16exception_detail39current_exception_std_exception_wrapperISt12domain_errorED2Ev:
.LFB11943:
	.cfi_startproc
	.cfi_personality 0x3,__gxx_personality_v0
	.cfi_lsda 0x3,.LLSDA11943
	pushq	%rbx
	.cfi_def_cfa_offset 16
	.cfi_offset 3, -16
	movq	%rdi, %rbx
	movq	$_ZTVN5boost16exception_detail39current_exception_std_exception_wrapperISt12domain_errorEE+16, (%rdi)
	movq	$_ZTVN5boost9exceptionE+16, 16(%rdi)
	movq	24(%rdi), %rdi
	testq	%rdi, %rdi
	je	.L371
	movq	(%rdi), %rax
	call	*32(%rax)
.L371:
	movq	%rbx, %rdi
	popq	%rbx
	.cfi_def_cfa_offset 8
	jmp	_ZNSt12domain_errorD2Ev
	.cfi_endproc
.LFE11943:
	.section	.gcc_except_table._ZN5boost16exception_detail39current_exception_std_exception_wrapperISt12domain_errorED2Ev,"aG",@progbits,_ZN5boost16exception_detail39current_exception_std_exception_wrapperISt12domain_errorED5Ev,comdat
.LLSDA11943:
	.byte	0xff
	.byte	0xff
	.byte	0x1
	.uleb128 .LLSDACSE11943-.LLSDACSB11943
.LLSDACSB11943:
.LLSDACSE11943:
	.section	.text._ZN5boost16exception_detail39current_exception_std_exception_wrapperISt12domain_errorED2Ev,"axG",@progbits,_ZN5boost16exception_detail39current_exception_std_exception_wrapperISt12domain_errorED5Ev,comdat
	.size	_ZN5boost16exception_detail39current_exception_std_exception_wrapperISt12domain_errorED2Ev, .-_ZN5boost16exception_detail39current_exception_std_exception_wrapperISt12domain_errorED2Ev
	.weak	_ZN5boost16exception_detail39current_exception_std_exception_wrapperISt12domain_errorED1Ev
	.set	_ZN5boost16exception_detail39current_exception_std_exception_wrapperISt12domain_errorED1Ev,_ZN5boost16exception_detail39current_exception_std_exception_wrapperISt12domain_errorED2Ev
	.set	.LTHUNK60,_ZN5boost16exception_detail39current_exception_std_exception_wrapperISt12domain_errorED1Ev
	.p2align 4,,15
	.weak	_ZThn16_N5boost16exception_detail39current_exception_std_exception_wrapperISt12domain_errorED1Ev
	.type	_ZThn16_N5boost16exception_detail39current_exception_std_exception_wrapperISt12domain_errorED1Ev, @function
_ZThn16_N5boost16exception_detail39current_exception_std_exception_wrapperISt12domain_errorED1Ev:
.LFB15141:
	.cfi_startproc
	subq	$16, %rdi
	jmp	.LTHUNK60
	.cfi_endproc
.LFE15141:
	.size	_ZThn16_N5boost16exception_detail39current_exception_std_exception_wrapperISt12domain_errorED1Ev, .-_ZThn16_N5boost16exception_detail39current_exception_std_exception_wrapperISt12domain_errorED1Ev
	.section	.text._ZN5boost16exception_detail39current_exception_std_exception_wrapperISt12domain_errorED0Ev,"axG",@progbits,_ZN5boost16exception_detail39current_exception_std_exception_wrapperISt12domain_errorED5Ev,comdat
	.align 2
	.p2align 4,,15
	.weak	_ZN5boost16exception_detail39current_exception_std_exception_wrapperISt12domain_errorED0Ev
	.type	_ZN5boost16exception_detail39current_exception_std_exception_wrapperISt12domain_errorED0Ev, @function
_ZN5boost16exception_detail39current_exception_std_exception_wrapperISt12domain_errorED0Ev:
.LFB11945:
	.cfi_startproc
	pushq	%rbx
	.cfi_def_cfa_offset 16
	.cfi_offset 3, -16
	movq	%rdi, %rbx
	call	_ZN5boost16exception_detail39current_exception_std_exception_wrapperISt12domain_errorED1Ev
	movq	%rbx, %rdi
	movl	$56, %esi
	popq	%rbx
	.cfi_def_cfa_offset 8
	jmp	_ZdlPvm
	.cfi_endproc
.LFE11945:
	.size	_ZN5boost16exception_detail39current_exception_std_exception_wrapperISt12domain_errorED0Ev, .-_ZN5boost16exception_detail39current_exception_std_exception_wrapperISt12domain_errorED0Ev
	.section	.text._ZN5boost16exception_detail10clone_implINS0_39current_exception_std_exception_wrapperISt12domain_errorEEED1Ev,"axG",@progbits,_ZN5boost16exception_detail10clone_implINS0_39current_exception_std_exception_wrapperISt12domain_errorEEED1Ev,comdat
	.align 2
	.p2align 4,,15
	.weak	_ZN5boost16exception_detail10clone_implINS0_39current_exception_std_exception_wrapperISt12domain_errorEEED1Ev
	.type	_ZN5boost16exception_detail10clone_implINS0_39current_exception_std_exception_wrapperISt12domain_errorEEED1Ev, @function
_ZN5boost16exception_detail10clone_implINS0_39current_exception_std_exception_wrapperISt12domain_errorEEED1Ev:
.LFB12694:
	.cfi_startproc
	movq	$_ZTVN5boost16exception_detail10clone_implINS0_39current_exception_std_exception_wrapperISt12domain_errorEEEE+24, (%rdi)
	movq	$_ZTVN5boost16exception_detail10clone_implINS0_39current_exception_std_exception_wrapperISt12domain_errorEEEE+80, 16(%rdi)
	movq	$_ZTVN5boost16exception_detail10clone_implINS0_39current_exception_std_exception_wrapperISt12domain_errorEEEE+136, 56(%rdi)
	jmp	_ZN5boost16exception_detail39current_exception_std_exception_wrapperISt12domain_errorED2Ev
	.cfi_endproc
.LFE12694:
	.size	_ZN5boost16exception_detail10clone_implINS0_39current_exception_std_exception_wrapperISt12domain_errorEEED1Ev, .-_ZN5boost16exception_detail10clone_implINS0_39current_exception_std_exception_wrapperISt12domain_errorEEED1Ev
	.section	.text._ZN5boost16exception_detail10clone_implINS0_39current_exception_std_exception_wrapperISt12domain_errorEEED0Ev,"axG",@progbits,_ZN5boost16exception_detail10clone_implINS0_39current_exception_std_exception_wrapperISt12domain_errorEEED0Ev,comdat
	.align 2
	.p2align 4,,15
	.weak	_ZN5boost16exception_detail10clone_implINS0_39current_exception_std_exception_wrapperISt12domain_errorEEED0Ev
	.type	_ZN5boost16exception_detail10clone_implINS0_39current_exception_std_exception_wrapperISt12domain_errorEEED0Ev, @function
_ZN5boost16exception_detail10clone_implINS0_39current_exception_std_exception_wrapperISt12domain_errorEEED0Ev:
.LFB12695:
	.cfi_startproc
	pushq	%rbx
	.cfi_def_cfa_offset 16
	.cfi_offset 3, -16
	movq	%rdi, %rbx
	movq	$_ZTVN5boost16exception_detail10clone_implINS0_39current_exception_std_exception_wrapperISt12domain_errorEEEE+24, (%rdi)
	movq	$_ZTVN5boost16exception_detail10clone_implINS0_39current_exception_std_exception_wrapperISt12domain_errorEEEE+80, 16(%rdi)
	movq	$_ZTVN5boost16exception_detail10clone_implINS0_39current_exception_std_exception_wrapperISt12domain_errorEEEE+136, 56(%rdi)
	call	_ZN5boost16exception_detail39current_exception_std_exception_wrapperISt12domain_errorED2Ev
	movq	%rbx, %rdi
	movl	$64, %esi
	popq	%rbx
	.cfi_def_cfa_offset 8
	jmp	_ZdlPvm
	.cfi_endproc
.LFE12695:
	.size	_ZN5boost16exception_detail10clone_implINS0_39current_exception_std_exception_wrapperISt12domain_errorEEED0Ev, .-_ZN5boost16exception_detail10clone_implINS0_39current_exception_std_exception_wrapperISt12domain_errorEEED0Ev
	.section	.text._ZN5boost12bad_weak_ptrD2Ev,"axG",@progbits,_ZN5boost12bad_weak_ptrD5Ev,comdat
	.align 2
	.p2align 4,,15
	.weak	_ZN5boost12bad_weak_ptrD2Ev
	.type	_ZN5boost12bad_weak_ptrD2Ev, @function
_ZN5boost12bad_weak_ptrD2Ev:
.LFB11576:
	.cfi_startproc
	movq	$_ZTVN5boost12bad_weak_ptrE+16, (%rdi)
	jmp	_ZNSt9exceptionD2Ev
	.cfi_endproc
.LFE11576:
	.size	_ZN5boost12bad_weak_ptrD2Ev, .-_ZN5boost12bad_weak_ptrD2Ev
	.weak	_ZN5boost12bad_weak_ptrD1Ev
	.set	_ZN5boost12bad_weak_ptrD1Ev,_ZN5boost12bad_weak_ptrD2Ev
	.section	.text._ZN5boost12bad_weak_ptrD0Ev,"axG",@progbits,_ZN5boost12bad_weak_ptrD5Ev,comdat
	.align 2
	.p2align 4,,15
	.weak	_ZN5boost12bad_weak_ptrD0Ev
	.type	_ZN5boost12bad_weak_ptrD0Ev, @function
_ZN5boost12bad_weak_ptrD0Ev:
.LFB11578:
	.cfi_startproc
	pushq	%rbx
	.cfi_def_cfa_offset 16
	.cfi_offset 3, -16
	movq	%rdi, %rbx
	movq	$_ZTVN5boost12bad_weak_ptrE+16, (%rdi)
	call	_ZNSt9exceptionD2Ev
	movq	%rbx, %rdi
	movl	$8, %esi
	popq	%rbx
	.cfi_def_cfa_offset 8
	jmp	_ZdlPvm
	.cfi_endproc
.LFE11578:
	.size	_ZN5boost12bad_weak_ptrD0Ev, .-_ZN5boost12bad_weak_ptrD0Ev
	.section	.text._ZN5boost17unknown_exceptionD2Ev,"axG",@progbits,_ZN5boost17unknown_exceptionD5Ev,comdat
	.align 2
	.p2align 4,,15
	.weak	_ZN5boost17unknown_exceptionD2Ev
	.type	_ZN5boost17unknown_exceptionD2Ev, @function
_ZN5boost17unknown_exceptionD2Ev:
.LFB6989:
	.cfi_startproc
	.cfi_personality 0x3,__gxx_personality_v0
	.cfi_lsda 0x3,.LLSDA6989
	pushq	%rbx
	.cfi_def_cfa_offset 16
	.cfi_offset 3, -16
	movq	$_ZTVN5boost17unknown_exceptionE+16, (%rdi)
	movq	%rdi, %rbx
	movq	$_ZTVN5boost17unknown_exceptionE+48, 40(%rdi)
	addq	$40, %rdi
	call	_ZNSt9exceptionD2Ev
	movq	8(%rbx), %rdi
	movq	$_ZTVN5boost9exceptionE+16, (%rbx)
	testq	%rdi, %rdi
	je	.L384
	movq	(%rdi), %rax
	popq	%rbx
	.cfi_remember_state
	.cfi_def_cfa_offset 8
	movq	32(%rax), %rax
	jmp	*%rax
	.p2align 4,,10
	.p2align 3
.L384:
	.cfi_restore_state
	popq	%rbx
	.cfi_def_cfa_offset 8
	ret
	.cfi_endproc
.LFE6989:
	.section	.gcc_except_table._ZN5boost17unknown_exceptionD2Ev,"aG",@progbits,_ZN5boost17unknown_exceptionD5Ev,comdat
.LLSDA6989:
	.byte	0xff
	.byte	0xff
	.byte	0x1
	.uleb128 .LLSDACSE6989-.LLSDACSB6989
.LLSDACSB6989:
.LLSDACSE6989:
	.section	.text._ZN5boost17unknown_exceptionD2Ev,"axG",@progbits,_ZN5boost17unknown_exceptionD5Ev,comdat
	.size	_ZN5boost17unknown_exceptionD2Ev, .-_ZN5boost17unknown_exceptionD2Ev
	.set	.LTHUNK4,_ZN5boost17unknown_exceptionD2Ev
	.p2align 4,,15
	.weak	_ZThn40_N5boost17unknown_exceptionD1Ev
	.type	_ZThn40_N5boost17unknown_exceptionD1Ev, @function
_ZThn40_N5boost17unknown_exceptionD1Ev:
.LFB15145:
	.cfi_startproc
	subq	$40, %rdi
	jmp	.LTHUNK4
	.cfi_endproc
.LFE15145:
	.size	_ZThn40_N5boost17unknown_exceptionD1Ev, .-_ZThn40_N5boost17unknown_exceptionD1Ev
	.weak	_ZN5boost17unknown_exceptionD1Ev
	.set	_ZN5boost17unknown_exceptionD1Ev,_ZN5boost17unknown_exceptionD2Ev
	.section	.text._ZN5boost17unknown_exceptionD0Ev,"axG",@progbits,_ZN5boost17unknown_exceptionD5Ev,comdat
	.align 2
	.p2align 4,,15
	.weak	_ZN5boost17unknown_exceptionD0Ev
	.type	_ZN5boost17unknown_exceptionD0Ev, @function
_ZN5boost17unknown_exceptionD0Ev:
.LFB6991:
	.cfi_startproc
	pushq	%rbx
	.cfi_def_cfa_offset 16
	.cfi_offset 3, -16
	movq	%rdi, %rbx
	call	_ZN5boost17unknown_exceptionD1Ev
	movq	%rbx, %rdi
	movl	$48, %esi
	popq	%rbx
	.cfi_def_cfa_offset 8
	jmp	_ZdlPvm
	.cfi_endproc
.LFE6991:
	.size	_ZN5boost17unknown_exceptionD0Ev, .-_ZN5boost17unknown_exceptionD0Ev
	.section	.text._ZN5boost16exception_detail10clone_implINS_17unknown_exceptionEED1Ev,"axG",@progbits,_ZN5boost16exception_detail10clone_implINS_17unknown_exceptionEED1Ev,comdat
	.align 2
	.p2align 4,,15
	.weak	_ZN5boost16exception_detail10clone_implINS_17unknown_exceptionEED1Ev
	.type	_ZN5boost16exception_detail10clone_implINS_17unknown_exceptionEED1Ev, @function
_ZN5boost16exception_detail10clone_implINS_17unknown_exceptionEED1Ev:
.LFB11900:
	.cfi_startproc
	movq	$_ZTVN5boost16exception_detail10clone_implINS_17unknown_exceptionEEE+24, (%rdi)
	movq	$_ZTVN5boost16exception_detail10clone_implINS_17unknown_exceptionEEE+72, 40(%rdi)
	movq	$_ZTVN5boost16exception_detail10clone_implINS_17unknown_exceptionEEE+136, 48(%rdi)
	jmp	_ZN5boost17unknown_exceptionD2Ev
	.cfi_endproc
.LFE11900:
	.size	_ZN5boost16exception_detail10clone_implINS_17unknown_exceptionEED1Ev, .-_ZN5boost16exception_detail10clone_implINS_17unknown_exceptionEED1Ev
	.section	.text._ZN5boost16exception_detail10clone_implINS_17unknown_exceptionEED0Ev,"axG",@progbits,_ZN5boost16exception_detail10clone_implINS_17unknown_exceptionEED0Ev,comdat
	.align 2
	.p2align 4,,15
	.weak	_ZN5boost16exception_detail10clone_implINS_17unknown_exceptionEED0Ev
	.type	_ZN5boost16exception_detail10clone_implINS_17unknown_exceptionEED0Ev, @function
_ZN5boost16exception_detail10clone_implINS_17unknown_exceptionEED0Ev:
.LFB11901:
	.cfi_startproc
	pushq	%rbx
	.cfi_def_cfa_offset 16
	.cfi_offset 3, -16
	movq	%rdi, %rbx
	movq	$_ZTVN5boost16exception_detail10clone_implINS_17unknown_exceptionEEE+24, (%rdi)
	movq	$_ZTVN5boost16exception_detail10clone_implINS_17unknown_exceptionEEE+72, 40(%rdi)
	movq	$_ZTVN5boost16exception_detail10clone_implINS_17unknown_exceptionEEE+136, 48(%rdi)
	call	_ZN5boost17unknown_exceptionD2Ev
	movq	%rbx, %rdi
	movl	$56, %esi
	popq	%rbx
	.cfi_def_cfa_offset 8
	jmp	_ZdlPvm
	.cfi_endproc
.LFE11901:
	.size	_ZN5boost16exception_detail10clone_implINS_17unknown_exceptionEED0Ev, .-_ZN5boost16exception_detail10clone_implINS_17unknown_exceptionEED0Ev
	.section	.text._ZN5boost16exception_detail19error_info_injectorINS_12bad_weak_ptrEED2Ev,"axG",@progbits,_ZN5boost16exception_detail19error_info_injectorINS_12bad_weak_ptrEED5Ev,comdat
	.align 2
	.p2align 4,,15
	.weak	_ZN5boost16exception_detail19error_info_injectorINS_12bad_weak_ptrEED2Ev
	.type	_ZN5boost16exception_detail19error_info_injectorINS_12bad_weak_ptrEED2Ev, @function
_ZN5boost16exception_detail19error_info_injectorINS_12bad_weak_ptrEED2Ev:
.LFB11579:
	.cfi_startproc
	.cfi_personality 0x3,__gxx_personality_v0
	.cfi_lsda 0x3,.LLSDA11579
	pushq	%rbx
	.cfi_def_cfa_offset 16
	.cfi_offset 3, -16
	movq	%rdi, %rbx
	movq	$_ZTVN5boost16exception_detail19error_info_injectorINS_12bad_weak_ptrEEE+16, (%rdi)
	movq	$_ZTVN5boost9exceptionE+16, 8(%rdi)
	movq	16(%rdi), %rdi
	testq	%rdi, %rdi
	je	.L393
	movq	(%rdi), %rax
	call	*32(%rax)
.L393:
	movq	$_ZTVN5boost12bad_weak_ptrE+16, (%rbx)
	movq	%rbx, %rdi
	popq	%rbx
	.cfi_def_cfa_offset 8
	jmp	_ZNSt9exceptionD2Ev
	.cfi_endproc
.LFE11579:
	.section	.gcc_except_table._ZN5boost16exception_detail19error_info_injectorINS_12bad_weak_ptrEED2Ev,"aG",@progbits,_ZN5boost16exception_detail19error_info_injectorINS_12bad_weak_ptrEED5Ev,comdat
.LLSDA11579:
	.byte	0xff
	.byte	0xff
	.byte	0x1
	.uleb128 .LLSDACSE11579-.LLSDACSB11579
.LLSDACSB11579:
.LLSDACSE11579:
	.section	.text._ZN5boost16exception_detail19error_info_injectorINS_12bad_weak_ptrEED2Ev,"axG",@progbits,_ZN5boost16exception_detail19error_info_injectorINS_12bad_weak_ptrEED5Ev,comdat
	.size	_ZN5boost16exception_detail19error_info_injectorINS_12bad_weak_ptrEED2Ev, .-_ZN5boost16exception_detail19error_info_injectorINS_12bad_weak_ptrEED2Ev
	.weak	_ZN5boost16exception_detail19error_info_injectorINS_12bad_weak_ptrEED1Ev
	.set	_ZN5boost16exception_detail19error_info_injectorINS_12bad_weak_ptrEED1Ev,_ZN5boost16exception_detail19error_info_injectorINS_12bad_weak_ptrEED2Ev
	.set	.LTHUNK12,_ZN5boost16exception_detail19error_info_injectorINS_12bad_weak_ptrEED1Ev
	.p2align 4,,15
	.weak	_ZThn8_N5boost16exception_detail19error_info_injectorINS_12bad_weak_ptrEED1Ev
	.type	_ZThn8_N5boost16exception_detail19error_info_injectorINS_12bad_weak_ptrEED1Ev, @function
_ZThn8_N5boost16exception_detail19error_info_injectorINS_12bad_weak_ptrEED1Ev:
.LFB15149:
	.cfi_startproc
	subq	$8, %rdi
	jmp	.LTHUNK12
	.cfi_endproc
.LFE15149:
	.size	_ZThn8_N5boost16exception_detail19error_info_injectorINS_12bad_weak_ptrEED1Ev, .-_ZThn8_N5boost16exception_detail19error_info_injectorINS_12bad_weak_ptrEED1Ev
	.section	.text._ZN5boost16exception_detail19error_info_injectorINS_12bad_weak_ptrEED0Ev,"axG",@progbits,_ZN5boost16exception_detail19error_info_injectorINS_12bad_weak_ptrEED5Ev,comdat
	.align 2
	.p2align 4,,15
	.weak	_ZN5boost16exception_detail19error_info_injectorINS_12bad_weak_ptrEED0Ev
	.type	_ZN5boost16exception_detail19error_info_injectorINS_12bad_weak_ptrEED0Ev, @function
_ZN5boost16exception_detail19error_info_injectorINS_12bad_weak_ptrEED0Ev:
.LFB11581:
	.cfi_startproc
	pushq	%rbx
	.cfi_def_cfa_offset 16
	.cfi_offset 3, -16
	movq	%rdi, %rbx
	call	_ZN5boost16exception_detail19error_info_injectorINS_12bad_weak_ptrEED1Ev
	movq	%rbx, %rdi
	movl	$48, %esi
	popq	%rbx
	.cfi_def_cfa_offset 8
	jmp	_ZdlPvm
	.cfi_endproc
.LFE11581:
	.size	_ZN5boost16exception_detail19error_info_injectorINS_12bad_weak_ptrEED0Ev, .-_ZN5boost16exception_detail19error_info_injectorINS_12bad_weak_ptrEED0Ev
	.section	.text._ZN5boost16exception_detail10clone_implINS0_19error_info_injectorINS_12bad_weak_ptrEEEED1Ev,"axG",@progbits,_ZN5boost16exception_detail10clone_implINS0_19error_info_injectorINS_12bad_weak_ptrEEEED1Ev,comdat
	.align 2
	.p2align 4,,15
	.weak	_ZN5boost16exception_detail10clone_implINS0_19error_info_injectorINS_12bad_weak_ptrEEEED1Ev
	.type	_ZN5boost16exception_detail10clone_implINS0_19error_info_injectorINS_12bad_weak_ptrEEEED1Ev, @function
_ZN5boost16exception_detail10clone_implINS0_19error_info_injectorINS_12bad_weak_ptrEEEED1Ev:
.LFB11585:
	.cfi_startproc
	movq	$_ZTVN5boost16exception_detail10clone_implINS0_19error_info_injectorINS_12bad_weak_ptrEEEEE+24, (%rdi)
	movq	$_ZTVN5boost16exception_detail10clone_implINS0_19error_info_injectorINS_12bad_weak_ptrEEEEE+80, 8(%rdi)
	movq	$_ZTVN5boost16exception_detail10clone_implINS0_19error_info_injectorINS_12bad_weak_ptrEEEEE+136, 48(%rdi)
	jmp	_ZN5boost16exception_detail19error_info_injectorINS_12bad_weak_ptrEED2Ev
	.cfi_endproc
.LFE11585:
	.size	_ZN5boost16exception_detail10clone_implINS0_19error_info_injectorINS_12bad_weak_ptrEEEED1Ev, .-_ZN5boost16exception_detail10clone_implINS0_19error_info_injectorINS_12bad_weak_ptrEEEED1Ev
	.section	.text._ZN5boost16exception_detail10clone_implINS0_19error_info_injectorINS_12bad_weak_ptrEEEED0Ev,"axG",@progbits,_ZN5boost16exception_detail10clone_implINS0_19error_info_injectorINS_12bad_weak_ptrEEEED0Ev,comdat
	.align 2
	.p2align 4,,15
	.weak	_ZN5boost16exception_detail10clone_implINS0_19error_info_injectorINS_12bad_weak_ptrEEEED0Ev
	.type	_ZN5boost16exception_detail10clone_implINS0_19error_info_injectorINS_12bad_weak_ptrEEEED0Ev, @function
_ZN5boost16exception_detail10clone_implINS0_19error_info_injectorINS_12bad_weak_ptrEEEED0Ev:
.LFB11586:
	.cfi_startproc
	pushq	%rbx
	.cfi_def_cfa_offset 16
	.cfi_offset 3, -16
	movq	%rdi, %rbx
	movq	$_ZTVN5boost16exception_detail10clone_implINS0_19error_info_injectorINS_12bad_weak_ptrEEEEE+24, (%rdi)
	movq	$_ZTVN5boost16exception_detail10clone_implINS0_19error_info_injectorINS_12bad_weak_ptrEEEEE+80, 8(%rdi)
	movq	$_ZTVN5boost16exception_detail10clone_implINS0_19error_info_injectorINS_12bad_weak_ptrEEEEE+136, 48(%rdi)
	call	_ZN5boost16exception_detail19error_info_injectorINS_12bad_weak_ptrEED2Ev
	movq	%rbx, %rdi
	movl	$56, %esi
	popq	%rbx
	.cfi_def_cfa_offset 8
	jmp	_ZdlPvm
	.cfi_endproc
.LFE11586:
	.size	_ZN5boost16exception_detail10clone_implINS0_19error_info_injectorINS_12bad_weak_ptrEEEED0Ev, .-_ZN5boost16exception_detail10clone_implINS0_19error_info_injectorINS_12bad_weak_ptrEEEED0Ev
	.section	.rodata.str1.1,"aMS",@progbits,1
.LC1:
	.string	"basic_string::_M_create"
	.text
	.align 2
	.p2align 4,,15
	.type	_ZNSt7__cxx1112basic_stringIcSt11char_traitsIcESaIcEE9_M_createERmm.isra.129, @function
_ZNSt7__cxx1112basic_stringIcSt11char_traitsIcESaIcEE9_M_createERmm.isra.129:
.LFB14660:
	.cfi_startproc
	movq	(%rdi), %rax
	testq	%rax, %rax
	js	.L413
	cmpq	%rsi, %rax
	jbe	.L412
	addq	%rsi, %rsi
	cmpq	%rsi, %rax
	jnb	.L412
	testq	%rsi, %rsi
	js	.L408
	movq	%rsi, (%rdi)
	leaq	1(%rsi), %rdi
	jmp	_Znwm
	.p2align 4,,10
	.p2align 3
.L412:
	leaq	1(%rax), %rdi
	jmp	_Znwm
	.p2align 4,,10
	.p2align 3
.L408:
	movabsq	$9223372036854775807, %rax
	movq	%rax, (%rdi)
	movabsq	$-9223372036854775808, %rdi
	jmp	_Znwm
.L413:
	subq	$8, %rsp
	.cfi_def_cfa_offset 16
	movl	$.LC1, %edi
	call	_ZSt20__throw_length_errorPKc
	.cfi_endproc
.LFE14660:
	.size	_ZNSt7__cxx1112basic_stringIcSt11char_traitsIcESaIcEE9_M_createERmm.isra.129, .-_ZNSt7__cxx1112basic_stringIcSt11char_traitsIcESaIcEE9_M_createERmm.isra.129
	.section	.rodata.str1.8,"aMS",@progbits,1
	.align 8
.LC2:
	.string	"basic_string::_M_construct null not valid"
	.text
	.align 2
	.p2align 4,,15
	.type	_ZNSt7__cxx1112basic_stringIcSt11char_traitsIcESaIcEE12_M_constructIPcEEvT_S7_St20forward_iterator_tag.isra.130, @function
_ZNSt7__cxx1112basic_stringIcSt11char_traitsIcESaIcEE12_M_constructIPcEEvT_S7_St20forward_iterator_tag.isra.130:
.LFB14661:
	.cfi_startproc
	pushq	%r12
	.cfi_def_cfa_offset 16
	.cfi_offset 12, -16
	pushq	%rbp
	.cfi_def_cfa_offset 24
	.cfi_offset 6, -24
	movq	%rsi, %r12
	movq	%rdi, %rbp
	subq	$40, %rsp
	.cfi_def_cfa_offset 64
	testq	%rsi, %rsi
	jne	.L415
	testq	%rdx, %rdx
	jne	.L430
.L415:
	subq	%r12, %rdx
	cmpq	$15, %rdx
	movq	%rdx, 24(%rsp)
	ja	.L431
	cmpq	$1, %rdx
	movq	0(%rbp), %rax
	je	.L432
	testq	%rdx, %rdx
	jne	.L417
	movq	%rdx, 8(%rbp)
	movb	$0, (%rax,%rdx)
	addq	$40, %rsp
	.cfi_remember_state
	.cfi_def_cfa_offset 24
	popq	%rbp
	.cfi_def_cfa_offset 16
	popq	%r12
	.cfi_def_cfa_offset 8
	ret
	.p2align 4,,10
	.p2align 3
.L432:
	.cfi_restore_state
	movzbl	(%r12), %edx
	movb	%dl, (%rax)
	movq	24(%rsp), %rdx
	movq	0(%rbp), %rax
	movq	%rdx, 8(%rbp)
	movb	$0, (%rax,%rdx)
	addq	$40, %rsp
	.cfi_remember_state
	.cfi_def_cfa_offset 24
	popq	%rbp
	.cfi_def_cfa_offset 16
	popq	%r12
	.cfi_def_cfa_offset 8
	ret
	.p2align 4,,10
	.p2align 3
.L431:
	.cfi_restore_state
	leaq	24(%rsp), %rdi
	xorl	%esi, %esi
	movq	%rdx, 8(%rsp)
	call	_ZNSt7__cxx1112basic_stringIcSt11char_traitsIcESaIcEE9_M_createERmm.isra.129
	movq	24(%rsp), %rcx
	movq	8(%rsp), %rdx
	movq	%rax, 0(%rbp)
	movq	%rcx, 16(%rbp)
.L417:
	movq	%r12, %rsi
	movq	%rax, %rdi
	call	memcpy
	movq	24(%rsp), %rdx
	movq	0(%rbp), %rax
	movq	%rdx, 8(%rbp)
	movb	$0, (%rax,%rdx)
	addq	$40, %rsp
	.cfi_remember_state
	.cfi_def_cfa_offset 24
	popq	%rbp
	.cfi_def_cfa_offset 16
	popq	%r12
	.cfi_def_cfa_offset 8
	ret
.L430:
	.cfi_restore_state
	movl	$.LC2, %edi
	call	_ZSt19__throw_logic_errorPKc
	.cfi_endproc
.LFE14661:
	.size	_ZNSt7__cxx1112basic_stringIcSt11char_traitsIcESaIcEE12_M_constructIPcEEvT_S7_St20forward_iterator_tag.isra.130, .-_ZNSt7__cxx1112basic_stringIcSt11char_traitsIcESaIcEE12_M_constructIPcEEvT_S7_St20forward_iterator_tag.isra.130
	.set	_ZNSt7__cxx1112basic_stringIcSt11char_traitsIcESaIcEE12_M_constructIPKcEEvT_S8_St20forward_iterator_tag.isra.134,_ZNSt7__cxx1112basic_stringIcSt11char_traitsIcESaIcEE12_M_constructIPcEEvT_S7_St20forward_iterator_tag.isra.130
	.section	.text._ZN5boost6detail16thread_data_base25notify_all_at_thread_exitEPNS_18condition_variableEPNS_5mutexE,"axG",@progbits,_ZN5boost6detail16thread_data_base25notify_all_at_thread_exitEPNS_18condition_variableEPNS_5mutexE,comdat
	.align 2
	.p2align 4,,15
	.weak	_ZN5boost6detail16thread_data_base25notify_all_at_thread_exitEPNS_18condition_variableEPNS_5mutexE
	.type	_ZN5boost6detail16thread_data_base25notify_all_at_thread_exitEPNS_18condition_variableEPNS_5mutexE, @function
_ZN5boost6detail16thread_data_base25notify_all_at_thread_exitEPNS_18condition_variableEPNS_5mutexE:
.LFB6492:
	.cfi_startproc
	pushq	%r15
	.cfi_def_cfa_offset 16
	.cfi_offset 15, -16
	pushq	%r14
	.cfi_def_cfa_offset 24
	.cfi_offset 14, -24
	pushq	%r13
	.cfi_def_cfa_offset 32
	.cfi_offset 13, -32
	pushq	%r12
	.cfi_def_cfa_offset 40
	.cfi_offset 12, -40
	pushq	%rbp
	.cfi_def_cfa_offset 48
	.cfi_offset 6, -48
	pushq	%rbx
	.cfi_def_cfa_offset 56
	.cfi_offset 3, -56
	subq	$24, %rsp
	.cfi_def_cfa_offset 80
	movq	392(%rdi), %rbx
	cmpq	400(%rdi), %rbx
	je	.L434
	movq	%rsi, (%rbx)
	movq	%rdx, 8(%rbx)
	addq	$16, %rbx
	movq	%rbx, 392(%rdi)
	addq	$24, %rsp
	.cfi_remember_state
	.cfi_def_cfa_offset 56
	popq	%rbx
	.cfi_def_cfa_offset 48
	popq	%rbp
	.cfi_def_cfa_offset 40
	popq	%r12
	.cfi_def_cfa_offset 32
	popq	%r13
	.cfi_def_cfa_offset 24
	popq	%r14
	.cfi_def_cfa_offset 16
	popq	%r15
	.cfi_def_cfa_offset 8
	ret
	.p2align 4,,10
	.p2align 3
.L434:
	.cfi_restore_state
	movq	%rdx, %r12
	movq	%rbx, %rdx
	subq	384(%rdi), %rdx
	movq	%rsi, %r13
	movq	%rdi, %rbp
	movq	%rdx, %rax
	sarq	$4, %rax
	testq	%rax, %rax
	je	.L443
	leaq	(%rax,%rax), %r14
	cmpq	%r14, %rax
	jbe	.L455
.L445:
	movq	$-16, %r14
.L436:
	movq	%r14, %rdi
	movq	%rdx, 8(%rsp)
	call	_Znwm
	movq	392(%rbp), %rcx
	movq	8(%rsp), %rdx
	movq	%rax, %r15
.L437:
	movq	384(%rbp), %rdi
	addq	%r15, %rdx
	movq	%r13, (%rdx)
	movq	%r12, 8(%rdx)
	cmpq	%rdi, %rbx
	je	.L447
	movq	%rdi, %rdx
	movq	%r15, %rsi
	.p2align 4,,10
	.p2align 3
.L439:
	movdqu	(%rdx), %xmm0
	addq	$16, %rdx
	addq	$16, %rsi
	movups	%xmm0, -16(%rsi)
	cmpq	%rdx, %rbx
	jne	.L439
	leaq	-16(%rbx), %rax
	subq	%rdi, %rax
	andq	$-16, %rax
	leaq	16(%r15,%rax), %r12
.L438:
	addq	$16, %r12
	cmpq	%rcx, %rbx
	je	.L440
	movq	%rbx, %rdx
	movq	%r12, %rsi
	.p2align 4,,10
	.p2align 3
.L441:
	movdqu	(%rdx), %xmm0
	addq	$16, %rdx
	addq	$16, %rsi
	movups	%xmm0, -16(%rsi)
	cmpq	%rdx, %rcx
	jne	.L441
	subq	$16, %rcx
	subq	%rbx, %rcx
	andq	$-16, %rcx
	leaq	16(%r12,%rcx), %r12
.L440:
	testq	%rdi, %rdi
	je	.L442
	call	_ZdlPv
.L442:
	addq	%r15, %r14
	movq	%r15, 384(%rbp)
	movq	%r12, 392(%rbp)
	movq	%r14, 400(%rbp)
	addq	$24, %rsp
	.cfi_remember_state
	.cfi_def_cfa_offset 56
	popq	%rbx
	.cfi_def_cfa_offset 48
	popq	%rbp
	.cfi_def_cfa_offset 40
	popq	%r12
	.cfi_def_cfa_offset 32
	popq	%r13
	.cfi_def_cfa_offset 24
	popq	%r14
	.cfi_def_cfa_offset 16
	popq	%r15
	.cfi_def_cfa_offset 8
	ret
	.p2align 4,,10
	.p2align 3
.L443:
	.cfi_restore_state
	movl	$16, %r14d
	jmp	.L436
	.p2align 4,,10
	.p2align 3
.L455:
	movabsq	$1152921504606846975, %rsi
	cmpq	%rsi, %r14
	ja	.L445
	xorl	%r15d, %r15d
	testq	%r14, %r14
	movq	%rbx, %rcx
	je	.L437
	salq	$5, %rax
	movq	%rax, %r14
	jmp	.L436
	.p2align 4,,10
	.p2align 3
.L447:
	movq	%r15, %r12
	jmp	.L438
	.cfi_endproc
.LFE6492:
	.size	_ZN5boost6detail16thread_data_base25notify_all_at_thread_exitEPNS_18condition_variableEPNS_5mutexE, .-_ZN5boost6detail16thread_data_base25notify_all_at_thread_exitEPNS_18condition_variableEPNS_5mutexE
	.section	.text._ZNK5boost10error_infoINS_27tag_original_exception_typeEPKSt9type_infoE17name_value_stringB5cxx11Ev,"axG",@progbits,_ZNK5boost10error_infoINS_27tag_original_exception_typeEPKSt9type_infoE17name_value_stringB5cxx11Ev,comdat
	.align 2
	.p2align 4,,15
	.weak	_ZNK5boost10error_infoINS_27tag_original_exception_typeEPKSt9type_infoE17name_value_stringB5cxx11Ev
	.type	_ZNK5boost10error_infoINS_27tag_original_exception_typeEPKSt9type_infoE17name_value_stringB5cxx11Ev, @function
_ZNK5boost10error_infoINS_27tag_original_exception_typeEPKSt9type_infoE17name_value_stringB5cxx11Ev:
.LFB14251:
	.cfi_startproc
	.cfi_personality 0x3,__gxx_personality_v0
	.cfi_lsda 0x3,.LLSDA14251
	pushq	%r13
	.cfi_def_cfa_offset 16
	.cfi_offset 13, -16
	pushq	%r12
	.cfi_def_cfa_offset 24
	.cfi_offset 12, -24
	pushq	%rbp
	.cfi_def_cfa_offset 32
	.cfi_offset 6, -32
	pushq	%rbx
	.cfi_def_cfa_offset 40
	.cfi_offset 3, -40
	movq	%rdi, %rbp
	subq	$24, %rsp
	.cfi_def_cfa_offset 64
	movq	8(%rsi), %rax
	movq	8(%rax), %r12
	cmpb	$42, (%r12)
	je	.L469
	leaq	4(%rsp), %rcx
	leaq	8(%rsp), %rdx
	xorl	%esi, %esi
	movq	%r12, %rdi
	movl	$0, 4(%rsp)
	movq	$0, 8(%rsp)
	call	__cxa_demangle
	movq	%rax, %rbx
	leaq	16(%rbp), %rax
	testq	%rbx, %rbx
	je	.L470
.L458:
	movq	%rax, 0(%rbp)
	movq	%rbx, %r13
.L461:
	movq	%rbx, %rdi
	call	strlen
	leaq	(%rbx,%rax), %rdx
.L459:
	movq	%rbx, %rsi
	movq	%rbp, %rdi
.LEHB6:
	call	_ZNSt7__cxx1112basic_stringIcSt11char_traitsIcESaIcEE12_M_constructIPKcEEvT_S8_St20forward_iterator_tag.isra.134
.LEHE6:
	movq	%r13, %rdi
	call	free
	addq	$24, %rsp
	.cfi_remember_state
	.cfi_def_cfa_offset 40
	movq	%rbp, %rax
	popq	%rbx
	.cfi_def_cfa_offset 32
	popq	%rbp
	.cfi_def_cfa_offset 24
	popq	%r12
	.cfi_def_cfa_offset 16
	popq	%r13
	.cfi_def_cfa_offset 8
	ret
	.p2align 4,,10
	.p2align 3
.L469:
	.cfi_restore_state
	leaq	1(%r12), %rbx
	leaq	4(%rsp), %rcx
	leaq	8(%rsp), %rdx
	xorl	%esi, %esi
	movl	$0, 4(%rsp)
	movq	$0, 8(%rsp)
	movq	%rbx, %rdi
	call	__cxa_demangle
	movq	%rax, %r13
	leaq	16(%rbp), %rax
	testq	%r13, %r13
	jne	.L463
	testq	%rbx, %rbx
	movq	%rax, 0(%rbp)
	jne	.L461
	movq	$-1, %rdx
	jmp	.L459
	.p2align 4,,10
	.p2align 3
.L463:
	movq	%r13, %rbx
	jmp	.L458
	.p2align 4,,10
	.p2align 3
.L470:
	movq	%rax, 0(%rbp)
	xorl	%r13d, %r13d
	movq	%r12, %rbx
	jmp	.L461
.L465:
	movq	%rax, %rbx
	movq	%r13, %rdi
	call	free
	movq	%rbx, %rdi
.LEHB7:
	call	_Unwind_Resume
.LEHE7:
	.cfi_endproc
.LFE14251:
	.section	.gcc_except_table._ZNK5boost10error_infoINS_27tag_original_exception_typeEPKSt9type_infoE17name_value_stringB5cxx11Ev,"aG",@progbits,_ZNK5boost10error_infoINS_27tag_original_exception_typeEPKSt9type_infoE17name_value_stringB5cxx11Ev,comdat
.LLSDA14251:
	.byte	0xff
	.byte	0xff
	.byte	0x1
	.uleb128 .LLSDACSE14251-.LLSDACSB14251
.LLSDACSB14251:
	.uleb128 .LEHB6-.LFB14251
	.uleb128 .LEHE6-.LEHB6
