	.file	"2_continuations.cpp"
	.section	.rodata._ZNK5boost12bad_weak_ptr4whatEv.str1.1,"aMS",@progbits,1
.LC0:
	.string	"tr1::bad_weak_ptr"
	.section	.text._ZNK5boost12bad_weak_ptr4whatEv,"axG",@progbits,_ZNK5boost12bad_weak_ptr4whatEv,comdat
	.align 2
	.p2align 4,,15
	.weak	_ZNK5boost12bad_weak_ptr4whatEv
	.type	_ZNK5boost12bad_weak_ptr4whatEv, @function
_ZNK5boost12bad_weak_ptr4whatEv:
.LFB2243:
	.cfi_startproc
	movl	$.LC0, %eax
	ret
	.cfi_endproc
.LFE2243:
	.size	_ZNK5boost12bad_weak_ptr4whatEv, .-_ZNK5boost12bad_weak_ptr4whatEv
	.section	.text._ZN5boost6detail15sp_counted_base7destroyEv,"axG",@progbits,_ZN5boost6detail15sp_counted_base7destroyEv,comdat
	.align 2
	.p2align 4,,15
	.weak	_ZN5boost6detail15sp_counted_base7destroyEv
	.type	_ZN5boost6detail15sp_counted_base7destroyEv, @function
_ZN5boost6detail15sp_counted_base7destroyEv:
.LFB2527:
	.cfi_startproc
	movq	(%rdi), %rax
	jmp	*8(%rax)
	.cfi_endproc
.LFE2527:
	.size	_ZN5boost6detail15sp_counted_base7destroyEv, .-_ZN5boost6detail15sp_counted_base7destroyEv
	.section	.text._ZNK5boost16exception_detail25error_info_container_impl7add_refEv,"axG",@progbits,_ZNK5boost16exception_detail25error_info_container_impl7add_refEv,comdat
	.align 2
	.p2align 4,,15
	.weak	_ZNK5boost16exception_detail25error_info_container_impl7add_refEv
	.type	_ZNK5boost16exception_detail25error_info_container_impl7add_refEv, @function
_ZNK5boost16exception_detail25error_info_container_impl7add_refEv:
.LFB6925:
	.cfi_startproc
	addl	$1, 88(%rdi)
	ret
	.cfi_endproc
.LFE6925:
	.size	_ZNK5boost16exception_detail25error_info_container_impl7add_refEv, .-_ZNK5boost16exception_detail25error_info_container_impl7add_refEv
	.section	.text._ZN5boost6detail17shared_state_base19launch_continuationEv,"axG",@progbits,_ZN5boost6detail17shared_state_base19launch_continuationEv,comdat
	.align 2
	.p2align 4,,15
	.weak	_ZN5boost6detail17shared_state_base19launch_continuationEv
	.type	_ZN5boost6detail17shared_state_base19launch_continuationEv, @function
_ZN5boost6detail17shared_state_base19launch_continuationEv:
.LFB10219:
	.cfi_startproc
	rep ret
	.cfi_endproc
.LFE10219:
	.size	_ZN5boost6detail17shared_state_base19launch_continuationEv, .-_ZN5boost6detail17shared_state_base19launch_continuationEv
	.section	.text._ZN5boost6detail17shared_state_base7executeERNS_11unique_lockINS_5mutexEEE,"axG",@progbits,_ZN5boost6detail17shared_state_base7executeERNS_11unique_lockINS_5mutexEEE,comdat
	.align 2
	.p2align 4,,15
	.weak	_ZN5boost6detail17shared_state_base7executeERNS_11unique_lockINS_5mutexEEE
	.type	_ZN5boost6detail17shared_state_base7executeERNS_11unique_lockINS_5mutexEEE, @function
_ZN5boost6detail17shared_state_base7executeERNS_11unique_lockINS_5mutexEEE:
.LFB10280:
	.cfi_startproc
	rep ret
	.cfi_endproc
.LFE10280:
	.size	_ZN5boost6detail17shared_state_base7executeERNS_11unique_lockINS_5mutexEEE, .-_ZN5boost6detail17shared_state_base7executeERNS_11unique_lockINS_5mutexEEE
	.section	.text._ZNK5boost10shared_ptrIKNS_16exception_detail10clone_baseEE3getEv,"axG",@progbits,_ZNK5boost10shared_ptrIKNS_16exception_detail10clone_baseEE3getEv,comdat
	.align 2
	.p2align 4,,15
	.weak	_ZNK5boost10shared_ptrIKNS_16exception_detail10clone_baseEE3getEv
	.type	_ZNK5boost10shared_ptrIKNS_16exception_detail10clone_baseEE3getEv, @function
_ZNK5boost10shared_ptrIKNS_16exception_detail10clone_baseEE3getEv:
.LFB11220:
	.cfi_startproc
	movq	(%rdi), %rax
	ret
	.cfi_endproc
.LFE11220:
	.size	_ZNK5boost10shared_ptrIKNS_16exception_detail10clone_baseEE3getEv, .-_ZNK5boost10shared_ptrIKNS_16exception_detail10clone_baseEE3getEv
	.section	.text._ZN5boost10error_infoINS_27tag_original_exception_typeEPKSt9type_infoED2Ev,"axG",@progbits,_ZN5boost10error_infoINS_27tag_original_exception_typeEPKSt9type_infoED5Ev,comdat
	.align 2
	.p2align 4,,15
	.weak	_ZN5boost10error_infoINS_27tag_original_exception_typeEPKSt9type_infoED2Ev
	.type	_ZN5boost10error_infoINS_27tag_original_exception_typeEPKSt9type_infoED2Ev, @function
_ZN5boost10error_infoINS_27tag_original_exception_typeEPKSt9type_infoED2Ev:
.LFB11899:
	.cfi_startproc
	rep ret
	.cfi_endproc
.LFE11899:
	.size	_ZN5boost10error_infoINS_27tag_original_exception_typeEPKSt9type_infoED2Ev, .-_ZN5boost10error_infoINS_27tag_original_exception_typeEPKSt9type_infoED2Ev
	.weak	_ZN5boost10error_infoINS_27tag_original_exception_typeEPKSt9type_infoED1Ev
	.set	_ZN5boost10error_infoINS_27tag_original_exception_typeEPKSt9type_infoED1Ev,_ZN5boost10error_infoINS_27tag_original_exception_typeEPKSt9type_infoED2Ev
	.section	.text._ZN5boost9function0IvE5dummy7nonnullEv,"axG",@progbits,_ZN5boost9function0IvE5dummy7nonnullEv,comdat
	.align 2
	.p2align 4,,15
	.weak	_ZN5boost9function0IvE5dummy7nonnullEv
	.type	_ZN5boost9function0IvE5dummy7nonnullEv, @function
_ZN5boost9function0IvE5dummy7nonnullEv:
.LFB12228:
	.cfi_startproc
	rep ret
	.cfi_endproc
.LFE12228:
	.size	_ZN5boost9function0IvE5dummy7nonnullEv, .-_ZN5boost9function0IvE5dummy7nonnullEv
	.section	.text._ZN5boost6detail17sp_counted_impl_pINS0_11thread_dataINS_13packaged_taskIiEEEEED2Ev,"axG",@progbits,_ZN5boost6detail17sp_counted_impl_pINS0_11thread_dataINS_13packaged_taskIiEEEEED5Ev,comdat
	.align 2
	.p2align 4,,15
	.weak	_ZN5boost6detail17sp_counted_impl_pINS0_11thread_dataINS_13packaged_taskIiEEEEED2Ev
	.type	_ZN5boost6detail17sp_counted_impl_pINS0_11thread_dataINS_13packaged_taskIiEEEEED2Ev, @function
_ZN5boost6detail17sp_counted_impl_pINS0_11thread_dataINS_13packaged_taskIiEEEEED2Ev:
.LFB14040:
	.cfi_startproc
	rep ret
	.cfi_endproc
.LFE14040:
	.size	_ZN5boost6detail17sp_counted_impl_pINS0_11thread_dataINS_13packaged_taskIiEEEEED2Ev, .-_ZN5boost6detail17sp_counted_impl_pINS0_11thread_dataINS_13packaged_taskIiEEEEED2Ev
	.weak	_ZN5boost6detail17sp_counted_impl_pINS0_11thread_dataINS_13packaged_taskIiEEEEED1Ev
	.set	_ZN5boost6detail17sp_counted_impl_pINS0_11thread_dataINS_13packaged_taskIiEEEEED1Ev,_ZN5boost6detail17sp_counted_impl_pINS0_11thread_dataINS_13packaged_taskIiEEEEED2Ev
	.section	.text._ZN5boost6detail17sp_counted_impl_pINS_10error_infoINS_27tag_original_exception_typeEPKSt9type_infoEEED2Ev,"axG",@progbits,_ZN5boost6detail17sp_counted_impl_pINS_10error_infoINS_27tag_original_exception_typeEPKSt9type_infoEEED5Ev,comdat
	.align 2
	.p2align 4,,15
	.weak	_ZN5boost6detail17sp_counted_impl_pINS_10error_infoINS_27tag_original_exception_typeEPKSt9type_infoEEED2Ev
	.type	_ZN5boost6detail17sp_counted_impl_pINS_10error_infoINS_27tag_original_exception_typeEPKSt9type_infoEEED2Ev, @function
_ZN5boost6detail17sp_counted_impl_pINS_10error_infoINS_27tag_original_exception_typeEPKSt9type_infoEEED2Ev:
.LFB14044:
	.cfi_startproc
	rep ret
	.cfi_endproc
.LFE14044:
	.size	_ZN5boost6detail17sp_counted_impl_pINS_10error_infoINS_27tag_original_exception_typeEPKSt9type_infoEEED2Ev, .-_ZN5boost6detail17sp_counted_impl_pINS_10error_infoINS_27tag_original_exception_typeEPKSt9type_infoEEED2Ev
	.weak	_ZN5boost6detail17sp_counted_impl_pINS_10error_infoINS_27tag_original_exception_typeEPKSt9type_infoEEED1Ev
	.set	_ZN5boost6detail17sp_counted_impl_pINS_10error_infoINS_27tag_original_exception_typeEPKSt9type_infoEEED1Ev,_ZN5boost6detail17sp_counted_impl_pINS_10error_infoINS_27tag_original_exception_typeEPKSt9type_infoEEED2Ev
	.text
	.align 2
	.p2align 4,,15
	.type	_ZN5boost6detail17sp_counted_impl_pINS0_41future_deferred_continuation_shared_stateINS_6futureIiEEiZ4mainEUlT_E1_EEED2Ev, @function
_ZN5boost6detail17sp_counted_impl_pINS0_41future_deferred_continuation_shared_stateINS_6futureIiEEiZ4mainEUlT_E1_EEED2Ev:
.LFB14048:
	.cfi_startproc
	rep ret
	.cfi_endproc
.LFE14048:
	.size	_ZN5boost6detail17sp_counted_impl_pINS0_41future_deferred_continuation_shared_stateINS_6futureIiEEiZ4mainEUlT_E1_EEED2Ev, .-_ZN5boost6detail17sp_counted_impl_pINS0_41future_deferred_continuation_shared_stateINS_6futureIiEEiZ4mainEUlT_E1_EEED2Ev
	.set	_ZN5boost6detail17sp_counted_impl_pINS0_41future_deferred_continuation_shared_stateINS_6futureIiEEiZ4mainEUlT_E1_EEED1Ev,_ZN5boost6detail17sp_counted_impl_pINS0_41future_deferred_continuation_shared_stateINS_6futureIiEEiZ4mainEUlT_E1_EEED2Ev
	.align 2
	.p2align 4,,15
	.type	_ZN5boost6detail17sp_counted_impl_pINS0_38future_async_continuation_shared_stateINS_6futureIiEEiZ4mainEUlT_E1_EEED2Ev, @function
_ZN5boost6detail17sp_counted_impl_pINS0_38future_async_continuation_shared_stateINS_6futureIiEEiZ4mainEUlT_E1_EEED2Ev:
.LFB14052:
	.cfi_startproc
	rep ret
	.cfi_endproc
.LFE14052:
	.size	_ZN5boost6detail17sp_counted_impl_pINS0_38future_async_continuation_shared_stateINS_6futureIiEEiZ4mainEUlT_E1_EEED2Ev, .-_ZN5boost6detail17sp_counted_impl_pINS0_38future_async_continuation_shared_stateINS_6futureIiEEiZ4mainEUlT_E1_EEED2Ev
	.set	_ZN5boost6detail17sp_counted_impl_pINS0_38future_async_continuation_shared_stateINS_6futureIiEEiZ4mainEUlT_E1_EEED1Ev,_ZN5boost6detail17sp_counted_impl_pINS0_38future_async_continuation_shared_stateINS_6futureIiEEiZ4mainEUlT_E1_EEED2Ev
	.align 2
	.p2align 4,,15
	.type	_ZN5boost6detail17sp_counted_impl_pINS0_41future_deferred_continuation_shared_stateINS_6futureIiEEiZ4mainEUlT_E0_EEED2Ev, @function
_ZN5boost6detail17sp_counted_impl_pINS0_41future_deferred_continuation_shared_stateINS_6futureIiEEiZ4mainEUlT_E0_EEED2Ev:
.LFB14056:
	.cfi_startproc
	rep ret
	.cfi_endproc
.LFE14056:
	.size	_ZN5boost6detail17sp_counted_impl_pINS0_41future_deferred_continuation_shared_stateINS_6futureIiEEiZ4mainEUlT_E0_EEED2Ev, .-_ZN5boost6detail17sp_counted_impl_pINS0_41future_deferred_continuation_shared_stateINS_6futureIiEEiZ4mainEUlT_E0_EEED2Ev
	.set	_ZN5boost6detail17sp_counted_impl_pINS0_41future_deferred_continuation_shared_stateINS_6futureIiEEiZ4mainEUlT_E0_EEED1Ev,_ZN5boost6detail17sp_counted_impl_pINS0_41future_deferred_continuation_shared_stateINS_6futureIiEEiZ4mainEUlT_E0_EEED2Ev
	.align 2
	.p2align 4,,15
	.type	_ZN5boost6detail17sp_counted_impl_pINS0_38future_async_continuation_shared_stateINS_6futureIiEEiZ4mainEUlT_E0_EEED2Ev, @function
_ZN5boost6detail17sp_counted_impl_pINS0_38future_async_continuation_shared_stateINS_6futureIiEEiZ4mainEUlT_E0_EEED2Ev:
.LFB14060:
	.cfi_startproc
	rep ret
	.cfi_endproc
.LFE14060:
	.size	_ZN5boost6detail17sp_counted_impl_pINS0_38future_async_continuation_shared_stateINS_6futureIiEEiZ4mainEUlT_E0_EEED2Ev, .-_ZN5boost6detail17sp_counted_impl_pINS0_38future_async_continuation_shared_stateINS_6futureIiEEiZ4mainEUlT_E0_EEED2Ev
	.set	_ZN5boost6detail17sp_counted_impl_pINS0_38future_async_continuation_shared_stateINS_6futureIiEEiZ4mainEUlT_E0_EEED1Ev,_ZN5boost6detail17sp_counted_impl_pINS0_38future_async_continuation_shared_stateINS_6futureIiEEiZ4mainEUlT_E0_EEED2Ev
	.align 2
	.p2align 4,,15
	.type	_ZN5boost6detail17sp_counted_impl_pINS0_17task_shared_stateIZ4mainEUlvE_iEEED2Ev, @function
_ZN5boost6detail17sp_counted_impl_pINS0_17task_shared_stateIZ4mainEUlvE_iEEED2Ev:
.LFB14064:
	.cfi_startproc
	rep ret
	.cfi_endproc
.LFE14064:
	.size	_ZN5boost6detail17sp_counted_impl_pINS0_17task_shared_stateIZ4mainEUlvE_iEEED2Ev, .-_ZN5boost6detail17sp_counted_impl_pINS0_17task_shared_stateIZ4mainEUlvE_iEEED2Ev
	.set	_ZN5boost6detail17sp_counted_impl_pINS0_17task_shared_stateIZ4mainEUlvE_iEEED1Ev,_ZN5boost6detail17sp_counted_impl_pINS0_17task_shared_stateIZ4mainEUlvE_iEEED2Ev
	.section	.text._ZN5boost6detail17sp_counted_impl_pINS_16exception_detail10clone_implINS2_14bad_exception_EEEED2Ev,"axG",@progbits,_ZN5boost6detail17sp_counted_impl_pINS_16exception_detail10clone_implINS2_14bad_exception_EEEED5Ev,comdat
	.align 2
	.p2align 4,,15
	.weak	_ZN5boost6detail17sp_counted_impl_pINS_16exception_detail10clone_implINS2_14bad_exception_EEEED2Ev
	.type	_ZN5boost6detail17sp_counted_impl_pINS_16exception_detail10clone_implINS2_14bad_exception_EEEED2Ev, @function
_ZN5boost6detail17sp_counted_impl_pINS_16exception_detail10clone_implINS2_14bad_exception_EEEED2Ev:
.LFB14072:
	.cfi_startproc
	rep ret
	.cfi_endproc
.LFE14072:
	.size	_ZN5boost6detail17sp_counted_impl_pINS_16exception_detail10clone_implINS2_14bad_exception_EEEED2Ev, .-_ZN5boost6detail17sp_counted_impl_pINS_16exception_detail10clone_implINS2_14bad_exception_EEEED2Ev
	.weak	_ZN5boost6detail17sp_counted_impl_pINS_16exception_detail10clone_implINS2_14bad_exception_EEEED1Ev
	.set	_ZN5boost6detail17sp_counted_impl_pINS_16exception_detail10clone_implINS2_14bad_exception_EEEED1Ev,_ZN5boost6detail17sp_counted_impl_pINS_16exception_detail10clone_implINS2_14bad_exception_EEEED2Ev
	.section	.text._ZN5boost6detail17sp_counted_impl_pINS_16exception_detail10clone_implINS2_10bad_alloc_EEEED2Ev,"axG",@progbits,_ZN5boost6detail17sp_counted_impl_pINS_16exception_detail10clone_implINS2_10bad_alloc_EEEED5Ev,comdat
	.align 2
	.p2align 4,,15
	.weak	_ZN5boost6detail17sp_counted_impl_pINS_16exception_detail10clone_implINS2_10bad_alloc_EEEED2Ev
	.type	_ZN5boost6detail17sp_counted_impl_pINS_16exception_detail10clone_implINS2_10bad_alloc_EEEED2Ev, @function
_ZN5boost6detail17sp_counted_impl_pINS_16exception_detail10clone_implINS2_10bad_alloc_EEEED2Ev:
.LFB14076:
	.cfi_startproc
	rep ret
	.cfi_endproc
.LFE14076:
	.size	_ZN5boost6detail17sp_counted_impl_pINS_16exception_detail10clone_implINS2_10bad_alloc_EEEED2Ev, .-_ZN5boost6detail17sp_counted_impl_pINS_16exception_detail10clone_implINS2_10bad_alloc_EEEED2Ev
	.weak	_ZN5boost6detail17sp_counted_impl_pINS_16exception_detail10clone_implINS2_10bad_alloc_EEEED1Ev
	.set	_ZN5boost6detail17sp_counted_impl_pINS_16exception_detail10clone_implINS2_10bad_alloc_EEEED1Ev,_ZN5boost6detail17sp_counted_impl_pINS_16exception_detail10clone_implINS2_10bad_alloc_EEEED2Ev
	.section	.text._ZN5boost6detail17sp_counted_impl_pIKNS_16exception_detail10clone_baseEED2Ev,"axG",@progbits,_ZN5boost6detail17sp_counted_impl_pIKNS_16exception_detail10clone_baseEED5Ev,comdat
	.align 2
	.p2align 4,,15
	.weak	_ZN5boost6detail17sp_counted_impl_pIKNS_16exception_detail10clone_baseEED2Ev
	.type	_ZN5boost6detail17sp_counted_impl_pIKNS_16exception_detail10clone_baseEED2Ev, @function
_ZN5boost6detail17sp_counted_impl_pIKNS_16exception_detail10clone_baseEED2Ev:
.LFB14088:
	.cfi_startproc
	rep ret
	.cfi_endproc
.LFE14088:
	.size	_ZN5boost6detail17sp_counted_impl_pIKNS_16exception_detail10clone_baseEED2Ev, .-_ZN5boost6detail17sp_counted_impl_pIKNS_16exception_detail10clone_baseEED2Ev
	.weak	_ZN5boost6detail17sp_counted_impl_pIKNS_16exception_detail10clone_baseEED1Ev
	.set	_ZN5boost6detail17sp_counted_impl_pIKNS_16exception_detail10clone_baseEED1Ev,_ZN5boost6detail17sp_counted_impl_pIKNS_16exception_detail10clone_baseEED2Ev
	.section	.text._ZN5boost6detail17sp_counted_impl_pINS0_11thread_dataINS_13packaged_taskIiEEEEE7disposeEv,"axG",@progbits,_ZN5boost6detail17sp_counted_impl_pINS0_11thread_dataINS_13packaged_taskIiEEEEE7disposeEv,comdat
	.align 2
	.p2align 4,,15
	.weak	_ZN5boost6detail17sp_counted_impl_pINS0_11thread_dataINS_13packaged_taskIiEEEEE7disposeEv
	.type	_ZN5boost6detail17sp_counted_impl_pINS0_11thread_dataINS_13packaged_taskIiEEEEE7disposeEv, @function
_ZN5boost6detail17sp_counted_impl_pINS0_11thread_dataINS_13packaged_taskIiEEEEE7disposeEv:
.LFB14136:
	.cfi_startproc
	movq	16(%rdi), %rdi
	testq	%rdi, %rdi
	je	.L20
	movq	(%rdi), %rax
	jmp	*8(%rax)
	.p2align 4,,10
	.p2align 3
.L20:
	rep ret
	.cfi_endproc
.LFE14136:
	.size	_ZN5boost6detail17sp_counted_impl_pINS0_11thread_dataINS_13packaged_taskIiEEEEE7disposeEv, .-_ZN5boost6detail17sp_counted_impl_pINS0_11thread_dataINS_13packaged_taskIiEEEEE7disposeEv
	.section	.text._ZN5boost6detail17sp_counted_impl_pINS0_11thread_dataINS_13packaged_taskIiEEEEE11get_deleterERKSt9type_info,"axG",@progbits,_ZN5boost6detail17sp_counted_impl_pINS0_11thread_dataINS_13packaged_taskIiEEEEE11get_deleterERKSt9type_info,comdat
	.align 2
	.p2align 4,,15
	.weak	_ZN5boost6detail17sp_counted_impl_pINS0_11thread_dataINS_13packaged_taskIiEEEEE11get_deleterERKSt9type_info
	.type	_ZN5boost6detail17sp_counted_impl_pINS0_11thread_dataINS_13packaged_taskIiEEEEE11get_deleterERKSt9type_info, @function
_ZN5boost6detail17sp_counted_impl_pINS0_11thread_dataINS_13packaged_taskIiEEEEE11get_deleterERKSt9type_info:
.LFB14137:
	.cfi_startproc
	xorl	%eax, %eax
	ret
	.cfi_endproc
.LFE14137:
	.size	_ZN5boost6detail17sp_counted_impl_pINS0_11thread_dataINS_13packaged_taskIiEEEEE11get_deleterERKSt9type_info, .-_ZN5boost6detail17sp_counted_impl_pINS0_11thread_dataINS_13packaged_taskIiEEEEE11get_deleterERKSt9type_info
	.section	.text._ZN5boost6detail17sp_counted_impl_pINS0_11thread_dataINS_13packaged_taskIiEEEEE19get_untyped_deleterEv,"axG",@progbits,_ZN5boost6detail17sp_counted_impl_pINS0_11thread_dataINS_13packaged_taskIiEEEEE19get_untyped_deleterEv,comdat
	.align 2
	.p2align 4,,15
	.weak	_ZN5boost6detail17sp_counted_impl_pINS0_11thread_dataINS_13packaged_taskIiEEEEE19get_untyped_deleterEv
	.type	_ZN5boost6detail17sp_counted_impl_pINS0_11thread_dataINS_13packaged_taskIiEEEEE19get_untyped_deleterEv, @function
_ZN5boost6detail17sp_counted_impl_pINS0_11thread_dataINS_13packaged_taskIiEEEEE19get_untyped_deleterEv:
.LFB14138:
	.cfi_startproc
	xorl	%eax, %eax
	ret
	.cfi_endproc
.LFE14138:
	.size	_ZN5boost6detail17sp_counted_impl_pINS0_11thread_dataINS_13packaged_taskIiEEEEE19get_untyped_deleterEv, .-_ZN5boost6detail17sp_counted_impl_pINS0_11thread_dataINS_13packaged_taskIiEEEEE19get_untyped_deleterEv
	.section	.text._ZN5boost6detail17sp_counted_impl_pINS_10error_infoINS_27tag_original_exception_typeEPKSt9type_infoEEE11get_deleterERS5_,"axG",@progbits,_ZN5boost6detail17sp_counted_impl_pINS_10error_infoINS_27tag_original_exception_typeEPKSt9type_infoEEE11get_deleterERS5_,comdat
	.align 2
	.p2align 4,,15
	.weak	_ZN5boost6detail17sp_counted_impl_pINS_10error_infoINS_27tag_original_exception_typeEPKSt9type_infoEEE11get_deleterERS5_
	.type	_ZN5boost6detail17sp_counted_impl_pINS_10error_infoINS_27tag_original_exception_typeEPKSt9type_infoEEE11get_deleterERS5_, @function
_ZN5boost6detail17sp_counted_impl_pINS_10error_infoINS_27tag_original_exception_typeEPKSt9type_infoEEE11get_deleterERS5_:
.LFB14140:
	.cfi_startproc
	xorl	%eax, %eax
	ret
	.cfi_endproc
.LFE14140:
	.size	_ZN5boost6detail17sp_counted_impl_pINS_10error_infoINS_27tag_original_exception_typeEPKSt9type_infoEEE11get_deleterERS5_, .-_ZN5boost6detail17sp_counted_impl_pINS_10error_infoINS_27tag_original_exception_typeEPKSt9type_infoEEE11get_deleterERS5_
	.section	.text._ZN5boost6detail17sp_counted_impl_pINS_10error_infoINS_27tag_original_exception_typeEPKSt9type_infoEEE19get_untyped_deleterEv,"axG",@progbits,_ZN5boost6detail17sp_counted_impl_pINS_10error_infoINS_27tag_original_exception_typeEPKSt9type_infoEEE19get_untyped_deleterEv,comdat
	.align 2
	.p2align 4,,15
	.weak	_ZN5boost6detail17sp_counted_impl_pINS_10error_infoINS_27tag_original_exception_typeEPKSt9type_infoEEE19get_untyped_deleterEv
	.type	_ZN5boost6detail17sp_counted_impl_pINS_10error_infoINS_27tag_original_exception_typeEPKSt9type_infoEEE19get_untyped_deleterEv, @function
_ZN5boost6detail17sp_counted_impl_pINS_10error_infoINS_27tag_original_exception_typeEPKSt9type_infoEEE19get_untyped_deleterEv:
.LFB14141:
	.cfi_startproc
	xorl	%eax, %eax
	ret
	.cfi_endproc
.LFE14141:
	.size	_ZN5boost6detail17sp_counted_impl_pINS_10error_infoINS_27tag_original_exception_typeEPKSt9type_infoEEE19get_untyped_deleterEv, .-_ZN5boost6detail17sp_counted_impl_pINS_10error_infoINS_27tag_original_exception_typeEPKSt9type_infoEEE19get_untyped_deleterEv
	.text
	.align 2
	.p2align 4,,15
	.type	_ZN5boost6detail17sp_counted_impl_pINS0_17task_shared_stateIZ4mainEUlvE_iEEE11get_deleterERKSt9type_info, @function
_ZN5boost6detail17sp_counted_impl_pINS0_17task_shared_stateIZ4mainEUlvE_iEEE11get_deleterERKSt9type_info:
.LFB14155:
	.cfi_startproc
	xorl	%eax, %eax
	ret
	.cfi_endproc
.LFE14155:
	.size	_ZN5boost6detail17sp_counted_impl_pINS0_17task_shared_stateIZ4mainEUlvE_iEEE11get_deleterERKSt9type_info, .-_ZN5boost6detail17sp_counted_impl_pINS0_17task_shared_stateIZ4mainEUlvE_iEEE11get_deleterERKSt9type_info
	.set	_ZN5boost6detail17sp_counted_impl_pINS0_11thread_dataINS_3_bi6bind_tIvPFvNS_10shared_ptrINS0_17shared_state_baseEEEENS3_5list1INS3_5valueINS5_INS0_38future_async_continuation_shared_stateINS_6futureIiEEiZ4mainEUlT_E0_EEEEEEEEEEEEE11get_deleterERKSt9type_info,_ZN5boost6detail17sp_counted_impl_pINS0_17task_shared_stateIZ4mainEUlvE_iEEE11get_deleterERKSt9type_info
	.set	_ZN5boost6detail17sp_counted_impl_pINS0_11thread_dataINS_3_bi6bind_tIvPFvNS_10shared_ptrINS0_17shared_state_baseEEEENS3_5list1INS3_5valueINS5_INS0_38future_async_continuation_shared_stateINS_6futureIiEEiZ4mainEUlT_E1_EEEEEEEEEEEEE11get_deleterERKSt9type_info,_ZN5boost6detail17sp_counted_impl_pINS0_17task_shared_stateIZ4mainEUlvE_iEEE11get_deleterERKSt9type_info
	.set	_ZN5boost6detail17sp_counted_impl_pINS0_41future_deferred_continuation_shared_stateINS_6futureIiEEiZ4mainEUlT_E1_EEE11get_deleterERKSt9type_info,_ZN5boost6detail17sp_counted_impl_pINS0_17task_shared_stateIZ4mainEUlvE_iEEE11get_deleterERKSt9type_info
	.set	_ZN5boost6detail17sp_counted_impl_pINS0_38future_async_continuation_shared_stateINS_6futureIiEEiZ4mainEUlT_E1_EEE11get_deleterERKSt9type_info,_ZN5boost6detail17sp_counted_impl_pINS0_17task_shared_stateIZ4mainEUlvE_iEEE11get_deleterERKSt9type_info
	.set	_ZN5boost6detail17sp_counted_impl_pINS0_41future_deferred_continuation_shared_stateINS_6futureIiEEiZ4mainEUlT_E0_EEE11get_deleterERKSt9type_info,_ZN5boost6detail17sp_counted_impl_pINS0_17task_shared_stateIZ4mainEUlvE_iEEE11get_deleterERKSt9type_info
	.set	_ZN5boost6detail17sp_counted_impl_pINS0_38future_async_continuation_shared_stateINS_6futureIiEEiZ4mainEUlT_E0_EEE11get_deleterERKSt9type_info,_ZN5boost6detail17sp_counted_impl_pINS0_17task_shared_stateIZ4mainEUlvE_iEEE11get_deleterERKSt9type_info
	.align 2
	.p2align 4,,15
	.type	_ZN5boost6detail17sp_counted_impl_pINS0_17task_shared_stateIZ4mainEUlvE_iEEE19get_untyped_deleterEv, @function
_ZN5boost6detail17sp_counted_impl_pINS0_17task_shared_stateIZ4mainEUlvE_iEEE19get_untyped_deleterEv:
.LFB14156:
	.cfi_startproc
	xorl	%eax, %eax
	ret
	.cfi_endproc
.LFE14156:
	.size	_ZN5boost6detail17sp_counted_impl_pINS0_17task_shared_stateIZ4mainEUlvE_iEEE19get_untyped_deleterEv, .-_ZN5boost6detail17sp_counted_impl_pINS0_17task_shared_stateIZ4mainEUlvE_iEEE19get_untyped_deleterEv
	.set	_ZN5boost6detail17sp_counted_impl_pINS0_11thread_dataINS_3_bi6bind_tIvPFvNS_10shared_ptrINS0_17shared_state_baseEEEENS3_5list1INS3_5valueINS5_INS0_38future_async_continuation_shared_stateINS_6futureIiEEiZ4mainEUlT_E0_EEEEEEEEEEEEE19get_untyped_deleterEv,_ZN5boost6detail17sp_counted_impl_pINS0_17task_shared_stateIZ4mainEUlvE_iEEE19get_untyped_deleterEv
	.set	_ZN5boost6detail17sp_counted_impl_pINS0_11thread_dataINS_3_bi6bind_tIvPFvNS_10shared_ptrINS0_17shared_state_baseEEEENS3_5list1INS3_5valueINS5_INS0_38future_async_continuation_shared_stateINS_6futureIiEEiZ4mainEUlT_E1_EEEEEEEEEEEEE19get_untyped_deleterEv,_ZN5boost6detail17sp_counted_impl_pINS0_17task_shared_stateIZ4mainEUlvE_iEEE19get_untyped_deleterEv
	.set	_ZN5boost6detail17sp_counted_impl_pINS0_41future_deferred_continuation_shared_stateINS_6futureIiEEiZ4mainEUlT_E1_EEE19get_untyped_deleterEv,_ZN5boost6detail17sp_counted_impl_pINS0_17task_shared_stateIZ4mainEUlvE_iEEE19get_untyped_deleterEv
	.set	_ZN5boost6detail17sp_counted_impl_pINS0_38future_async_continuation_shared_stateINS_6futureIiEEiZ4mainEUlT_E1_EEE19get_untyped_deleterEv,_ZN5boost6detail17sp_counted_impl_pINS0_17task_shared_stateIZ4mainEUlvE_iEEE19get_untyped_deleterEv
	.set	_ZN5boost6detail17sp_counted_impl_pINS0_41future_deferred_continuation_shared_stateINS_6futureIiEEiZ4mainEUlT_E0_EEE19get_untyped_deleterEv,_ZN5boost6detail17sp_counted_impl_pINS0_17task_shared_stateIZ4mainEUlvE_iEEE19get_untyped_deleterEv
	.set	_ZN5boost6detail17sp_counted_impl_pINS0_38future_async_continuation_shared_stateINS_6futureIiEEiZ4mainEUlT_E0_EEE19get_untyped_deleterEv,_ZN5boost6detail17sp_counted_impl_pINS0_17task_shared_stateIZ4mainEUlvE_iEEE19get_untyped_deleterEv
	.section	.text._ZN5boost6detail17sp_counted_impl_pINS_16exception_detail10clone_implINS2_14bad_exception_EEEE11get_deleterERKSt9type_info,"axG",@progbits,_ZN5boost6detail17sp_counted_impl_pINS_16exception_detail10clone_implINS2_14bad_exception_EEEE11get_deleterERKSt9type_info,comdat
	.align 2
	.p2align 4,,15
	.weak	_ZN5boost6detail17sp_counted_impl_pINS_16exception_detail10clone_implINS2_14bad_exception_EEEE11get_deleterERKSt9type_info
	.type	_ZN5boost6detail17sp_counted_impl_pINS_16exception_detail10clone_implINS2_14bad_exception_EEEE11get_deleterERKSt9type_info, @function
_ZN5boost6detail17sp_counted_impl_pINS_16exception_detail10clone_implINS2_14bad_exception_EEEE11get_deleterERKSt9type_info:
.LFB14167:
	.cfi_startproc
	xorl	%eax, %eax
	ret
	.cfi_endproc
.LFE14167:
	.size	_ZN5boost6detail17sp_counted_impl_pINS_16exception_detail10clone_implINS2_14bad_exception_EEEE11get_deleterERKSt9type_info, .-_ZN5boost6detail17sp_counted_impl_pINS_16exception_detail10clone_implINS2_14bad_exception_EEEE11get_deleterERKSt9type_info
	.section	.text._ZN5boost6detail17sp_counted_impl_pINS_16exception_detail10clone_implINS2_14bad_exception_EEEE19get_untyped_deleterEv,"axG",@progbits,_ZN5boost6detail17sp_counted_impl_pINS_16exception_detail10clone_implINS2_14bad_exception_EEEE19get_untyped_deleterEv,comdat
	.align 2
	.p2align 4,,15
	.weak	_ZN5boost6detail17sp_counted_impl_pINS_16exception_detail10clone_implINS2_14bad_exception_EEEE19get_untyped_deleterEv
	.type	_ZN5boost6detail17sp_counted_impl_pINS_16exception_detail10clone_implINS2_14bad_exception_EEEE19get_untyped_deleterEv, @function
_ZN5boost6detail17sp_counted_impl_pINS_16exception_detail10clone_implINS2_14bad_exception_EEEE19get_untyped_deleterEv:
.LFB14168:
	.cfi_startproc
	xorl	%eax, %eax
	ret
	.cfi_endproc
.LFE14168:
	.size	_ZN5boost6detail17sp_counted_impl_pINS_16exception_detail10clone_implINS2_14bad_exception_EEEE19get_untyped_deleterEv, .-_ZN5boost6detail17sp_counted_impl_pINS_16exception_detail10clone_implINS2_14bad_exception_EEEE19get_untyped_deleterEv
	.section	.text._ZN5boost6detail17sp_counted_impl_pINS_16exception_detail10clone_implINS2_10bad_alloc_EEEE11get_deleterERKSt9type_info,"axG",@progbits,_ZN5boost6detail17sp_counted_impl_pINS_16exception_detail10clone_implINS2_10bad_alloc_EEEE11get_deleterERKSt9type_info,comdat
	.align 2
	.p2align 4,,15
	.weak	_ZN5boost6detail17sp_counted_impl_pINS_16exception_detail10clone_implINS2_10bad_alloc_EEEE11get_deleterERKSt9type_info
	.type	_ZN5boost6detail17sp_counted_impl_pINS_16exception_detail10clone_implINS2_10bad_alloc_EEEE11get_deleterERKSt9type_info, @function
_ZN5boost6detail17sp_counted_impl_pINS_16exception_detail10clone_implINS2_10bad_alloc_EEEE11get_deleterERKSt9type_info:
.LFB14170:
	.cfi_startproc
	xorl	%eax, %eax
	ret
	.cfi_endproc
.LFE14170:
	.size	_ZN5boost6detail17sp_counted_impl_pINS_16exception_detail10clone_implINS2_10bad_alloc_EEEE11get_deleterERKSt9type_info, .-_ZN5boost6detail17sp_counted_impl_pINS_16exception_detail10clone_implINS2_10bad_alloc_EEEE11get_deleterERKSt9type_info
	.section	.text._ZN5boost6detail17sp_counted_impl_pINS_16exception_detail10clone_implINS2_10bad_alloc_EEEE19get_untyped_deleterEv,"axG",@progbits,_ZN5boost6detail17sp_counted_impl_pINS_16exception_detail10clone_implINS2_10bad_alloc_EEEE19get_untyped_deleterEv,comdat
	.align 2
	.p2align 4,,15
	.weak	_ZN5boost6detail17sp_counted_impl_pINS_16exception_detail10clone_implINS2_10bad_alloc_EEEE19get_untyped_deleterEv
	.type	_ZN5boost6detail17sp_counted_impl_pINS_16exception_detail10clone_implINS2_10bad_alloc_EEEE19get_untyped_deleterEv, @function
_ZN5boost6detail17sp_counted_impl_pINS_16exception_detail10clone_implINS2_10bad_alloc_EEEE19get_untyped_deleterEv:
.LFB14171:
	.cfi_startproc
	xorl	%eax, %eax
	ret
	.cfi_endproc
.LFE14171:
	.size	_ZN5boost6detail17sp_counted_impl_pINS_16exception_detail10clone_implINS2_10bad_alloc_EEEE19get_untyped_deleterEv, .-_ZN5boost6detail17sp_counted_impl_pINS_16exception_detail10clone_implINS2_10bad_alloc_EEEE19get_untyped_deleterEv
	.text
	.align 2
	.p2align 4,,15
	.type	_ZN5boost6detail41future_deferred_continuation_shared_stateINS_6futureIiEEiZ4mainEUlT_E0_E19launch_continuationEv, @function
_ZN5boost6detail41future_deferred_continuation_shared_stateINS_6futureIiEEiZ4mainEUlT_E0_E19launch_continuationEv:
.LFB14197:
	.cfi_startproc
	rep ret
	.cfi_endproc
.LFE14197:
	.size	_ZN5boost6detail41future_deferred_continuation_shared_stateINS_6futureIiEEiZ4mainEUlT_E0_E19launch_continuationEv, .-_ZN5boost6detail41future_deferred_continuation_shared_stateINS_6futureIiEEiZ4mainEUlT_E0_E19launch_continuationEv
	.set	_ZN5boost6detail41future_deferred_continuation_shared_stateINS_6futureIiEEiZ4mainEUlT_E1_E19launch_continuationEv,_ZN5boost6detail41future_deferred_continuation_shared_stateINS_6futureIiEEiZ4mainEUlT_E0_E19launch_continuationEv
	.section	.text._ZN5boost6detail17sp_counted_impl_pIKNS_16exception_detail10clone_baseEE7disposeEv,"axG",@progbits,_ZN5boost6detail17sp_counted_impl_pIKNS_16exception_detail10clone_baseEE7disposeEv,comdat
	.align 2
	.p2align 4,,15
	.weak	_ZN5boost6detail17sp_counted_impl_pIKNS_16exception_detail10clone_baseEE7disposeEv
	.type	_ZN5boost6detail17sp_counted_impl_pIKNS_16exception_detail10clone_baseEE7disposeEv, @function
_ZN5boost6detail17sp_counted_impl_pIKNS_16exception_detail10clone_baseEE7disposeEv:
.LFB14208:
	.cfi_startproc
	movq	16(%rdi), %rdi
	testq	%rdi, %rdi
	je	.L33
	movq	(%rdi), %rax
	jmp	*24(%rax)
	.p2align 4,,10
	.p2align 3
.L33:
	rep ret
	.cfi_endproc
.LFE14208:
	.size	_ZN5boost6detail17sp_counted_impl_pIKNS_16exception_detail10clone_baseEE7disposeEv, .-_ZN5boost6detail17sp_counted_impl_pIKNS_16exception_detail10clone_baseEE7disposeEv
	.section	.text._ZN5boost6detail17sp_counted_impl_pIKNS_16exception_detail10clone_baseEE11get_deleterERKSt9type_info,"axG",@progbits,_ZN5boost6detail17sp_counted_impl_pIKNS_16exception_detail10clone_baseEE11get_deleterERKSt9type_info,comdat
	.align 2
	.p2align 4,,15
	.weak	_ZN5boost6detail17sp_counted_impl_pIKNS_16exception_detail10clone_baseEE11get_deleterERKSt9type_info
	.type	_ZN5boost6detail17sp_counted_impl_pIKNS_16exception_detail10clone_baseEE11get_deleterERKSt9type_info, @function
_ZN5boost6detail17sp_counted_impl_pIKNS_16exception_detail10clone_baseEE11get_deleterERKSt9type_info:
.LFB14209:
	.cfi_startproc
	xorl	%eax, %eax
	ret
	.cfi_endproc
.LFE14209:
	.size	_ZN5boost6detail17sp_counted_impl_pIKNS_16exception_detail10clone_baseEE11get_deleterERKSt9type_info, .-_ZN5boost6detail17sp_counted_impl_pIKNS_16exception_detail10clone_baseEE11get_deleterERKSt9type_info
	.section	.text._ZN5boost6detail17sp_counted_impl_pIKNS_16exception_detail10clone_baseEE19get_untyped_deleterEv,"axG",@progbits,_ZN5boost6detail17sp_counted_impl_pIKNS_16exception_detail10clone_baseEE19get_untyped_deleterEv,comdat
	.align 2
	.p2align 4,,15
	.weak	_ZN5boost6detail17sp_counted_impl_pIKNS_16exception_detail10clone_baseEE19get_untyped_deleterEv
	.type	_ZN5boost6detail17sp_counted_impl_pIKNS_16exception_detail10clone_baseEE19get_untyped_deleterEv, @function
_ZN5boost6detail17sp_counted_impl_pIKNS_16exception_detail10clone_baseEE19get_untyped_deleterEv:
.LFB14210:
	.cfi_startproc
	xorl	%eax, %eax
	ret
	.cfi_endproc
.LFE14210:
	.size	_ZN5boost6detail17sp_counted_impl_pIKNS_16exception_detail10clone_baseEE19get_untyped_deleterEv, .-_ZN5boost6detail17sp_counted_impl_pIKNS_16exception_detail10clone_baseEE19get_untyped_deleterEv
	.text
	.align 2
	.p2align 4,,15
	.type	_ZN5boost6detail17sp_counted_impl_pINS0_11thread_dataINS_3_bi6bind_tIvPFvNS_10shared_ptrINS0_17shared_state_baseEEEENS3_5list1INS3_5valueINS5_INS0_38future_async_continuation_shared_stateINS_6futureIiEEiZ4mainEUlT_E0_EEEEEEEEEEEEED2Ev, @function
_ZN5boost6detail17sp_counted_impl_pINS0_11thread_dataINS_3_bi6bind_tIvPFvNS_10shared_ptrINS0_17shared_state_baseEEEENS3_5list1INS3_5valueINS5_INS0_38future_async_continuation_shared_stateINS_6futureIiEEiZ4mainEUlT_E0_EEEEEEEEEEEEED2Ev:
.LFB14697:
	.cfi_startproc
	rep ret
	.cfi_endproc
.LFE14697:
	.size	_ZN5boost6detail17sp_counted_impl_pINS0_11thread_dataINS_3_bi6bind_tIvPFvNS_10shared_ptrINS0_17shared_state_baseEEEENS3_5list1INS3_5valueINS5_INS0_38future_async_continuation_shared_stateINS_6futureIiEEiZ4mainEUlT_E0_EEEEEEEEEEEEED2Ev, .-_ZN5boost6detail17sp_counted_impl_pINS0_11thread_dataINS_3_bi6bind_tIvPFvNS_10shared_ptrINS0_17shared_state_baseEEEENS3_5list1INS3_5valueINS5_INS0_38future_async_continuation_shared_stateINS_6futureIiEEiZ4mainEUlT_E0_EEEEEEEEEEEEED2Ev
	.set	_ZN5boost6detail17sp_counted_impl_pINS0_11thread_dataINS_3_bi6bind_tIvPFvNS_10shared_ptrINS0_17shared_state_baseEEEENS3_5list1INS3_5valueINS5_INS0_38future_async_continuation_shared_stateINS_6futureIiEEiZ4mainEUlT_E0_EEEEEEEEEEEEED1Ev,_ZN5boost6detail17sp_counted_impl_pINS0_11thread_dataINS_3_bi6bind_tIvPFvNS_10shared_ptrINS0_17shared_state_baseEEEENS3_5list1INS3_5valueINS5_INS0_38future_async_continuation_shared_stateINS_6futureIiEEiZ4mainEUlT_E0_EEEEEEEEEEEEED2Ev
	.align 2
	.p2align 4,,15
	.type	_ZN5boost6detail17sp_counted_impl_pINS0_11thread_dataINS_3_bi6bind_tIvPFvNS_10shared_ptrINS0_17shared_state_baseEEEENS3_5list1INS3_5valueINS5_INS0_38future_async_continuation_shared_stateINS_6futureIiEEiZ4mainEUlT_E1_EEEEEEEEEEEEED2Ev, @function
_ZN5boost6detail17sp_counted_impl_pINS0_11thread_dataINS_3_bi6bind_tIvPFvNS_10shared_ptrINS0_17shared_state_baseEEEENS3_5list1INS3_5valueINS5_INS0_38future_async_continuation_shared_stateINS_6futureIiEEiZ4mainEUlT_E1_EEEEEEEEEEEEED2Ev:
.LFB14701:
	.cfi_startproc
	rep ret
	.cfi_endproc
.LFE14701:
	.size	_ZN5boost6detail17sp_counted_impl_pINS0_11thread_dataINS_3_bi6bind_tIvPFvNS_10shared_ptrINS0_17shared_state_baseEEEENS3_5list1INS3_5valueINS5_INS0_38future_async_continuation_shared_stateINS_6futureIiEEiZ4mainEUlT_E1_EEEEEEEEEEEEED2Ev, .-_ZN5boost6detail17sp_counted_impl_pINS0_11thread_dataINS_3_bi6bind_tIvPFvNS_10shared_ptrINS0_17shared_state_baseEEEENS3_5list1INS3_5valueINS5_INS0_38future_async_continuation_shared_stateINS_6futureIiEEiZ4mainEUlT_E1_EEEEEEEEEEEEED2Ev
	.set	_ZN5boost6detail17sp_counted_impl_pINS0_11thread_dataINS_3_bi6bind_tIvPFvNS_10shared_ptrINS0_17shared_state_baseEEEENS3_5list1INS3_5valueINS5_INS0_38future_async_continuation_shared_stateINS_6futureIiEEiZ4mainEUlT_E1_EEEEEEEEEEEEED1Ev,_ZN5boost6detail17sp_counted_impl_pINS0_11thread_dataINS_3_bi6bind_tIvPFvNS_10shared_ptrINS0_17shared_state_baseEEEENS3_5list1INS3_5valueINS5_INS0_38future_async_continuation_shared_stateINS_6futureIiEEiZ4mainEUlT_E1_EEEEEEEEEEEEED2Ev
	.section	.text._ZN5boost6detail17sp_counted_impl_pINS0_11thread_dataINS_13packaged_taskIiEEEEED0Ev,"axG",@progbits,_ZN5boost6detail17sp_counted_impl_pINS0_11thread_dataINS_13packaged_taskIiEEEEED5Ev,comdat
	.align 2
	.p2align 4,,15
	.weak	_ZN5boost6detail17sp_counted_impl_pINS0_11thread_dataINS_13packaged_taskIiEEEEED0Ev
	.type	_ZN5boost6detail17sp_counted_impl_pINS0_11thread_dataINS_13packaged_taskIiEEEEED0Ev, @function
_ZN5boost6detail17sp_counted_impl_pINS0_11thread_dataINS_13packaged_taskIiEEEEED0Ev:
.LFB14042:
	.cfi_startproc
	movl	$24, %esi
	jmp	_ZdlPvm
	.cfi_endproc
.LFE14042:
	.size	_ZN5boost6detail17sp_counted_impl_pINS0_11thread_dataINS_13packaged_taskIiEEEEED0Ev, .-_ZN5boost6detail17sp_counted_impl_pINS0_11thread_dataINS_13packaged_taskIiEEEEED0Ev
	.section	.text._ZN5boost6detail17sp_counted_impl_pINS_10error_infoINS_27tag_original_exception_typeEPKSt9type_infoEEED0Ev,"axG",@progbits,_ZN5boost6detail17sp_counted_impl_pINS_10error_infoINS_27tag_original_exception_typeEPKSt9type_infoEEED5Ev,comdat
	.align 2
	.p2align 4,,15
	.weak	_ZN5boost6detail17sp_counted_impl_pINS_10error_infoINS_27tag_original_exception_typeEPKSt9type_infoEEED0Ev
	.type	_ZN5boost6detail17sp_counted_impl_pINS_10error_infoINS_27tag_original_exception_typeEPKSt9type_infoEEED0Ev, @function
_ZN5boost6detail17sp_counted_impl_pINS_10error_infoINS_27tag_original_exception_typeEPKSt9type_infoEEED0Ev:
.LFB14046:
	.cfi_startproc
	movl	$24, %esi
	jmp	_ZdlPvm
	.cfi_endproc
.LFE14046:
	.size	_ZN5boost6detail17sp_counted_impl_pINS_10error_infoINS_27tag_original_exception_typeEPKSt9type_infoEEED0Ev, .-_ZN5boost6detail17sp_counted_impl_pINS_10error_infoINS_27tag_original_exception_typeEPKSt9type_infoEEED0Ev
	.section	.text._ZN5boost6detail17sp_counted_impl_pINS_16exception_detail10clone_implINS2_14bad_exception_EEEED0Ev,"axG",@progbits,_ZN5boost6detail17sp_counted_impl_pINS_16exception_detail10clone_implINS2_14bad_exception_EEEED5Ev,comdat
	.align 2
	.p2align 4,,15
	.weak	_ZN5boost6detail17sp_counted_impl_pINS_16exception_detail10clone_implINS2_14bad_exception_EEEED0Ev
	.type	_ZN5boost6detail17sp_counted_impl_pINS_16exception_detail10clone_implINS2_14bad_exception_EEEED0Ev, @function
_ZN5boost6detail17sp_counted_impl_pINS_16exception_detail10clone_implINS2_14bad_exception_EEEED0Ev:
.LFB14074:
	.cfi_startproc
	movl	$24, %esi
	jmp	_ZdlPvm
	.cfi_endproc
.LFE14074:
	.size	_ZN5boost6detail17sp_counted_impl_pINS_16exception_detail10clone_implINS2_14bad_exception_EEEED0Ev, .-_ZN5boost6detail17sp_counted_impl_pINS_16exception_detail10clone_implINS2_14bad_exception_EEEED0Ev
	.section	.text._ZN5boost6detail17sp_counted_impl_pINS_16exception_detail10clone_implINS2_10bad_alloc_EEEED0Ev,"axG",@progbits,_ZN5boost6detail17sp_counted_impl_pINS_16exception_detail10clone_implINS2_10bad_alloc_EEEED5Ev,comdat
	.align 2
	.p2align 4,,15
	.weak	_ZN5boost6detail17sp_counted_impl_pINS_16exception_detail10clone_implINS2_10bad_alloc_EEEED0Ev
	.type	_ZN5boost6detail17sp_counted_impl_pINS_16exception_detail10clone_implINS2_10bad_alloc_EEEED0Ev, @function
_ZN5boost6detail17sp_counted_impl_pINS_16exception_detail10clone_implINS2_10bad_alloc_EEEED0Ev:
.LFB14078:
	.cfi_startproc
	movl	$24, %esi
	jmp	_ZdlPvm
	.cfi_endproc
.LFE14078:
	.size	_ZN5boost6detail17sp_counted_impl_pINS_16exception_detail10clone_implINS2_10bad_alloc_EEEED0Ev, .-_ZN5boost6detail17sp_counted_impl_pINS_16exception_detail10clone_implINS2_10bad_alloc_EEEED0Ev
	.section	.text._ZN5boost6detail17sp_counted_impl_pIKNS_16exception_detail10clone_baseEED0Ev,"axG",@progbits,_ZN5boost6detail17sp_counted_impl_pIKNS_16exception_detail10clone_baseEED5Ev,comdat
	.align 2
	.p2align 4,,15
	.weak	_ZN5boost6detail17sp_counted_impl_pIKNS_16exception_detail10clone_baseEED0Ev
	.type	_ZN5boost6detail17sp_counted_impl_pIKNS_16exception_detail10clone_baseEED0Ev, @function
_ZN5boost6detail17sp_counted_impl_pIKNS_16exception_detail10clone_baseEED0Ev:
.LFB14090:
	.cfi_startproc
	movl	$24, %esi
	jmp	_ZdlPvm
	.cfi_endproc
.LFE14090:
	.size	_ZN5boost6detail17sp_counted_impl_pIKNS_16exception_detail10clone_baseEED0Ev, .-_ZN5boost6detail17sp_counted_impl_pIKNS_16exception_detail10clone_baseEED0Ev
	.text
	.align 2
	.p2align 4,,15
	.type	_ZN5boost6detail17sp_counted_impl_pINS0_17task_shared_stateIZ4mainEUlvE_iEEED0Ev, @function
_ZN5boost6detail17sp_counted_impl_pINS0_17task_shared_stateIZ4mainEUlvE_iEEED0Ev:
.LFB14066:
	.cfi_startproc
	movl	$24, %esi
	jmp	_ZdlPvm
	.cfi_endproc
.LFE14066:
	.size	_ZN5boost6detail17sp_counted_impl_pINS0_17task_shared_stateIZ4mainEUlvE_iEEED0Ev, .-_ZN5boost6detail17sp_counted_impl_pINS0_17task_shared_stateIZ4mainEUlvE_iEEED0Ev
	.align 2
	.p2align 4,,15
	.type	_ZN5boost6detail17sp_counted_impl_pINS0_41future_deferred_continuation_shared_stateINS_6futureIiEEiZ4mainEUlT_E0_EEED0Ev, @function
_ZN5boost6detail17sp_counted_impl_pINS0_41future_deferred_continuation_shared_stateINS_6futureIiEEiZ4mainEUlT_E0_EEED0Ev:
.LFB14058:
	.cfi_startproc
	movl	$24, %esi
	jmp	_ZdlPvm
	.cfi_endproc
.LFE14058:
	.size	_ZN5boost6detail17sp_counted_impl_pINS0_41future_deferred_continuation_shared_stateINS_6futureIiEEiZ4mainEUlT_E0_EEED0Ev, .-_ZN5boost6detail17sp_counted_impl_pINS0_41future_deferred_continuation_shared_stateINS_6futureIiEEiZ4mainEUlT_E0_EEED0Ev
	.align 2
	.p2align 4,,15
	.type	_ZN5boost6detail17sp_counted_impl_pINS0_11thread_dataINS_3_bi6bind_tIvPFvNS_10shared_ptrINS0_17shared_state_baseEEEENS3_5list1INS3_5valueINS5_INS0_38future_async_continuation_shared_stateINS_6futureIiEEiZ4mainEUlT_E0_EEEEEEEEEEEEED0Ev, @function
_ZN5boost6detail17sp_counted_impl_pINS0_11thread_dataINS_3_bi6bind_tIvPFvNS_10shared_ptrINS0_17shared_state_baseEEEENS3_5list1INS3_5valueINS5_INS0_38future_async_continuation_shared_stateINS_6futureIiEEiZ4mainEUlT_E0_EEEEEEEEEEEEED0Ev:
.LFB14699:
	.cfi_startproc
	movl	$24, %esi
	jmp	_ZdlPvm
	.cfi_endproc
.LFE14699:
	.size	_ZN5boost6detail17sp_counted_impl_pINS0_11thread_dataINS_3_bi6bind_tIvPFvNS_10shared_ptrINS0_17shared_state_baseEEEENS3_5list1INS3_5valueINS5_INS0_38future_async_continuation_shared_stateINS_6futureIiEEiZ4mainEUlT_E0_EEEEEEEEEEEEED0Ev, .-_ZN5boost6detail17sp_counted_impl_pINS0_11thread_dataINS_3_bi6bind_tIvPFvNS_10shared_ptrINS0_17shared_state_baseEEEENS3_5list1INS3_5valueINS5_INS0_38future_async_continuation_shared_stateINS_6futureIiEEiZ4mainEUlT_E0_EEEEEEEEEEEEED0Ev
	.align 2
	.p2align 4,,15
	.type	_ZN5boost6detail17sp_counted_impl_pINS0_38future_async_continuation_shared_stateINS_6futureIiEEiZ4mainEUlT_E0_EEED0Ev, @function
_ZN5boost6detail17sp_counted_impl_pINS0_38future_async_continuation_shared_stateINS_6futureIiEEiZ4mainEUlT_E0_EEED0Ev:
.LFB14062:
	.cfi_startproc
	movl	$24, %esi
	jmp	_ZdlPvm
	.cfi_endproc
.LFE14062:
	.size	_ZN5boost6detail17sp_counted_impl_pINS0_38future_async_continuation_shared_stateINS_6futureIiEEiZ4mainEUlT_E0_EEED0Ev, .-_ZN5boost6detail17sp_counted_impl_pINS0_38future_async_continuation_shared_stateINS_6futureIiEEiZ4mainEUlT_E0_EEED0Ev
	.align 2
	.p2align 4,,15
	.type	_ZN5boost6detail17sp_counted_impl_pINS0_41future_deferred_continuation_shared_stateINS_6futureIiEEiZ4mainEUlT_E1_EEED0Ev, @function
_ZN5boost6detail17sp_counted_impl_pINS0_41future_deferred_continuation_shared_stateINS_6futureIiEEiZ4mainEUlT_E1_EEED0Ev:
.LFB14050:
	.cfi_startproc
	movl	$24, %esi
	jmp	_ZdlPvm
	.cfi_endproc
.LFE14050:
	.size	_ZN5boost6detail17sp_counted_impl_pINS0_41future_deferred_continuation_shared_stateINS_6futureIiEEiZ4mainEUlT_E1_EEED0Ev, .-_ZN5boost6detail17sp_counted_impl_pINS0_41future_deferred_continuation_shared_stateINS_6futureIiEEiZ4mainEUlT_E1_EEED0Ev
	.align 2
	.p2align 4,,15
	.type	_ZN5boost6detail17sp_counted_impl_pINS0_11thread_dataINS_3_bi6bind_tIvPFvNS_10shared_ptrINS0_17shared_state_baseEEEENS3_5list1INS3_5valueINS5_INS0_38future_async_continuation_shared_stateINS_6futureIiEEiZ4mainEUlT_E1_EEEEEEEEEEEEED0Ev, @function
_ZN5boost6detail17sp_counted_impl_pINS0_11thread_dataINS_3_bi6bind_tIvPFvNS_10shared_ptrINS0_17shared_state_baseEEEENS3_5list1INS3_5valueINS5_INS0_38future_async_continuation_shared_stateINS_6futureIiEEiZ4mainEUlT_E1_EEEEEEEEEEEEED0Ev:
.LFB14703:
	.cfi_startproc
	movl	$24, %esi
	jmp	_ZdlPvm
	.cfi_endproc
.LFE14703:
	.size	_ZN5boost6detail17sp_counted_impl_pINS0_11thread_dataINS_3_bi6bind_tIvPFvNS_10shared_ptrINS0_17shared_state_baseEEEENS3_5list1INS3_5valueINS5_INS0_38future_async_continuation_shared_stateINS_6futureIiEEiZ4mainEUlT_E1_EEEEEEEEEEEEED0Ev, .-_ZN5boost6detail17sp_counted_impl_pINS0_11thread_dataINS_3_bi6bind_tIvPFvNS_10shared_ptrINS0_17shared_state_baseEEEENS3_5list1INS3_5valueINS5_INS0_38future_async_continuation_shared_stateINS_6futureIiEEiZ4mainEUlT_E1_EEEEEEEEEEEEED0Ev
	.align 2
	.p2align 4,,15
	.type	_ZN5boost6detail17sp_counted_impl_pINS0_38future_async_continuation_shared_stateINS_6futureIiEEiZ4mainEUlT_E1_EEED0Ev, @function
_ZN5boost6detail17sp_counted_impl_pINS0_38future_async_continuation_shared_stateINS_6futureIiEEiZ4mainEUlT_E1_EEED0Ev:
.LFB14054:
	.cfi_startproc
	movl	$24, %esi
	jmp	_ZdlPvm
	.cfi_endproc
.LFE14054:
	.size	_ZN5boost6detail17sp_counted_impl_pINS0_38future_async_continuation_shared_stateINS_6futureIiEEiZ4mainEUlT_E1_EEED0Ev, .-_ZN5boost6detail17sp_counted_impl_pINS0_38future_async_continuation_shared_stateINS_6futureIiEEiZ4mainEUlT_E1_EEED0Ev
	.section	.text._ZN5boost10error_infoINS_27tag_original_exception_typeEPKSt9type_infoED0Ev,"axG",@progbits,_ZN5boost10error_infoINS_27tag_original_exception_typeEPKSt9type_infoED5Ev,comdat
	.align 2
	.p2align 4,,15
	.weak	_ZN5boost10error_infoINS_27tag_original_exception_typeEPKSt9type_infoED0Ev
	.type	_ZN5boost10error_infoINS_27tag_original_exception_typeEPKSt9type_infoED0Ev, @function
_ZN5boost10error_infoINS_27tag_original_exception_typeEPKSt9type_infoED0Ev:
.LFB11901:
	.cfi_startproc
	movl	$16, %esi
	jmp	_ZdlPvm
	.cfi_endproc
.LFE11901:
	.size	_ZN5boost10error_infoINS_27tag_original_exception_typeEPKSt9type_infoED0Ev, .-_ZN5boost10error_infoINS_27tag_original_exception_typeEPKSt9type_infoED0Ev
	.section	.text._ZN5boost17bad_function_callD2Ev,"axG",@progbits,_ZN5boost17bad_function_callD5Ev,comdat
	.align 2
	.p2align 4,,15
	.weak	_ZN5boost17bad_function_callD2Ev
	.type	_ZN5boost17bad_function_callD2Ev, @function
_ZN5boost17bad_function_callD2Ev:
.LFB11423:
	.cfi_startproc
	movq	$_ZTVN5boost17bad_function_callE+16, (%rdi)
	jmp	_ZNSt13runtime_errorD2Ev
	.cfi_endproc
.LFE11423:
	.size	_ZN5boost17bad_function_callD2Ev, .-_ZN5boost17bad_function_callD2Ev
	.weak	_ZN5boost17bad_function_callD1Ev
	.set	_ZN5boost17bad_function_callD1Ev,_ZN5boost17bad_function_callD2Ev
	.section	.text._ZN5boost17bad_function_callD0Ev,"axG",@progbits,_ZN5boost17bad_function_callD5Ev,comdat
	.align 2
	.p2align 4,,15
	.weak	_ZN5boost17bad_function_callD0Ev
	.type	_ZN5boost17bad_function_callD0Ev, @function
_ZN5boost17bad_function_callD0Ev:
.LFB11425:
	.cfi_startproc
	pushq	%rbx
	.cfi_def_cfa_offset 16
	.cfi_offset 3, -16
	movq	%rdi, %rbx
	movq	$_ZTVN5boost17bad_function_callE+16, (%rdi)
	call	_ZNSt13runtime_errorD2Ev
	movq	%rbx, %rdi
	movl	$16, %esi
	popq	%rbx
	.cfi_def_cfa_offset 8
	jmp	_ZdlPvm
	.cfi_endproc
.LFE11425:
	.size	_ZN5boost17bad_function_callD0Ev, .-_ZN5boost17bad_function_callD0Ev
	.section	.text._ZN5boost16exception_detail19error_info_injectorINS_17bad_function_callEED2Ev,"axG",@progbits,_ZN5boost16exception_detail19error_info_injectorINS_17bad_function_callEED5Ev,comdat
	.align 2
	.p2align 4,,15
	.weak	_ZN5boost16exception_detail19error_info_injectorINS_17bad_function_callEED2Ev
	.type	_ZN5boost16exception_detail19error_info_injectorINS_17bad_function_callEED2Ev, @function
_ZN5boost16exception_detail19error_info_injectorINS_17bad_function_callEED2Ev:
.LFB12846:
	.cfi_startproc
	.cfi_personality 0x3,__gxx_personality_v0
	.cfi_lsda 0x3,.LLSDA12846
	pushq	%rbx
	.cfi_def_cfa_offset 16
	.cfi_offset 3, -16
	movq	%rdi, %rbx
	movq	$_ZTVN5boost16exception_detail19error_info_injectorINS_17bad_function_callEEE+16, (%rdi)
	movq	$_ZTVN5boost9exceptionE+16, 16(%rdi)
	movq	24(%rdi), %rdi
	testq	%rdi, %rdi
	je	.L56
	movq	(%rdi), %rax
	call	*32(%rax)
.L56:
	movq	$_ZTVN5boost17bad_function_callE+16, (%rbx)
	movq	%rbx, %rdi
	popq	%rbx
	.cfi_def_cfa_offset 8
	jmp	_ZNSt13runtime_errorD2Ev
	.cfi_endproc
.LFE12846:
	.globl	__gxx_personality_v0
	.section	.gcc_except_table._ZN5boost16exception_detail19error_info_injectorINS_17bad_function_callEED2Ev,"aG",@progbits,_ZN5boost16exception_detail19error_info_injectorINS_17bad_function_callEED5Ev,comdat
.LLSDA12846:
	.byte	0xff
	.byte	0xff
	.byte	0x1
	.uleb128 .LLSDACSE12846-.LLSDACSB12846
.LLSDACSB12846:
.LLSDACSE12846:
	.section	.text._ZN5boost16exception_detail19error_info_injectorINS_17bad_function_callEED2Ev,"axG",@progbits,_ZN5boost16exception_detail19error_info_injectorINS_17bad_function_callEED5Ev,comdat
	.size	_ZN5boost16exception_detail19error_info_injectorINS_17bad_function_callEED2Ev, .-_ZN5boost16exception_detail19error_info_injectorINS_17bad_function_callEED2Ev
	.weak	_ZN5boost16exception_detail19error_info_injectorINS_17bad_function_callEED1Ev
	.set	_ZN5boost16exception_detail19error_info_injectorINS_17bad_function_callEED1Ev,_ZN5boost16exception_detail19error_info_injectorINS_17bad_function_callEED2Ev
	.set	.LTHUNK164,_ZN5boost16exception_detail19error_info_injectorINS_17bad_function_callEED1Ev
	.p2align 4,,15
	.weak	_ZThn16_N5boost16exception_detail19error_info_injectorINS_17bad_function_callEED1Ev
	.type	_ZThn16_N5boost16exception_detail19error_info_injectorINS_17bad_function_callEED1Ev, @function
_ZThn16_N5boost16exception_detail19error_info_injectorINS_17bad_function_callEED1Ev:
.LFB15268:
	.cfi_startproc
	subq	$16, %rdi
	jmp	.LTHUNK164
	.cfi_endproc
.LFE15268:
	.size	_ZThn16_N5boost16exception_detail19error_info_injectorINS_17bad_function_callEED1Ev, .-_ZThn16_N5boost16exception_detail19error_info_injectorINS_17bad_function_callEED1Ev
	.section	.text._ZN5boost16exception_detail19error_info_injectorINS_17bad_function_callEED0Ev,"axG",@progbits,_ZN5boost16exception_detail19error_info_injectorINS_17bad_function_callEED5Ev,comdat
	.align 2
	.p2align 4,,15
	.weak	_ZN5boost16exception_detail19error_info_injectorINS_17bad_function_callEED0Ev
	.type	_ZN5boost16exception_detail19error_info_injectorINS_17bad_function_callEED0Ev, @function
_ZN5boost16exception_detail19error_info_injectorINS_17bad_function_callEED0Ev:
.LFB12848:
	.cfi_startproc
	pushq	%rbx
	.cfi_def_cfa_offset 16
	.cfi_offset 3, -16
	movq	%rdi, %rbx
	call	_ZN5boost16exception_detail19error_info_injectorINS_17bad_function_callEED1Ev
	movq	%rbx, %rdi
	movl	$56, %esi
	popq	%rbx
	.cfi_def_cfa_offset 8
	jmp	_ZdlPvm
	.cfi_endproc
.LFE12848:
	.size	_ZN5boost16exception_detail19error_info_injectorINS_17bad_function_callEED0Ev, .-_ZN5boost16exception_detail19error_info_injectorINS_17bad_function_callEED0Ev
	.section	.text._ZN5boost16exception_detail10clone_implINS0_19error_info_injectorINS_17bad_function_callEEEED1Ev,"axG",@progbits,_ZN5boost16exception_detail10clone_implINS0_19error_info_injectorINS_17bad_function_callEEEED1Ev,comdat
	.align 2
	.p2align 4,,15
	.weak	_ZN5boost16exception_detail10clone_implINS0_19error_info_injectorINS_17bad_function_callEEEED1Ev
	.type	_ZN5boost16exception_detail10clone_implINS0_19error_info_injectorINS_17bad_function_callEEEED1Ev, @function
_ZN5boost16exception_detail10clone_implINS0_19error_info_injectorINS_17bad_function_callEEEED1Ev:
.LFB12852:
	.cfi_startproc
	movq	$_ZTVN5boost16exception_detail10clone_implINS0_19error_info_injectorINS_17bad_function_callEEEEE+24, (%rdi)
	movq	$_ZTVN5boost16exception_detail10clone_implINS0_19error_info_injectorINS_17bad_function_callEEEEE+80, 16(%rdi)
	movq	$_ZTVN5boost16exception_detail10clone_implINS0_19error_info_injectorINS_17bad_function_callEEEEE+136, 56(%rdi)
	jmp	_ZN5boost16exception_detail19error_info_injectorINS_17bad_function_callEED2Ev
	.cfi_endproc
.LFE12852:
	.size	_ZN5boost16exception_detail10clone_implINS0_19error_info_injectorINS_17bad_function_callEEEED1Ev, .-_ZN5boost16exception_detail10clone_implINS0_19error_info_injectorINS_17bad_function_callEEEED1Ev
	.section	.text._ZN5boost16exception_detail10clone_implINS0_19error_info_injectorINS_17bad_function_callEEEED0Ev,"axG",@progbits,_ZN5boost16exception_detail10clone_implINS0_19error_info_injectorINS_17bad_function_callEEEED0Ev,comdat
	.align 2
	.p2align 4,,15
	.weak	_ZN5boost16exception_detail10clone_implINS0_19error_info_injectorINS_17bad_function_callEEEED0Ev
	.type	_ZN5boost16exception_detail10clone_implINS0_19error_info_injectorINS_17bad_function_callEEEED0Ev, @function
_ZN5boost16exception_detail10clone_implINS0_19error_info_injectorINS_17bad_function_callEEEED0Ev:
.LFB12853:
	.cfi_startproc
	pushq	%rbx
	.cfi_def_cfa_offset 16
	.cfi_offset 3, -16
	movq	%rdi, %rbx
	movq	$_ZTVN5boost16exception_detail10clone_implINS0_19error_info_injectorINS_17bad_function_callEEEEE+24, (%rdi)
	movq	$_ZTVN5boost16exception_detail10clone_implINS0_19error_info_injectorINS_17bad_function_callEEEEE+80, 16(%rdi)
	movq	$_ZTVN5boost16exception_detail10clone_implINS0_19error_info_injectorINS_17bad_function_callEEEEE+136, 56(%rdi)
	call	_ZN5boost16exception_detail19error_info_injectorINS_17bad_function_callEED2Ev
	movq	%rbx, %rdi
	movl	$64, %esi
	popq	%rbx
	.cfi_def_cfa_offset 8
	jmp	_ZdlPvm
	.cfi_endproc
.LFE12853:
	.size	_ZN5boost16exception_detail10clone_implINS0_19error_info_injectorINS_17bad_function_callEEEED0Ev, .-_ZN5boost16exception_detail10clone_implINS0_19error_info_injectorINS_17bad_function_callEEEED0Ev
	.section	.text._ZN5boost16exception_detail39current_exception_std_exception_wrapperISt13runtime_errorED2Ev,"axG",@progbits,_ZN5boost16exception_detail39current_exception_std_exception_wrapperISt13runtime_errorED5Ev,comdat
	.align 2
	.p2align 4,,15
	.weak	_ZN5boost16exception_detail39current_exception_std_exception_wrapperISt13runtime_errorED2Ev
	.type	_ZN5boost16exception_detail39current_exception_std_exception_wrapperISt13runtime_errorED2Ev, @function
_ZN5boost16exception_detail39current_exception_std_exception_wrapperISt13runtime_errorED2Ev:
.LFB12080:
	.cfi_startproc
	.cfi_personality 0x3,__gxx_personality_v0
	.cfi_lsda 0x3,.LLSDA12080
	pushq	%rbx
	.cfi_def_cfa_offset 16
	.cfi_offset 3, -16
	movq	%rdi, %rbx
	movq	$_ZTVN5boost16exception_detail39current_exception_std_exception_wrapperISt13runtime_errorEE+16, (%rdi)
	movq	$_ZTVN5boost9exceptionE+16, 16(%rdi)
	movq	24(%rdi), %rdi
	testq	%rdi, %rdi
	je	.L67
	movq	(%rdi), %rax
	call	*32(%rax)
.L67:
	movq	%rbx, %rdi
	popq	%rbx
	.cfi_def_cfa_offset 8
	jmp	_ZNSt13runtime_errorD2Ev
	.cfi_endproc
.LFE12080:
	.section	.gcc_except_table._ZN5boost16exception_detail39current_exception_std_exception_wrapperISt13runtime_errorED2Ev,"aG",@progbits,_ZN5boost16exception_detail39current_exception_std_exception_wrapperISt13runtime_errorED5Ev,comdat
.LLSDA12080:
	.byte	0xff
	.byte	0xff
	.byte	0x1
	.uleb128 .LLSDACSE12080-.LLSDACSB12080
.LLSDACSB12080:
.LLSDACSE12080:
	.section	.text._ZN5boost16exception_detail39current_exception_std_exception_wrapperISt13runtime_errorED2Ev,"axG",@progbits,_ZN5boost16exception_detail39current_exception_std_exception_wrapperISt13runtime_errorED5Ev,comdat
	.size	_ZN5boost16exception_detail39current_exception_std_exception_wrapperISt13runtime_errorED2Ev, .-_ZN5boost16exception_detail39current_exception_std_exception_wrapperISt13runtime_errorED2Ev
	.weak	_ZN5boost16exception_detail39current_exception_std_exception_wrapperISt13runtime_errorED1Ev
	.set	_ZN5boost16exception_detail39current_exception_std_exception_wrapperISt13runtime_errorED1Ev,_ZN5boost16exception_detail39current_exception_std_exception_wrapperISt13runtime_errorED2Ev
	.set	.LTHUNK78,_ZN5boost16exception_detail39current_exception_std_exception_wrapperISt13runtime_errorED1Ev
	.p2align 4,,15
	.weak	_ZThn16_N5boost16exception_detail39current_exception_std_exception_wrapperISt13runtime_errorED1Ev
	.type	_ZThn16_N5boost16exception_detail39current_exception_std_exception_wrapperISt13runtime_errorED1Ev, @function
_ZThn16_N5boost16exception_detail39current_exception_std_exception_wrapperISt13runtime_errorED1Ev:
.LFB15272:
	.cfi_startproc
	subq	$16, %rdi
	jmp	.LTHUNK78
	.cfi_endproc
.LFE15272:
	.size	_ZThn16_N5boost16exception_detail39current_exception_std_exception_wrapperISt13runtime_errorED1Ev, .-_ZThn16_N5boost16exception_detail39current_exception_std_exception_wrapperISt13runtime_errorED1Ev
	.section	.text._ZN5boost16exception_detail39current_exception_std_exception_wrapperISt13runtime_errorED0Ev,"axG",@progbits,_ZN5boost16exception_detail39current_exception_std_exception_wrapperISt13runtime_errorED5Ev,comdat
	.align 2
	.p2align 4,,15
	.weak	_ZN5boost16exception_detail39current_exception_std_exception_wrapperISt13runtime_errorED0Ev
	.type	_ZN5boost16exception_detail39current_exception_std_exception_wrapperISt13runtime_errorED0Ev, @function
_ZN5boost16exception_detail39current_exception_std_exception_wrapperISt13runtime_errorED0Ev:
.LFB12082:
	.cfi_startproc
	pushq	%rbx
	.cfi_def_cfa_offset 16
	.cfi_offset 3, -16
	movq	%rdi, %rbx
	call	_ZN5boost16exception_detail39current_exception_std_exception_wrapperISt13runtime_errorED1Ev
	movq	%rbx, %rdi
	movl	$56, %esi
	popq	%rbx
	.cfi_def_cfa_offset 8
	jmp	_ZdlPvm
	.cfi_endproc
.LFE12082:
	.size	_ZN5boost16exception_detail39current_exception_std_exception_wrapperISt13runtime_errorED0Ev, .-_ZN5boost16exception_detail39current_exception_std_exception_wrapperISt13runtime_errorED0Ev
	.section	.text._ZN5boost16exception_detail10clone_implINS0_39current_exception_std_exception_wrapperISt13runtime_errorEEED1Ev,"axG",@progbits,_ZN5boost16exception_detail10clone_implINS0_39current_exception_std_exception_wrapperISt13runtime_errorEEED1Ev,comdat
	.align 2
	.p2align 4,,15
	.weak	_ZN5boost16exception_detail10clone_implINS0_39current_exception_std_exception_wrapperISt13runtime_errorEEED1Ev
	.type	_ZN5boost16exception_detail10clone_implINS0_39current_exception_std_exception_wrapperISt13runtime_errorEEED1Ev, @function
_ZN5boost16exception_detail10clone_implINS0_39current_exception_std_exception_wrapperISt13runtime_errorEEED1Ev:
.LFB12755:
	.cfi_startproc
	movq	$_ZTVN5boost16exception_detail10clone_implINS0_39current_exception_std_exception_wrapperISt13runtime_errorEEEE+24, (%rdi)
	movq	$_ZTVN5boost16exception_detail10clone_implINS0_39current_exception_std_exception_wrapperISt13runtime_errorEEEE+80, 16(%rdi)
	movq	$_ZTVN5boost16exception_detail10clone_implINS0_39current_exception_std_exception_wrapperISt13runtime_errorEEEE+136, 56(%rdi)
	jmp	_ZN5boost16exception_detail39current_exception_std_exception_wrapperISt13runtime_errorED2Ev
	.cfi_endproc
.LFE12755:
	.size	_ZN5boost16exception_detail10clone_implINS0_39current_exception_std_exception_wrapperISt13runtime_errorEEED1Ev, .-_ZN5boost16exception_detail10clone_implINS0_39current_exception_std_exception_wrapperISt13runtime_errorEEED1Ev
	.section	.text._ZN5boost16exception_detail10clone_implINS0_39current_exception_std_exception_wrapperISt13runtime_errorEEED0Ev,"axG",@progbits,_ZN5boost16exception_detail10clone_implINS0_39current_exception_std_exception_wrapperISt13runtime_errorEEED0Ev,comdat
	.align 2
	.p2align 4,,15
	.weak	_ZN5boost16exception_detail10clone_implINS0_39current_exception_std_exception_wrapperISt13runtime_errorEEED0Ev
	.type	_ZN5boost16exception_detail10clone_implINS0_39current_exception_std_exception_wrapperISt13runtime_errorEEED0Ev, @function
_ZN5boost16exception_detail10clone_implINS0_39current_exception_std_exception_wrapperISt13runtime_errorEEED0Ev:
.LFB12756:
	.cfi_startproc
	pushq	%rbx
	.cfi_def_cfa_offset 16
	.cfi_offset 3, -16
	movq	%rdi, %rbx
	movq	$_ZTVN5boost16exception_detail10clone_implINS0_39current_exception_std_exception_wrapperISt13runtime_errorEEEE+24, (%rdi)
	movq	$_ZTVN5boost16exception_detail10clone_implINS0_39current_exception_std_exception_wrapperISt13runtime_errorEEEE+80, 16(%rdi)
	movq	$_ZTVN5boost16exception_detail10clone_implINS0_39current_exception_std_exception_wrapperISt13runtime_errorEEEE+136, 56(%rdi)
	call	_ZN5boost16exception_detail39current_exception_std_exception_wrapperISt13runtime_errorED2Ev
	movq	%rbx, %rdi
	movl	$64, %esi
	popq	%rbx
	.cfi_def_cfa_offset 8
	jmp	_ZdlPvm
	.cfi_endproc
.LFE12756:
	.size	_ZN5boost16exception_detail10clone_implINS0_39current_exception_std_exception_wrapperISt13runtime_errorEEED0Ev, .-_ZN5boost16exception_detail10clone_implINS0_39current_exception_std_exception_wrapperISt13runtime_errorEEED0Ev
	.section	.text._ZN5boost6system12system_errorD2Ev,"axG",@progbits,_ZN5boost6system12system_errorD5Ev,comdat
	.align 2
	.p2align 4,,15
	.weak	_ZN5boost6system12system_errorD2Ev
	.type	_ZN5boost6system12system_errorD2Ev, @function
_ZN5boost6system12system_errorD2Ev:
.LFB6097:
	.cfi_startproc
	pushq	%rbx
	.cfi_def_cfa_offset 16
	.cfi_offset 3, -16
	movq	%rdi, %rbx
	movq	$_ZTVN5boost6system12system_errorE+16, (%rdi)
	movq	32(%rdi), %rdi
	leaq	48(%rbx), %rax
	cmpq	%rax, %rdi
	je	.L78
	call	_ZdlPv
.L78:
	movq	%rbx, %rdi
	popq	%rbx
	.cfi_def_cfa_offset 8
	jmp	_ZNSt13runtime_errorD2Ev
	.cfi_endproc
.LFE6097:
	.size	_ZN5boost6system12system_errorD2Ev, .-_ZN5boost6system12system_errorD2Ev
	.weak	_ZN5boost6system12system_errorD1Ev
	.set	_ZN5boost6system12system_errorD1Ev,_ZN5boost6system12system_errorD2Ev
	.section	.text._ZN5boost6system12system_errorD0Ev,"axG",@progbits,_ZN5boost6system12system_errorD5Ev,comdat
	.align 2
	.p2align 4,,15
	.weak	_ZN5boost6system12system_errorD0Ev
	.type	_ZN5boost6system12system_errorD0Ev, @function
_ZN5boost6system12system_errorD0Ev:
.LFB6099:
	.cfi_startproc
	pushq	%rbx
	.cfi_def_cfa_offset 16
	.cfi_offset 3, -16
	movq	%rdi, %rbx
	call	_ZN5boost6system12system_errorD1Ev
	movq	%rbx, %rdi
	movl	$64, %esi
	popq	%rbx
	.cfi_def_cfa_offset 8
	jmp	_ZdlPvm
	.cfi_endproc
.LFE6099:
	.size	_ZN5boost6system12system_errorD0Ev, .-_ZN5boost6system12system_errorD0Ev
	.section	.text._ZN5boost16thread_exceptionD2Ev,"axG",@progbits,_ZN5boost16thread_exceptionD5Ev,comdat
	.align 2
	.p2align 4,,15
	.weak	_ZN5boost16thread_exceptionD2Ev
	.type	_ZN5boost16thread_exceptionD2Ev, @function
_ZN5boost16thread_exceptionD2Ev:
.LFB6115:
	.cfi_startproc
	movq	$_ZTVN5boost16thread_exceptionE+16, (%rdi)
	jmp	_ZN5boost6system12system_errorD2Ev
	.cfi_endproc
.LFE6115:
	.size	_ZN5boost16thread_exceptionD2Ev, .-_ZN5boost16thread_exceptionD2Ev
	.weak	_ZN5boost16thread_exceptionD1Ev
	.set	_ZN5boost16thread_exceptionD1Ev,_ZN5boost16thread_exceptionD2Ev
	.section	.text._ZN5boost16thread_exceptionD0Ev,"axG",@progbits,_ZN5boost16thread_exceptionD5Ev,comdat
	.align 2
	.p2align 4,,15
	.weak	_ZN5boost16thread_exceptionD0Ev
	.type	_ZN5boost16thread_exceptionD0Ev, @function
_ZN5boost16thread_exceptionD0Ev:
.LFB6117:
	.cfi_startproc
	pushq	%rbx
	.cfi_def_cfa_offset 16
	.cfi_offset 3, -16
	movq	%rdi, %rbx
	movq	$_ZTVN5boost16thread_exceptionE+16, (%rdi)
	call	_ZN5boost6system12system_errorD2Ev
	movq	%rbx, %rdi
	movl	$64, %esi
	popq	%rbx
	.cfi_def_cfa_offset 8
	jmp	_ZdlPvm
	.cfi_endproc
.LFE6117:
	.size	_ZN5boost16thread_exceptionD0Ev, .-_ZN5boost16thread_exceptionD0Ev
	.section	.text._ZN5boost10lock_errorD2Ev,"axG",@progbits,_ZN5boost10lock_errorD5Ev,comdat
	.align 2
	.p2align 4,,15
	.weak	_ZN5boost10lock_errorD2Ev
	.type	_ZN5boost10lock_errorD2Ev, @function
_ZN5boost10lock_errorD2Ev:
.LFB6144:
	.cfi_startproc
	movq	$_ZTVN5boost16thread_exceptionE+16, (%rdi)
	jmp	_ZN5boost6system12system_errorD2Ev
	.cfi_endproc
.LFE6144:
	.size	_ZN5boost10lock_errorD2Ev, .-_ZN5boost10lock_errorD2Ev
	.weak	_ZN5boost10lock_errorD1Ev
	.set	_ZN5boost10lock_errorD1Ev,_ZN5boost10lock_errorD2Ev
	.section	.text._ZN5boost10lock_errorD0Ev,"axG",@progbits,_ZN5boost10lock_errorD5Ev,comdat
	.align 2
	.p2align 4,,15
	.weak	_ZN5boost10lock_errorD0Ev
	.type	_ZN5boost10lock_errorD0Ev, @function
_ZN5boost10lock_errorD0Ev:
.LFB6146:
	.cfi_startproc
	pushq	%rbx
	.cfi_def_cfa_offset 16
	.cfi_offset 3, -16
	movq	%rdi, %rbx
	movq	$_ZTVN5boost16thread_exceptionE+16, (%rdi)
	call	_ZN5boost6system12system_errorD2Ev
	movq	%rbx, %rdi
	movl	$64, %esi
	popq	%rbx
	.cfi_def_cfa_offset 8
	jmp	_ZdlPvm
	.cfi_endproc
.LFE6146:
	.size	_ZN5boost10lock_errorD0Ev, .-_ZN5boost10lock_errorD0Ev
	.section	.text._ZN5boost16exception_detail19error_info_injectorINS_10lock_errorEED2Ev,"axG",@progbits,_ZN5boost16exception_detail19error_info_injectorINS_10lock_errorEED5Ev,comdat
	.align 2
	.p2align 4,,15
	.weak	_ZN5boost16exception_detail19error_info_injectorINS_10lock_errorEED2Ev
	.type	_ZN5boost16exception_detail19error_info_injectorINS_10lock_errorEED2Ev, @function
_ZN5boost16exception_detail19error_info_injectorINS_10lock_errorEED2Ev:
.LFB11757:
	.cfi_startproc
	.cfi_personality 0x3,__gxx_personality_v0
	.cfi_lsda 0x3,.LLSDA11757
	pushq	%rbx
	.cfi_def_cfa_offset 16
	.cfi_offset 3, -16
	movq	%rdi, %rbx
	movq	$_ZTVN5boost16exception_detail19error_info_injectorINS_10lock_errorEEE+16, (%rdi)
	movq	$_ZTVN5boost9exceptionE+16, 64(%rdi)
	movq	72(%rdi), %rdi
	testq	%rdi, %rdi
	je	.L89
	movq	(%rdi), %rax
	call	*32(%rax)
.L89:
	movq	$_ZTVN5boost16thread_exceptionE+16, (%rbx)
	movq	%rbx, %rdi
	popq	%rbx
	.cfi_def_cfa_offset 8
	jmp	_ZN5boost6system12system_errorD2Ev
	.cfi_endproc
.LFE11757:
	.section	.gcc_except_table._ZN5boost16exception_detail19error_info_injectorINS_10lock_errorEED2Ev,"aG",@progbits,_ZN5boost16exception_detail19error_info_injectorINS_10lock_errorEED5Ev,comdat
.LLSDA11757:
	.byte	0xff
	.byte	0xff
	.byte	0x1
	.uleb128 .LLSDACSE11757-.LLSDACSB11757
.LLSDACSB11757:
.LLSDACSE11757:
	.section	.text._ZN5boost16exception_detail19error_info_injectorINS_10lock_errorEED2Ev,"axG",@progbits,_ZN5boost16exception_detail19error_info_injectorINS_10lock_errorEED5Ev,comdat
	.size	_ZN5boost16exception_detail19error_info_injectorINS_10lock_errorEED2Ev, .-_ZN5boost16exception_detail19error_info_injectorINS_10lock_errorEED2Ev
	.weak	_ZN5boost16exception_detail19error_info_injectorINS_10lock_errorEED1Ev
	.set	_ZN5boost16exception_detail19error_info_injectorINS_10lock_errorEED1Ev,_ZN5boost16exception_detail19error_info_injectorINS_10lock_errorEED2Ev
	.set	.LTHUNK36,_ZN5boost16exception_detail19error_info_injectorINS_10lock_errorEED1Ev
	.p2align 4,,15
	.weak	_ZThn64_N5boost16exception_detail19error_info_injectorINS_10lock_errorEED1Ev
	.type	_ZThn64_N5boost16exception_detail19error_info_injectorINS_10lock_errorEED1Ev, @function
_ZThn64_N5boost16exception_detail19error_info_injectorINS_10lock_errorEED1Ev:
.LFB15276:
	.cfi_startproc
	subq	$64, %rdi
	jmp	.LTHUNK36
	.cfi_endproc
.LFE15276:
	.size	_ZThn64_N5boost16exception_detail19error_info_injectorINS_10lock_errorEED1Ev, .-_ZThn64_N5boost16exception_detail19error_info_injectorINS_10lock_errorEED1Ev
	.section	.text._ZN5boost16exception_detail19error_info_injectorINS_10lock_errorEED0Ev,"axG",@progbits,_ZN5boost16exception_detail19error_info_injectorINS_10lock_errorEED5Ev,comdat
	.align 2
	.p2align 4,,15
	.weak	_ZN5boost16exception_detail19error_info_injectorINS_10lock_errorEED0Ev
	.type	_ZN5boost16exception_detail19error_info_injectorINS_10lock_errorEED0Ev, @function
_ZN5boost16exception_detail19error_info_injectorINS_10lock_errorEED0Ev:
.LFB11759:
	.cfi_startproc
	pushq	%rbx
	.cfi_def_cfa_offset 16
	.cfi_offset 3, -16
	movq	%rdi, %rbx
	call	_ZN5boost16exception_detail19error_info_injectorINS_10lock_errorEED1Ev
	movq	%rbx, %rdi
	movl	$104, %esi
	popq	%rbx
	.cfi_def_cfa_offset 8
	jmp	_ZdlPvm
	.cfi_endproc
.LFE11759:
	.size	_ZN5boost16exception_detail19error_info_injectorINS_10lock_errorEED0Ev, .-_ZN5boost16exception_detail19error_info_injectorINS_10lock_errorEED0Ev
	.section	.text._ZN5boost16exception_detail10clone_implINS0_19error_info_injectorINS_10lock_errorEEEED1Ev,"axG",@progbits,_ZN5boost16exception_detail10clone_implINS0_19error_info_injectorINS_10lock_errorEEEED1Ev,comdat
	.align 2
	.p2align 4,,15
	.weak	_ZN5boost16exception_detail10clone_implINS0_19error_info_injectorINS_10lock_errorEEEED1Ev
	.type	_ZN5boost16exception_detail10clone_implINS0_19error_info_injectorINS_10lock_errorEEEED1Ev, @function
_ZN5boost16exception_detail10clone_implINS0_19error_info_injectorINS_10lock_errorEEEED1Ev:
.LFB11763:
	.cfi_startproc
	movq	$_ZTVN5boost16exception_detail10clone_implINS0_19error_info_injectorINS_10lock_errorEEEEE+24, (%rdi)
	movq	$_ZTVN5boost16exception_detail10clone_implINS0_19error_info_injectorINS_10lock_errorEEEEE+80, 64(%rdi)
	movq	$_ZTVN5boost16exception_detail10clone_implINS0_19error_info_injectorINS_10lock_errorEEEEE+136, 104(%rdi)
	jmp	_ZN5boost16exception_detail19error_info_injectorINS_10lock_errorEED2Ev
	.cfi_endproc
.LFE11763:
	.size	_ZN5boost16exception_detail10clone_implINS0_19error_info_injectorINS_10lock_errorEEEED1Ev, .-_ZN5boost16exception_detail10clone_implINS0_19error_info_injectorINS_10lock_errorEEEED1Ev
	.section	.text._ZN5boost16exception_detail10clone_implINS0_19error_info_injectorINS_10lock_errorEEEED0Ev,"axG",@progbits,_ZN5boost16exception_detail10clone_implINS0_19error_info_injectorINS_10lock_errorEEEED0Ev,comdat
	.align 2
	.p2align 4,,15
	.weak	_ZN5boost16exception_detail10clone_implINS0_19error_info_injectorINS_10lock_errorEEEED0Ev
	.type	_ZN5boost16exception_detail10clone_implINS0_19error_info_injectorINS_10lock_errorEEEED0Ev, @function
_ZN5boost16exception_detail10clone_implINS0_19error_info_injectorINS_10lock_errorEEEED0Ev:
.LFB11764:
	.cfi_startproc
	pushq	%rbx
	.cfi_def_cfa_offset 16
	.cfi_offset 3, -16
	movq	%rdi, %rbx
	movq	$_ZTVN5boost16exception_detail10clone_implINS0_19error_info_injectorINS_10lock_errorEEEEE+24, (%rdi)
	movq	$_ZTVN5boost16exception_detail10clone_implINS0_19error_info_injectorINS_10lock_errorEEEEE+80, 64(%rdi)
	movq	$_ZTVN5boost16exception_detail10clone_implINS0_19error_info_injectorINS_10lock_errorEEEEE+136, 104(%rdi)
	call	_ZN5boost16exception_detail19error_info_injectorINS_10lock_errorEED2Ev
	movq	%rbx, %rdi
	movl	$112, %esi
	popq	%rbx
	.cfi_def_cfa_offset 8
	jmp	_ZdlPvm
	.cfi_endproc
.LFE11764:
	.size	_ZN5boost16exception_detail10clone_implINS0_19error_info_injectorINS_10lock_errorEEEED0Ev, .-_ZN5boost16exception_detail10clone_implINS0_19error_info_injectorINS_10lock_errorEEEED0Ev
	.section	.text._ZN5boost21thread_resource_errorD2Ev,"axG",@progbits,_ZN5boost21thread_resource_errorD5Ev,comdat
	.align 2
	.p2align 4,,15
	.weak	_ZN5boost21thread_resource_errorD2Ev
	.type	_ZN5boost21thread_resource_errorD2Ev, @function
_ZN5boost21thread_resource_errorD2Ev:
.LFB6160:
	.cfi_startproc
	movq	$_ZTVN5boost16thread_exceptionE+16, (%rdi)
	jmp	_ZN5boost6system12system_errorD2Ev
	.cfi_endproc
.LFE6160:
	.size	_ZN5boost21thread_resource_errorD2Ev, .-_ZN5boost21thread_resource_errorD2Ev
	.weak	_ZN5boost21thread_resource_errorD1Ev
	.set	_ZN5boost21thread_resource_errorD1Ev,_ZN5boost21thread_resource_errorD2Ev
	.section	.text._ZN5boost21thread_resource_errorD0Ev,"axG",@progbits,_ZN5boost21thread_resource_errorD5Ev,comdat
	.align 2
	.p2align 4,,15
	.weak	_ZN5boost21thread_resource_errorD0Ev
	.type	_ZN5boost21thread_resource_errorD0Ev, @function
_ZN5boost21thread_resource_errorD0Ev:
.LFB6162:
	.cfi_startproc
	pushq	%rbx
	.cfi_def_cfa_offset 16
	.cfi_offset 3, -16
	movq	%rdi, %rbx
	movq	$_ZTVN5boost16thread_exceptionE+16, (%rdi)
	call	_ZN5boost6system12system_errorD2Ev
	movq	%rbx, %rdi
	movl	$64, %esi
	popq	%rbx
	.cfi_def_cfa_offset 8
	jmp	_ZdlPvm
	.cfi_endproc
.LFE6162:
	.size	_ZN5boost21thread_resource_errorD0Ev, .-_ZN5boost21thread_resource_errorD0Ev
	.section	.text._ZN5boost16exception_detail19error_info_injectorINS_21thread_resource_errorEED2Ev,"axG",@progbits,_ZN5boost16exception_detail19error_info_injectorINS_21thread_resource_errorEED5Ev,comdat
	.align 2
	.p2align 4,,15
	.weak	_ZN5boost16exception_detail19error_info_injectorINS_21thread_resource_errorEED2Ev
	.type	_ZN5boost16exception_detail19error_info_injectorINS_21thread_resource_errorEED2Ev, @function
_ZN5boost16exception_detail19error_info_injectorINS_21thread_resource_errorEED2Ev:
.LFB11747:
	.cfi_startproc
	.cfi_personality 0x3,__gxx_personality_v0
	.cfi_lsda 0x3,.LLSDA11747
	pushq	%rbx
	.cfi_def_cfa_offset 16
	.cfi_offset 3, -16
	movq	%rdi, %rbx
	movq	$_ZTVN5boost16exception_detail19error_info_injectorINS_21thread_resource_errorEEE+16, (%rdi)
	movq	$_ZTVN5boost9exceptionE+16, 64(%rdi)
	movq	72(%rdi), %rdi
	testq	%rdi, %rdi
	je	.L103
	movq	(%rdi), %rax
	call	*32(%rax)
.L103:
	movq	$_ZTVN5boost16thread_exceptionE+16, (%rbx)
	movq	%rbx, %rdi
	popq	%rbx
	.cfi_def_cfa_offset 8
	jmp	_ZN5boost6system12system_errorD2Ev
	.cfi_endproc
.LFE11747:
	.section	.gcc_except_table._ZN5boost16exception_detail19error_info_injectorINS_21thread_resource_errorEED2Ev,"aG",@progbits,_ZN5boost16exception_detail19error_info_injectorINS_21thread_resource_errorEED5Ev,comdat
.LLSDA11747:
	.byte	0xff
	.byte	0xff
	.byte	0x1
	.uleb128 .LLSDACSE11747-.LLSDACSB11747
.LLSDACSB11747:
.LLSDACSE11747:
	.section	.text._ZN5boost16exception_detail19error_info_injectorINS_21thread_resource_errorEED2Ev,"axG",@progbits,_ZN5boost16exception_detail19error_info_injectorINS_21thread_resource_errorEED5Ev,comdat
	.size	_ZN5boost16exception_detail19error_info_injectorINS_21thread_resource_errorEED2Ev, .-_ZN5boost16exception_detail19error_info_injectorINS_21thread_resource_errorEED2Ev
	.weak	_ZN5boost16exception_detail19error_info_injectorINS_21thread_resource_errorEED1Ev
	.set	_ZN5boost16exception_detail19error_info_injectorINS_21thread_resource_errorEED1Ev,_ZN5boost16exception_detail19error_info_injectorINS_21thread_resource_errorEED2Ev
	.set	.LTHUNK30,_ZN5boost16exception_detail19error_info_injectorINS_21thread_resource_errorEED1Ev
	.p2align 4,,15
	.weak	_ZThn64_N5boost16exception_detail19error_info_injectorINS_21thread_resource_errorEED1Ev
	.type	_ZThn64_N5boost16exception_detail19error_info_injectorINS_21thread_resource_errorEED1Ev, @function
_ZThn64_N5boost16exception_detail19error_info_injectorINS_21thread_resource_errorEED1Ev:
.LFB15280:
	.cfi_startproc
	subq	$64, %rdi
	jmp	.LTHUNK30
	.cfi_endproc
.LFE15280:
	.size	_ZThn64_N5boost16exception_detail19error_info_injectorINS_21thread_resource_errorEED1Ev, .-_ZThn64_N5boost16exception_detail19error_info_injectorINS_21thread_resource_errorEED1Ev
	.section	.text._ZN5boost16exception_detail19error_info_injectorINS_21thread_resource_errorEED0Ev,"axG",@progbits,_ZN5boost16exception_detail19error_info_injectorINS_21thread_resource_errorEED5Ev,comdat
	.align 2
	.p2align 4,,15
	.weak	_ZN5boost16exception_detail19error_info_injectorINS_21thread_resource_errorEED0Ev
	.type	_ZN5boost16exception_detail19error_info_injectorINS_21thread_resource_errorEED0Ev, @function
_ZN5boost16exception_detail19error_info_injectorINS_21thread_resource_errorEED0Ev:
.LFB11749:
	.cfi_startproc
	pushq	%rbx
	.cfi_def_cfa_offset 16
	.cfi_offset 3, -16
	movq	%rdi, %rbx
	call	_ZN5boost16exception_detail19error_info_injectorINS_21thread_resource_errorEED1Ev
	movq	%rbx, %rdi
	movl	$104, %esi
	popq	%rbx
	.cfi_def_cfa_offset 8
	jmp	_ZdlPvm
	.cfi_endproc
.LFE11749:
	.size	_ZN5boost16exception_detail19error_info_injectorINS_21thread_resource_errorEED0Ev, .-_ZN5boost16exception_detail19error_info_injectorINS_21thread_resource_errorEED0Ev
	.section	.text._ZN5boost16exception_detail10clone_implINS0_19error_info_injectorINS_21thread_resource_errorEEEED1Ev,"axG",@progbits,_ZN5boost16exception_detail10clone_implINS0_19error_info_injectorINS_21thread_resource_errorEEEED1Ev,comdat
	.align 2
	.p2align 4,,15
	.weak	_ZN5boost16exception_detail10clone_implINS0_19error_info_injectorINS_21thread_resource_errorEEEED1Ev
	.type	_ZN5boost16exception_detail10clone_implINS0_19error_info_injectorINS_21thread_resource_errorEEEED1Ev, @function
_ZN5boost16exception_detail10clone_implINS0_19error_info_injectorINS_21thread_resource_errorEEEED1Ev:
.LFB11753:
	.cfi_startproc
	movq	$_ZTVN5boost16exception_detail10clone_implINS0_19error_info_injectorINS_21thread_resource_errorEEEEE+24, (%rdi)
	movq	$_ZTVN5boost16exception_detail10clone_implINS0_19error_info_injectorINS_21thread_resource_errorEEEEE+80, 64(%rdi)
	movq	$_ZTVN5boost16exception_detail10clone_implINS0_19error_info_injectorINS_21thread_resource_errorEEEEE+136, 104(%rdi)
	jmp	_ZN5boost16exception_detail19error_info_injectorINS_21thread_resource_errorEED2Ev
	.cfi_endproc
.LFE11753:
	.size	_ZN5boost16exception_detail10clone_implINS0_19error_info_injectorINS_21thread_resource_errorEEEED1Ev, .-_ZN5boost16exception_detail10clone_implINS0_19error_info_injectorINS_21thread_resource_errorEEEED1Ev
	.section	.text._ZN5boost16exception_detail10clone_implINS0_19error_info_injectorINS_21thread_resource_errorEEEED0Ev,"axG",@progbits,_ZN5boost16exception_detail10clone_implINS0_19error_info_injectorINS_21thread_resource_errorEEEED0Ev,comdat
	.align 2
	.p2align 4,,15
	.weak	_ZN5boost16exception_detail10clone_implINS0_19error_info_injectorINS_21thread_resource_errorEEEED0Ev
	.type	_ZN5boost16exception_detail10clone_implINS0_19error_info_injectorINS_21thread_resource_errorEEEED0Ev, @function
_ZN5boost16exception_detail10clone_implINS0_19error_info_injectorINS_21thread_resource_errorEEEED0Ev:
.LFB11754:
	.cfi_startproc
	pushq	%rbx
	.cfi_def_cfa_offset 16
	.cfi_offset 3, -16
	movq	%rdi, %rbx
	movq	$_ZTVN5boost16exception_detail10clone_implINS0_19error_info_injectorINS_21thread_resource_errorEEEEE+24, (%rdi)
	movq	$_ZTVN5boost16exception_detail10clone_implINS0_19error_info_injectorINS_21thread_resource_errorEEEEE+80, 64(%rdi)
	movq	$_ZTVN5boost16exception_detail10clone_implINS0_19error_info_injectorINS_21thread_resource_errorEEEEE+136, 104(%rdi)
	call	_ZN5boost16exception_detail19error_info_injectorINS_21thread_resource_errorEED2Ev
	movq	%rbx, %rdi
	movl	$112, %esi
	popq	%rbx
	.cfi_def_cfa_offset 8
	jmp	_ZdlPvm
	.cfi_endproc
.LFE11754:
	.size	_ZN5boost16exception_detail10clone_implINS0_19error_info_injectorINS_21thread_resource_errorEEEED0Ev, .-_ZN5boost16exception_detail10clone_implINS0_19error_info_injectorINS_21thread_resource_errorEEEED0Ev
	.section	.text._ZN5boost15condition_errorD2Ev,"axG",@progbits,_ZN5boost15condition_errorD5Ev,comdat
	.align 2
	.p2align 4,,15
	.weak	_ZN5boost15condition_errorD2Ev
	.type	_ZN5boost15condition_errorD2Ev, @function
_ZN5boost15condition_errorD2Ev:
.LFB11806:
	.cfi_startproc
	movq	$_ZTVN5boost15condition_errorE+16, (%rdi)
	jmp	_ZN5boost6system12system_errorD2Ev
	.cfi_endproc
.LFE11806:
	.size	_ZN5boost15condition_errorD2Ev, .-_ZN5boost15condition_errorD2Ev
	.weak	_ZN5boost15condition_errorD1Ev
	.set	_ZN5boost15condition_errorD1Ev,_ZN5boost15condition_errorD2Ev
	.section	.text._ZN5boost15condition_errorD0Ev,"axG",@progbits,_ZN5boost15condition_errorD5Ev,comdat
	.align 2
	.p2align 4,,15
	.weak	_ZN5boost15condition_errorD0Ev
	.type	_ZN5boost15condition_errorD0Ev, @function
_ZN5boost15condition_errorD0Ev:
.LFB11808:
	.cfi_startproc
	pushq	%rbx
	.cfi_def_cfa_offset 16
	.cfi_offset 3, -16
	movq	%rdi, %rbx
	movq	$_ZTVN5boost15condition_errorE+16, (%rdi)
	call	_ZN5boost6system12system_errorD2Ev
	movq	%rbx, %rdi
	movl	$64, %esi
	popq	%rbx
	.cfi_def_cfa_offset 8
	jmp	_ZdlPvm
	.cfi_endproc
.LFE11808:
	.size	_ZN5boost15condition_errorD0Ev, .-_ZN5boost15condition_errorD0Ev
	.section	.text._ZN5boost16exception_detail19error_info_injectorINS_15condition_errorEED2Ev,"axG",@progbits,_ZN5boost16exception_detail19error_info_injectorINS_15condition_errorEED5Ev,comdat
	.align 2
	.p2align 4,,15
	.weak	_ZN5boost16exception_detail19error_info_injectorINS_15condition_errorEED2Ev
	.type	_ZN5boost16exception_detail19error_info_injectorINS_15condition_errorEED2Ev, @function
_ZN5boost16exception_detail19error_info_injectorINS_15condition_errorEED2Ev:
.LFB11809:
	.cfi_startproc
	.cfi_personality 0x3,__gxx_personality_v0
	.cfi_lsda 0x3,.LLSDA11809
	pushq	%rbx
	.cfi_def_cfa_offset 16
	.cfi_offset 3, -16
	movq	%rdi, %rbx
	movq	$_ZTVN5boost16exception_detail19error_info_injectorINS_15condition_errorEEE+16, (%rdi)
	movq	$_ZTVN5boost9exceptionE+16, 64(%rdi)
	movq	72(%rdi), %rdi
	testq	%rdi, %rdi
	je	.L117
	movq	(%rdi), %rax
	call	*32(%rax)
.L117:
	movq	$_ZTVN5boost15condition_errorE+16, (%rbx)
	movq	%rbx, %rdi
	popq	%rbx
	.cfi_def_cfa_offset 8
	jmp	_ZN5boost6system12system_errorD2Ev
	.cfi_endproc
.LFE11809:
	.section	.gcc_except_table._ZN5boost16exception_detail19error_info_injectorINS_15condition_errorEED2Ev,"aG",@progbits,_ZN5boost16exception_detail19error_info_injectorINS_15condition_errorEED5Ev,comdat
.LLSDA11809:
	.byte	0xff
	.byte	0xff
	.byte	0x1
	.uleb128 .LLSDACSE11809-.LLSDACSB11809
.LLSDACSB11809:
.LLSDACSE11809:
	.section	.text._ZN5boost16exception_detail19error_info_injectorINS_15condition_errorEED2Ev,"axG",@progbits,_ZN5boost16exception_detail19error_info_injectorINS_15condition_errorEED5Ev,comdat
	.size	_ZN5boost16exception_detail19error_info_injectorINS_15condition_errorEED2Ev, .-_ZN5boost16exception_detail19error_info_injectorINS_15condition_errorEED2Ev
	.weak	_ZN5boost16exception_detail19error_info_injectorINS_15condition_errorEED1Ev
	.set	_ZN5boost16exception_detail19error_info_injectorINS_15condition_errorEED1Ev,_ZN5boost16exception_detail19error_info_injectorINS_15condition_errorEED2Ev
	.set	.LTHUNK42,_ZN5boost16exception_detail19error_info_injectorINS_15condition_errorEED1Ev
	.p2align 4,,15
	.weak	_ZThn64_N5boost16exception_detail19error_info_injectorINS_15condition_errorEED1Ev
	.type	_ZThn64_N5boost16exception_detail19error_info_injectorINS_15condition_errorEED1Ev, @function
_ZThn64_N5boost16exception_detail19error_info_injectorINS_15condition_errorEED1Ev:
.LFB15284:
	.cfi_startproc
	subq	$64, %rdi
	jmp	.LTHUNK42
	.cfi_endproc
.LFE15284:
	.size	_ZThn64_N5boost16exception_detail19error_info_injectorINS_15condition_errorEED1Ev, .-_ZThn64_N5boost16exception_detail19error_info_injectorINS_15condition_errorEED1Ev
	.section	.text._ZN5boost16exception_detail19error_info_injectorINS_15condition_errorEED0Ev,"axG",@progbits,_ZN5boost16exception_detail19error_info_injectorINS_15condition_errorEED5Ev,comdat
	.align 2
	.p2align 4,,15
	.weak	_ZN5boost16exception_detail19error_info_injectorINS_15condition_errorEED0Ev
	.type	_ZN5boost16exception_detail19error_info_injectorINS_15condition_errorEED0Ev, @function
_ZN5boost16exception_detail19error_info_injectorINS_15condition_errorEED0Ev:
.LFB11811:
	.cfi_startproc
	pushq	%rbx
	.cfi_def_cfa_offset 16
	.cfi_offset 3, -16
	movq	%rdi, %rbx
	call	_ZN5boost16exception_detail19error_info_injectorINS_15condition_errorEED1Ev
	movq	%rbx, %rdi
	movl	$104, %esi
	popq	%rbx
	.cfi_def_cfa_offset 8
	jmp	_ZdlPvm
	.cfi_endproc
.LFE11811:
	.size	_ZN5boost16exception_detail19error_info_injectorINS_15condition_errorEED0Ev, .-_ZN5boost16exception_detail19error_info_injectorINS_15condition_errorEED0Ev
	.section	.text._ZN5boost16exception_detail10clone_implINS0_19error_info_injectorINS_15condition_errorEEEED1Ev,"axG",@progbits,_ZN5boost16exception_detail10clone_implINS0_19error_info_injectorINS_15condition_errorEEEED1Ev,comdat
	.align 2
	.p2align 4,,15
	.weak	_ZN5boost16exception_detail10clone_implINS0_19error_info_injectorINS_15condition_errorEEEED1Ev
	.type	_ZN5boost16exception_detail10clone_implINS0_19error_info_injectorINS_15condition_errorEEEED1Ev, @function
_ZN5boost16exception_detail10clone_implINS0_19error_info_injectorINS_15condition_errorEEEED1Ev:
.LFB11815:
	.cfi_startproc
	movq	$_ZTVN5boost16exception_detail10clone_implINS0_19error_info_injectorINS_15condition_errorEEEEE+24, (%rdi)
	movq	$_ZTVN5boost16exception_detail10clone_implINS0_19error_info_injectorINS_15condition_errorEEEEE+80, 64(%rdi)
	movq	$_ZTVN5boost16exception_detail10clone_implINS0_19error_info_injectorINS_15condition_errorEEEEE+136, 104(%rdi)
	jmp	_ZN5boost16exception_detail19error_info_injectorINS_15condition_errorEED2Ev
	.cfi_endproc
.LFE11815:
	.size	_ZN5boost16exception_detail10clone_implINS0_19error_info_injectorINS_15condition_errorEEEED1Ev, .-_ZN5boost16exception_detail10clone_implINS0_19error_info_injectorINS_15condition_errorEEEED1Ev
	.section	.text._ZN5boost16exception_detail10clone_implINS0_19error_info_injectorINS_15condition_errorEEEED0Ev,"axG",@progbits,_ZN5boost16exception_detail10clone_implINS0_19error_info_injectorINS_15condition_errorEEEED0Ev,comdat
	.align 2
	.p2align 4,,15
	.weak	_ZN5boost16exception_detail10clone_implINS0_19error_info_injectorINS_15condition_errorEEEED0Ev
	.type	_ZN5boost16exception_detail10clone_implINS0_19error_info_injectorINS_15condition_errorEEEED0Ev, @function
_ZN5boost16exception_detail10clone_implINS0_19error_info_injectorINS_15condition_errorEEEED0Ev:
.LFB11816:
	.cfi_startproc
	pushq	%rbx
	.cfi_def_cfa_offset 16
	.cfi_offset 3, -16
	movq	%rdi, %rbx
	movq	$_ZTVN5boost16exception_detail10clone_implINS0_19error_info_injectorINS_15condition_errorEEEEE+24, (%rdi)
	movq	$_ZTVN5boost16exception_detail10clone_implINS0_19error_info_injectorINS_15condition_errorEEEEE+80, 64(%rdi)
	movq	$_ZTVN5boost16exception_detail10clone_implINS0_19error_info_injectorINS_15condition_errorEEEEE+136, 104(%rdi)
	call	_ZN5boost16exception_detail19error_info_injectorINS_15condition_errorEED2Ev
	movq	%rbx, %rdi
	movl	$112, %esi
	popq	%rbx
	.cfi_def_cfa_offset 8
	jmp	_ZdlPvm
	.cfi_endproc
.LFE11816:
	.size	_ZN5boost16exception_detail10clone_implINS0_19error_info_injectorINS_15condition_errorEEEED0Ev, .-_ZN5boost16exception_detail10clone_implINS0_19error_info_injectorINS_15condition_errorEEEED0Ev
	.section	.text._ZNK5boost16exception_detail10clone_implINS0_14bad_exception_EE7rethrowEv,"axG",@progbits,_ZNK5boost16exception_detail10clone_implINS0_14bad_exception_EE7rethrowEv,comdat
	.align 2
	.p2align 4,,15
	.weak	_ZNK5boost16exception_detail10clone_implINS0_14bad_exception_EE7rethrowEv
	.type	_ZNK5boost16exception_detail10clone_implINS0_14bad_exception_EE7rethrowEv, @function
_ZNK5boost16exception_detail10clone_implINS0_14bad_exception_EE7rethrowEv:
.LFB14313:
	.cfi_startproc
	.cfi_personality 0x3,__gxx_personality_v0
	.cfi_lsda 0x3,.LLSDA14313
	pushq	%rbp
	.cfi_def_cfa_offset 16
	.cfi_offset 6, -16
	pushq	%rbx
	.cfi_def_cfa_offset 24
	.cfi_offset 3, -24
	movq	%rdi, %rbp
	movl	$56, %edi
	subq	$8, %rsp
	.cfi_def_cfa_offset 32
	call	__cxa_allocate_exception
	movq	8(%rbp), %rdi
	movq	%rax, %rbx
	movq	$_ZTVN5boost16exception_detail10clone_baseE+16, 48(%rax)
	movq	$_ZTVN5boost9exceptionE+16, (%rax)
	testq	%rdi, %rdi
	movq	%rdi, 8(%rax)
	je	.L129
	movq	(%rdi), %rax
.LEHB0:
	call	*24(%rax)
.LEHE0:
.L129:
	movq	16(%rbp), %rax
	movl	$_ZN5boost16exception_detail10clone_implINS0_14bad_exception_EED1Ev, %edx
	movl	$_ZTIN5boost16exception_detail10clone_implINS0_14bad_exception_EEE, %esi
	movq	%rbx, %rdi
	movq	$_ZTVN5boost16exception_detail10clone_implINS0_14bad_exception_EEE+24, (%rbx)
	movq	$_ZTVN5boost16exception_detail10clone_implINS0_14bad_exception_EEE+72, 40(%rbx)
	movq	$_ZTVN5boost16exception_detail10clone_implINS0_14bad_exception_EEE+136, 48(%rbx)
	movq	%rax, 16(%rbx)
	movq	24(%rbp), %rax
	movq	%rax, 24(%rbx)
	movl	32(%rbp), %eax
	movl	%eax, 32(%rbx)
.LEHB1:
	call	__cxa_throw
.L131:
	movq	%rax, %rbp
	movq	%rbx, %rdi
	call	__cxa_free_exception
	movq	%rbp, %rdi
	call	_Unwind_Resume
.LEHE1:
	.cfi_endproc
.LFE14313:
	.section	.gcc_except_table._ZNK5boost16exception_detail10clone_implINS0_14bad_exception_EE7rethrowEv,"aG",@progbits,_ZNK5boost16exception_detail10clone_implINS0_14bad_exception_EE7rethrowEv,comdat
.LLSDA14313:
	.byte	0xff
	.byte	0xff
	.byte	0x1
	.uleb128 .LLSDACSE14313-.LLSDACSB14313
.LLSDACSB14313:
	.uleb128 .LEHB0-.LFB14313
	.uleb128 .LEHE0-.LEHB0
	.uleb128 .L131-.LFB14313
	.uleb128 0
	.uleb128 .LEHB1-.LFB14313
	.uleb128 .LEHE1-.LEHB1
	.uleb128 0
	.uleb128 0
.LLSDACSE14313:
	.section	.text._ZNK5boost16exception_detail10clone_implINS0_14bad_exception_EE7rethrowEv,"axG",@progbits,_ZNK5boost16exception_detail10clone_implINS0_14bad_exception_EE7rethrowEv,comdat
	.size	_ZNK5boost16exception_detail10clone_implINS0_14bad_exception_EE7rethrowEv, .-_ZNK5boost16exception_detail10clone_implINS0_14bad_exception_EE7rethrowEv
	.set	.LTHUNK257,_ZNK5boost16exception_detail10clone_implINS0_14bad_exception_EE7rethrowEv
	.p2align 4,,15
	.weak	_ZTv0_n32_NK5boost16exception_detail10clone_implINS0_14bad_exception_EE7rethrowEv
	.type	_ZTv0_n32_NK5boost16exception_detail10clone_implINS0_14bad_exception_EE7rethrowEv, @function
_ZTv0_n32_NK5boost16exception_detail10clone_implINS0_14bad_exception_EE7rethrowEv:
.LFB15288:
	.cfi_startproc
	movq	(%rdi), %r10
	addq	-32(%r10), %rdi
	jmp	.LTHUNK257
	.cfi_endproc
.LFE15288:
	.size	_ZTv0_n32_NK5boost16exception_detail10clone_implINS0_14bad_exception_EE7rethrowEv, .-_ZTv0_n32_NK5boost16exception_detail10clone_implINS0_14bad_exception_EE7rethrowEv
	.section	.text._ZNK5boost16exception_detail10clone_implINS0_10bad_alloc_EE7rethrowEv,"axG",@progbits,_ZNK5boost16exception_detail10clone_implINS0_10bad_alloc_EE7rethrowEv,comdat
	.align 2
	.p2align 4,,15
	.weak	_ZNK5boost16exception_detail10clone_implINS0_10bad_alloc_EE7rethrowEv
	.type	_ZNK5boost16exception_detail10clone_implINS0_10bad_alloc_EE7rethrowEv, @function
_ZNK5boost16exception_detail10clone_implINS0_10bad_alloc_EE7rethrowEv:
.LFB14315:
	.cfi_startproc
	.cfi_personality 0x3,__gxx_personality_v0
	.cfi_lsda 0x3,.LLSDA14315
	pushq	%rbp
	.cfi_def_cfa_offset 16
	.cfi_offset 6, -16
	pushq	%rbx
	.cfi_def_cfa_offset 24
	.cfi_offset 3, -24
	movq	%rdi, %rbp
	movl	$56, %edi
	subq	$8, %rsp
	.cfi_def_cfa_offset 32
	call	__cxa_allocate_exception
	movq	8(%rbp), %rdi
	movq	%rax, %rbx
	movq	$_ZTVN5boost16exception_detail10clone_baseE+16, 48(%rax)
	movq	$_ZTVN5boost9exceptionE+16, (%rax)
	testq	%rdi, %rdi
	movq	%rdi, 8(%rax)
	je	.L135
	movq	(%rdi), %rax
.LEHB2:
	call	*24(%rax)
.LEHE2:
.L135:
	movq	16(%rbp), %rax
	movl	$_ZN5boost16exception_detail10clone_implINS0_10bad_alloc_EED1Ev, %edx
	movl	$_ZTIN5boost16exception_detail10clone_implINS0_10bad_alloc_EEE, %esi
	movq	%rbx, %rdi
	movq	$_ZTVN5boost16exception_detail10clone_implINS0_10bad_alloc_EEE+24, (%rbx)
	movq	$_ZTVN5boost16exception_detail10clone_implINS0_10bad_alloc_EEE+72, 40(%rbx)
	movq	$_ZTVN5boost16exception_detail10clone_implINS0_10bad_alloc_EEE+136, 48(%rbx)
	movq	%rax, 16(%rbx)
	movq	24(%rbp), %rax
	movq	%rax, 24(%rbx)
	movl	32(%rbp), %eax
	movl	%eax, 32(%rbx)
.LEHB3:
	call	__cxa_throw
.L137:
	movq	%rax, %rbp
	movq	%rbx, %rdi
	call	__cxa_free_exception
	movq	%rbp, %rdi
	call	_Unwind_Resume
.LEHE3:
	.cfi_endproc
.LFE14315:
	.section	.gcc_except_table._ZNK5boost16exception_detail10clone_implINS0_10bad_alloc_EE7rethrowEv,"aG",@progbits,_ZNK5boost16exception_detail10clone_implINS0_10bad_alloc_EE7rethrowEv,comdat
.LLSDA14315:
	.byte	0xff
	.byte	0xff
	.byte	0x1
	.uleb128 .LLSDACSE14315-.LLSDACSB14315
.LLSDACSB14315:
	.uleb128 .LEHB2-.LFB14315
	.uleb128 .LEHE2-.LEHB2
	.uleb128 .L137-.LFB14315
	.uleb128 0
	.uleb128 .LEHB3-.LFB14315
	.uleb128 .LEHE3-.LEHB3
	.uleb128 0
	.uleb128 0
.LLSDACSE14315:
	.section	.text._ZNK5boost16exception_detail10clone_implINS0_10bad_alloc_EE7rethrowEv,"axG",@progbits,_ZNK5boost16exception_detail10clone_implINS0_10bad_alloc_EE7rethrowEv,comdat
	.size	_ZNK5boost16exception_detail10clone_implINS0_10bad_alloc_EE7rethrowEv, .-_ZNK5boost16exception_detail10clone_implINS0_10bad_alloc_EE7rethrowEv
	.set	.LTHUNK259,_ZNK5boost16exception_detail10clone_implINS0_10bad_alloc_EE7rethrowEv
	.p2align 4,,15
	.weak	_ZTv0_n32_NK5boost16exception_detail10clone_implINS0_10bad_alloc_EE7rethrowEv
	.type	_ZTv0_n32_NK5boost16exception_detail10clone_implINS0_10bad_alloc_EE7rethrowEv, @function
_ZTv0_n32_NK5boost16exception_detail10clone_implINS0_10bad_alloc_EE7rethrowEv:
.LFB15289:
	.cfi_startproc
	movq	(%rdi), %r10
	addq	-32(%r10), %rdi
	jmp	.LTHUNK259
	.cfi_endproc
.LFE15289:
	.size	_ZTv0_n32_NK5boost16exception_detail10clone_implINS0_10bad_alloc_EE7rethrowEv, .-_ZTv0_n32_NK5boost16exception_detail10clone_implINS0_10bad_alloc_EE7rethrowEv
	.section	.text._ZNK5boost16exception_detail10clone_implINS_17unknown_exceptionEE7rethrowEv,"axG",@progbits,_ZNK5boost16exception_detail10clone_implINS_17unknown_exceptionEE7rethrowEv,comdat
	.align 2
	.p2align 4,,15
	.weak	_ZNK5boost16exception_detail10clone_implINS_17unknown_exceptionEE7rethrowEv
	.type	_ZNK5boost16exception_detail10clone_implINS_17unknown_exceptionEE7rethrowEv, @function
_ZNK5boost16exception_detail10clone_implINS_17unknown_exceptionEE7rethrowEv:
.LFB14317:
	.cfi_startproc
	.cfi_personality 0x3,__gxx_personality_v0
	.cfi_lsda 0x3,.LLSDA14317
	pushq	%rbp
	.cfi_def_cfa_offset 16
	.cfi_offset 6, -16
	pushq	%rbx
	.cfi_def_cfa_offset 24
	.cfi_offset 3, -24
	movq	%rdi, %rbp
	movl	$56, %edi
	subq	$8, %rsp
	.cfi_def_cfa_offset 32
	call	__cxa_allocate_exception
	movq	8(%rbp), %rdi
	movq	%rax, %rbx
	movq	$_ZTVN5boost16exception_detail10clone_baseE+16, 48(%rax)
	movq	$_ZTVN5boost9exceptionE+16, (%rax)
	testq	%rdi, %rdi
	movq	%rdi, 8(%rax)
	je	.L141
	movq	(%rdi), %rax
.LEHB4:
	call	*24(%rax)
.LEHE4:
.L141:
	movq	16(%rbp), %rax
	movl	$_ZN5boost16exception_detail10clone_implINS_17unknown_exceptionEED1Ev, %edx
	movl	$_ZTIN5boost16exception_detail10clone_implINS_17unknown_exceptionEEE, %esi
	movq	%rbx, %rdi
	movq	$_ZTVN5boost16exception_detail10clone_implINS_17unknown_exceptionEEE+24, (%rbx)
	movq	$_ZTVN5boost16exception_detail10clone_implINS_17unknown_exceptionEEE+72, 40(%rbx)
	movq	$_ZTVN5boost16exception_detail10clone_implINS_17unknown_exceptionEEE+136, 48(%rbx)
	movq	%rax, 16(%rbx)
	movq	24(%rbp), %rax
	movq	%rax, 24(%rbx)
	movl	32(%rbp), %eax
	movl	%eax, 32(%rbx)
.LEHB5:
	call	__cxa_throw
.L143:
	movq	%rax, %rbp
	movq	%rbx, %rdi
	call	__cxa_free_exception
	movq	%rbp, %rdi
	call	_Unwind_Resume
.LEHE5:
	.cfi_endproc
.LFE14317:
	.section	.gcc_except_table._ZNK5boost16exception_detail10clone_implINS_17unknown_exceptionEE7rethrowEv,"aG",@progbits,_ZNK5boost16exception_detail10clone_implINS_17unknown_exceptionEE7rethrowEv,comdat
.LLSDA14317:
	.byte	0xff
	.byte	0xff
	.byte	0x1
	.uleb128 .LLSDACSE14317-.LLSDACSB14317
.LLSDACSB14317:
	.uleb128 .LEHB4-.LFB14317
	.uleb128 .LEHE4-.LEHB4
	.uleb128 .L143-.LFB14317
	.uleb128 0
	.uleb128 .LEHB5-.LFB14317
	.uleb128 .LEHE5-.LEHB5
	.uleb128 0
	.uleb128 0
.LLSDACSE14317:
	.section	.text._ZNK5boost16exception_detail10clone_implINS_17unknown_exceptionEE7rethrowEv,"axG",@progbits,_ZNK5boost16exception_detail10clone_implINS_17unknown_exceptionEE7rethrowEv,comdat
	.size	_ZNK5boost16exception_detail10clone_implINS_17unknown_exceptionEE7rethrowEv, .-_ZNK5boost16exception_detail10clone_implINS_17unknown_exceptionEE7rethrowEv
	.set	.LTHUNK261,_ZNK5boost16exception_detail10clone_implINS_17unknown_exceptionEE7rethrowEv
	.p2align 4,,15
	.weak	_ZTv0_n32_NK5boost16exception_detail10clone_implINS_17unknown_exceptionEE7rethrowEv
	.type	_ZTv0_n32_NK5boost16exception_detail10clone_implINS_17unknown_exceptionEE7rethrowEv, @function
_ZTv0_n32_NK5boost16exception_detail10clone_implINS_17unknown_exceptionEE7rethrowEv:
.LFB15290:
	.cfi_startproc
	movq	(%rdi), %r10
	addq	-32(%r10), %rdi
	jmp	.LTHUNK261
	.cfi_endproc
.LFE15290:
	.size	_ZTv0_n32_NK5boost16exception_detail10clone_implINS_17unknown_exceptionEE7rethrowEv, .-_ZTv0_n32_NK5boost16exception_detail10clone_implINS_17unknown_exceptionEE7rethrowEv
	.section	.text._ZN5boost12future_errorD2Ev,"axG",@progbits,_ZN5boost12future_errorD5Ev,comdat
	.align 2
	.p2align 4,,15
	.weak	_ZN5boost12future_errorD2Ev
	.type	_ZN5boost12future_errorD2Ev, @function
_ZN5boost12future_errorD2Ev:
.LFB7040:
	.cfi_startproc
	movq	$_ZTVN5boost12future_errorE+16, (%rdi)
	jmp	_ZNSt11logic_errorD2Ev
	.cfi_endproc
.LFE7040:
	.size	_ZN5boost12future_errorD2Ev, .-_ZN5boost12future_errorD2Ev
	.weak	_ZN5boost12future_errorD1Ev
	.set	_ZN5boost12future_errorD1Ev,_ZN5boost12future_errorD2Ev
	.section	.text._ZN5boost12future_errorD0Ev,"axG",@progbits,_ZN5boost12future_errorD5Ev,comdat
	.align 2
	.p2align 4,,15
	.weak	_ZN5boost12future_errorD0Ev
	.type	_ZN5boost12future_errorD0Ev, @function
_ZN5boost12future_errorD0Ev:
.LFB7042:
	.cfi_startproc
	pushq	%rbx
	.cfi_def_cfa_offset 16
	.cfi_offset 3, -16
	movq	%rdi, %rbx
	movq	$_ZTVN5boost12future_errorE+16, (%rdi)
	call	_ZNSt11logic_errorD2Ev
	movq	%rbx, %rdi
	movl	$32, %esi
	popq	%rbx
	.cfi_def_cfa_offset 8
	jmp	_ZdlPvm
	.cfi_endproc
.LFE7042:
	.size	_ZN5boost12future_errorD0Ev, .-_ZN5boost12future_errorD0Ev
	.section	.text._ZN5boost10task_movedD2Ev,"axG",@progbits,_ZN5boost10task_movedD5Ev,comdat
	.align 2
	.p2align 4,,15
	.weak	_ZN5boost10task_movedD2Ev
	.type	_ZN5boost10task_movedD2Ev, @function
_ZN5boost10task_movedD2Ev:
.LFB12946:
	.cfi_startproc
	movq	$_ZTVN5boost12future_errorE+16, (%rdi)
	jmp	_ZNSt11logic_errorD2Ev
	.cfi_endproc
.LFE12946:
	.size	_ZN5boost10task_movedD2Ev, .-_ZN5boost10task_movedD2Ev
	.weak	_ZN5boost10task_movedD1Ev
	.set	_ZN5boost10task_movedD1Ev,_ZN5boost10task_movedD2Ev
	.section	.text._ZN5boost10task_movedD0Ev,"axG",@progbits,_ZN5boost10task_movedD5Ev,comdat
	.align 2
	.p2align 4,,15
	.weak	_ZN5boost10task_movedD0Ev
	.type	_ZN5boost10task_movedD0Ev, @function
_ZN5boost10task_movedD0Ev:
.LFB12948:
	.cfi_startproc
	pushq	%rbx
	.cfi_def_cfa_offset 16
	.cfi_offset 3, -16
	movq	%rdi, %rbx
	movq	$_ZTVN5boost12future_errorE+16, (%rdi)
	call	_ZNSt11logic_errorD2Ev
	movq	%rbx, %rdi
	movl	$32, %esi
	popq	%rbx
	.cfi_def_cfa_offset 8
	jmp	_ZdlPvm
	.cfi_endproc
.LFE12948:
	.size	_ZN5boost10task_movedD0Ev, .-_ZN5boost10task_movedD0Ev
	.section	.text._ZN5boost20task_already_startedD2Ev,"axG",@progbits,_ZN5boost20task_already_startedD5Ev,comdat
	.align 2
	.p2align 4,,15
	.weak	_ZN5boost20task_already_startedD2Ev
	.type	_ZN5boost20task_already_startedD2Ev, @function
_ZN5boost20task_already_startedD2Ev:
.LFB14100:
	.cfi_startproc
	movq	$_ZTVN5boost12future_errorE+16, (%rdi)
	jmp	_ZNSt11logic_errorD2Ev
	.cfi_endproc
.LFE14100:
	.size	_ZN5boost20task_already_startedD2Ev, .-_ZN5boost20task_already_startedD2Ev
	.weak	_ZN5boost20task_already_startedD1Ev
	.set	_ZN5boost20task_already_startedD1Ev,_ZN5boost20task_already_startedD2Ev
	.section	.text._ZN5boost20task_already_startedD0Ev,"axG",@progbits,_ZN5boost20task_already_startedD5Ev,comdat
	.align 2
	.p2align 4,,15
	.weak	_ZN5boost20task_already_startedD0Ev
	.type	_ZN5boost20task_already_startedD0Ev, @function
_ZN5boost20task_already_startedD0Ev:
.LFB14102:
	.cfi_startproc
	pushq	%rbx
	.cfi_def_cfa_offset 16
	.cfi_offset 3, -16
	movq	%rdi, %rbx
	movq	$_ZTVN5boost12future_errorE+16, (%rdi)
	call	_ZNSt11logic_errorD2Ev
	movq	%rbx, %rdi
	movl	$32, %esi
	popq	%rbx
	.cfi_def_cfa_offset 8
	jmp	_ZdlPvm
	.cfi_endproc
.LFE14102:
	.size	_ZN5boost20task_already_startedD0Ev, .-_ZN5boost20task_already_startedD0Ev
	.section	.text._ZN5boost20future_uninitializedD2Ev,"axG",@progbits,_ZN5boost20future_uninitializedD5Ev,comdat
	.align 2
	.p2align 4,,15
	.weak	_ZN5boost20future_uninitializedD2Ev
	.type	_ZN5boost20future_uninitializedD2Ev, @function
_ZN5boost20future_uninitializedD2Ev:
.LFB11495:
	.cfi_startproc
	movq	$_ZTVN5boost12future_errorE+16, (%rdi)
	jmp	_ZNSt11logic_errorD2Ev
	.cfi_endproc
.LFE11495:
	.size	_ZN5boost20future_uninitializedD2Ev, .-_ZN5boost20future_uninitializedD2Ev
	.weak	_ZN5boost20future_uninitializedD1Ev
	.set	_ZN5boost20future_uninitializedD1Ev,_ZN5boost20future_uninitializedD2Ev
	.section	.text._ZN5boost20future_uninitializedD0Ev,"axG",@progbits,_ZN5boost20future_uninitializedD5Ev,comdat
	.align 2
	.p2align 4,,15
	.weak	_ZN5boost20future_uninitializedD0Ev
	.type	_ZN5boost20future_uninitializedD0Ev, @function
_ZN5boost20future_uninitializedD0Ev:
.LFB11497:
	.cfi_startproc
	pushq	%rbx
	.cfi_def_cfa_offset 16
	.cfi_offset 3, -16
	movq	%rdi, %rbx
	movq	$_ZTVN5boost12future_errorE+16, (%rdi)
	call	_ZNSt11logic_errorD2Ev
	movq	%rbx, %rdi
	movl	$32, %esi
	popq	%rbx
	.cfi_def_cfa_offset 8
	jmp	_ZdlPvm
	.cfi_endproc
.LFE11497:
	.size	_ZN5boost20future_uninitializedD0Ev, .-_ZN5boost20future_uninitializedD0Ev
	.section	.text._ZN5boost24future_already_retrievedD2Ev,"axG",@progbits,_ZN5boost24future_already_retrievedD5Ev,comdat
	.align 2
	.p2align 4,,15
	.weak	_ZN5boost24future_already_retrievedD2Ev
	.type	_ZN5boost24future_already_retrievedD2Ev, @function
_ZN5boost24future_already_retrievedD2Ev:
.LFB12316:
	.cfi_startproc
	movq	$_ZTVN5boost12future_errorE+16, (%rdi)
	jmp	_ZNSt11logic_errorD2Ev
	.cfi_endproc
.LFE12316:
	.size	_ZN5boost24future_already_retrievedD2Ev, .-_ZN5boost24future_already_retrievedD2Ev
	.weak	_ZN5boost24future_already_retrievedD1Ev
	.set	_ZN5boost24future_already_retrievedD1Ev,_ZN5boost24future_already_retrievedD2Ev
	.section	.text._ZN5boost24future_already_retrievedD0Ev,"axG",@progbits,_ZN5boost24future_already_retrievedD5Ev,comdat
	.align 2
	.p2align 4,,15
	.weak	_ZN5boost24future_already_retrievedD0Ev
	.type	_ZN5boost24future_already_retrievedD0Ev, @function
_ZN5boost24future_already_retrievedD0Ev:
.LFB12318:
	.cfi_startproc
	pushq	%rbx
	.cfi_def_cfa_offset 16
	.cfi_offset 3, -16
	movq	%rdi, %rbx
	movq	$_ZTVN5boost12future_errorE+16, (%rdi)
	call	_ZNSt11logic_errorD2Ev
	movq	%rbx, %rdi
	movl	$32, %esi
	popq	%rbx
	.cfi_def_cfa_offset 8
	jmp	_ZdlPvm
	.cfi_endproc
.LFE12318:
	.size	_ZN5boost24future_already_retrievedD0Ev, .-_ZN5boost24future_already_retrievedD0Ev
	.section	.text._ZN5boost14broken_promiseD2Ev,"axG",@progbits,_ZN5boost14broken_promiseD5Ev,comdat
	.align 2
	.p2align 4,,15
	.weak	_ZN5boost14broken_promiseD2Ev
	.type	_ZN5boost14broken_promiseD2Ev, @function
_ZN5boost14broken_promiseD2Ev:
.LFB12291:
	.cfi_startproc
	movq	$_ZTVN5boost12future_errorE+16, (%rdi)
	jmp	_ZNSt11logic_errorD2Ev
	.cfi_endproc
.LFE12291:
	.size	_ZN5boost14broken_promiseD2Ev, .-_ZN5boost14broken_promiseD2Ev
	.weak	_ZN5boost14broken_promiseD1Ev
	.set	_ZN5boost14broken_promiseD1Ev,_ZN5boost14broken_promiseD2Ev
	.section	.text._ZN5boost14broken_promiseD0Ev,"axG",@progbits,_ZN5boost14broken_promiseD5Ev,comdat
	.align 2
	.p2align 4,,15
	.weak	_ZN5boost14broken_promiseD0Ev
	.type	_ZN5boost14broken_promiseD0Ev, @function
_ZN5boost14broken_promiseD0Ev:
.LFB12293:
	.cfi_startproc
	pushq	%rbx
	.cfi_def_cfa_offset 16
	.cfi_offset 3, -16
	movq	%rdi, %rbx
	movq	$_ZTVN5boost12future_errorE+16, (%rdi)
	call	_ZNSt11logic_errorD2Ev
	movq	%rbx, %rdi
	movl	$32, %esi
	popq	%rbx
	.cfi_def_cfa_offset 8
	jmp	_ZdlPvm
	.cfi_endproc
.LFE12293:
	.size	_ZN5boost14broken_promiseD0Ev, .-_ZN5boost14broken_promiseD0Ev
	.section	.text._ZN5boost25promise_already_satisfiedD2Ev,"axG",@progbits,_ZN5boost25promise_already_satisfiedD5Ev,comdat
	.align 2
	.p2align 4,,15
	.weak	_ZN5boost25promise_already_satisfiedD2Ev
	.type	_ZN5boost25promise_already_satisfiedD2Ev, @function
_ZN5boost25promise_already_satisfiedD2Ev:
.LFB12237:
	.cfi_startproc
	movq	$_ZTVN5boost12future_errorE+16, (%rdi)
	jmp	_ZNSt11logic_errorD2Ev
	.cfi_endproc
.LFE12237:
	.size	_ZN5boost25promise_already_satisfiedD2Ev, .-_ZN5boost25promise_already_satisfiedD2Ev
	.weak	_ZN5boost25promise_already_satisfiedD1Ev
	.set	_ZN5boost25promise_already_satisfiedD1Ev,_ZN5boost25promise_already_satisfiedD2Ev
	.section	.text._ZN5boost25promise_already_satisfiedD0Ev,"axG",@progbits,_ZN5boost25promise_already_satisfiedD5Ev,comdat
	.align 2
	.p2align 4,,15
	.weak	_ZN5boost25promise_already_satisfiedD0Ev
	.type	_ZN5boost25promise_already_satisfiedD0Ev, @function
_ZN5boost25promise_already_satisfiedD0Ev:
.LFB12239:
	.cfi_startproc
	pushq	%rbx
	.cfi_def_cfa_offset 16
	.cfi_offset 3, -16
	movq	%rdi, %rbx
	movq	$_ZTVN5boost12future_errorE+16, (%rdi)
	call	_ZNSt11logic_errorD2Ev
	movq	%rbx, %rdi
	movl	$32, %esi
	popq	%rbx
	.cfi_def_cfa_offset 8
	jmp	_ZdlPvm
	.cfi_endproc
.LFE12239:
	.size	_ZN5boost25promise_already_satisfiedD0Ev, .-_ZN5boost25promise_already_satisfiedD0Ev
	.section	.text._ZN5boost16exception_detail10clone_implINS_14broken_promiseEED1Ev,"axG",@progbits,_ZN5boost16exception_detail10clone_implINS_14broken_promiseEED1Ev,comdat
	.align 2
	.p2align 4,,15
	.weak	_ZN5boost16exception_detail10clone_implINS_14broken_promiseEED1Ev
	.type	_ZN5boost16exception_detail10clone_implINS_14broken_promiseEED1Ev, @function
_ZN5boost16exception_detail10clone_implINS_14broken_promiseEED1Ev:
.LFB12295:
	.cfi_startproc
	movq	$_ZTVN5boost16exception_detail10clone_implINS_14broken_promiseEEE+104, 32(%rdi)
	movq	$_ZTVN5boost12future_errorE+16, (%rdi)
	jmp	_ZNSt11logic_errorD2Ev
	.cfi_endproc
.LFE12295:
	.size	_ZN5boost16exception_detail10clone_implINS_14broken_promiseEED1Ev, .-_ZN5boost16exception_detail10clone_implINS_14broken_promiseEED1Ev
	.section	.text._ZN5boost16exception_detail10clone_implINS_14broken_promiseEED0Ev,"axG",@progbits,_ZN5boost16exception_detail10clone_implINS_14broken_promiseEED0Ev,comdat
	.align 2
	.p2align 4,,15
	.weak	_ZN5boost16exception_detail10clone_implINS_14broken_promiseEED0Ev
	.type	_ZN5boost16exception_detail10clone_implINS_14broken_promiseEED0Ev, @function
_ZN5boost16exception_detail10clone_implINS_14broken_promiseEED0Ev:
.LFB12296:
	.cfi_startproc
	pushq	%rbx
	.cfi_def_cfa_offset 16
	.cfi_offset 3, -16
	movq	%rdi, %rbx
	movq	$_ZTVN5boost16exception_detail10clone_implINS_14broken_promiseEEE+104, 32(%rdi)
	movq	$_ZTVN5boost12future_errorE+16, (%rdi)
	call	_ZNSt11logic_errorD2Ev
	movq	%rbx, %rdi
	movl	$40, %esi
	popq	%rbx
	.cfi_def_cfa_offset 8
	jmp	_ZdlPvm
	.cfi_endproc
.LFE12296:
	.size	_ZN5boost16exception_detail10clone_implINS_14broken_promiseEED0Ev, .-_ZN5boost16exception_detail10clone_implINS_14broken_promiseEED0Ev
	.section	.text._ZN5boost16exception_detail19error_info_injectorINS_10task_movedEED2Ev,"axG",@progbits,_ZN5boost16exception_detail19error_info_injectorINS_10task_movedEED5Ev,comdat
	.align 2
	.p2align 4,,15
	.weak	_ZN5boost16exception_detail19error_info_injectorINS_10task_movedEED2Ev
	.type	_ZN5boost16exception_detail19error_info_injectorINS_10task_movedEED2Ev, @function
_ZN5boost16exception_detail19error_info_injectorINS_10task_movedEED2Ev:
.LFB13647:
	.cfi_startproc
	.cfi_personality 0x3,__gxx_personality_v0
	.cfi_lsda 0x3,.LLSDA13647
	pushq	%rbx
	.cfi_def_cfa_offset 16
	.cfi_offset 3, -16
	movq	%rdi, %rbx
	movq	$_ZTVN5boost16exception_detail19error_info_injectorINS_10task_movedEEE+16, (%rdi)
	movq	$_ZTVN5boost9exceptionE+16, 32(%rdi)
	movq	40(%rdi), %rdi
	testq	%rdi, %rdi
	je	.L170
	movq	(%rdi), %rax
	call	*32(%rax)
.L170:
	movq	$_ZTVN5boost12future_errorE+16, (%rbx)
	movq	%rbx, %rdi
	popq	%rbx
	.cfi_def_cfa_offset 8
	jmp	_ZNSt11logic_errorD2Ev
	.cfi_endproc
.LFE13647:
	.section	.gcc_except_table._ZN5boost16exception_detail19error_info_injectorINS_10task_movedEED2Ev,"aG",@progbits,_ZN5boost16exception_detail19error_info_injectorINS_10task_movedEED5Ev,comdat
.LLSDA13647:
	.byte	0xff
	.byte	0xff
	.byte	0x1
	.uleb128 .LLSDACSE13647-.LLSDACSB13647
.LLSDACSB13647:
.LLSDACSE13647:
	.section	.text._ZN5boost16exception_detail19error_info_injectorINS_10task_movedEED2Ev,"axG",@progbits,_ZN5boost16exception_detail19error_info_injectorINS_10task_movedEED5Ev,comdat
	.size	_ZN5boost16exception_detail19error_info_injectorINS_10task_movedEED2Ev, .-_ZN5boost16exception_detail19error_info_injectorINS_10task_movedEED2Ev
	.weak	_ZN5boost16exception_detail19error_info_injectorINS_10task_movedEED1Ev
	.set	_ZN5boost16exception_detail19error_info_injectorINS_10task_movedEED1Ev,_ZN5boost16exception_detail19error_info_injectorINS_10task_movedEED2Ev
	.set	.LTHUNK200,_ZN5boost16exception_detail19error_info_injectorINS_10task_movedEED1Ev
	.p2align 4,,15
	.weak	_ZThn32_N5boost16exception_detail19error_info_injectorINS_10task_movedEED1Ev
	.type	_ZThn32_N5boost16exception_detail19error_info_injectorINS_10task_movedEED1Ev, @function
_ZThn32_N5boost16exception_detail19error_info_injectorINS_10task_movedEED1Ev:
.LFB15293:
	.cfi_startproc
	subq	$32, %rdi
	jmp	.LTHUNK200
	.cfi_endproc
.LFE15293:
	.size	_ZThn32_N5boost16exception_detail19error_info_injectorINS_10task_movedEED1Ev, .-_ZThn32_N5boost16exception_detail19error_info_injectorINS_10task_movedEED1Ev
	.section	.text._ZN5boost16exception_detail19error_info_injectorINS_10task_movedEED0Ev,"axG",@progbits,_ZN5boost16exception_detail19error_info_injectorINS_10task_movedEED5Ev,comdat
	.align 2
	.p2align 4,,15
	.weak	_ZN5boost16exception_detail19error_info_injectorINS_10task_movedEED0Ev
	.type	_ZN5boost16exception_detail19error_info_injectorINS_10task_movedEED0Ev, @function
_ZN5boost16exception_detail19error_info_injectorINS_10task_movedEED0Ev:
.LFB13649:
	.cfi_startproc
	pushq	%rbx
	.cfi_def_cfa_offset 16
	.cfi_offset 3, -16
	movq	%rdi, %rbx
	call	_ZN5boost16exception_detail19error_info_injectorINS_10task_movedEED1Ev
	movq	%rbx, %rdi
	movl	$72, %esi
	popq	%rbx
	.cfi_def_cfa_offset 8
	jmp	_ZdlPvm
	.cfi_endproc
.LFE13649:
	.size	_ZN5boost16exception_detail19error_info_injectorINS_10task_movedEED0Ev, .-_ZN5boost16exception_detail19error_info_injectorINS_10task_movedEED0Ev
	.section	.text._ZN5boost16exception_detail10clone_implINS0_19error_info_injectorINS_10task_movedEEEED1Ev,"axG",@progbits,_ZN5boost16exception_detail10clone_implINS0_19error_info_injectorINS_10task_movedEEEED1Ev,comdat
	.align 2
	.p2align 4,,15
	.weak	_ZN5boost16exception_detail10clone_implINS0_19error_info_injectorINS_10task_movedEEEED1Ev
	.type	_ZN5boost16exception_detail10clone_implINS0_19error_info_injectorINS_10task_movedEEEED1Ev, @function
_ZN5boost16exception_detail10clone_implINS0_19error_info_injectorINS_10task_movedEEEED1Ev:
.LFB13653:
	.cfi_startproc
	movq	$_ZTVN5boost16exception_detail10clone_implINS0_19error_info_injectorINS_10task_movedEEEEE+24, (%rdi)
	movq	$_ZTVN5boost16exception_detail10clone_implINS0_19error_info_injectorINS_10task_movedEEEEE+80, 32(%rdi)
	movq	$_ZTVN5boost16exception_detail10clone_implINS0_19error_info_injectorINS_10task_movedEEEEE+136, 72(%rdi)
	jmp	_ZN5boost16exception_detail19error_info_injectorINS_10task_movedEED2Ev
	.cfi_endproc
.LFE13653:
	.size	_ZN5boost16exception_detail10clone_implINS0_19error_info_injectorINS_10task_movedEEEED1Ev, .-_ZN5boost16exception_detail10clone_implINS0_19error_info_injectorINS_10task_movedEEEED1Ev
	.section	.text._ZN5boost16exception_detail10clone_implINS0_19error_info_injectorINS_10task_movedEEEED0Ev,"axG",@progbits,_ZN5boost16exception_detail10clone_implINS0_19error_info_injectorINS_10task_movedEEEED0Ev,comdat
	.align 2
	.p2align 4,,15
	.weak	_ZN5boost16exception_detail10clone_implINS0_19error_info_injectorINS_10task_movedEEEED0Ev
	.type	_ZN5boost16exception_detail10clone_implINS0_19error_info_injectorINS_10task_movedEEEED0Ev, @function
_ZN5boost16exception_detail10clone_implINS0_19error_info_injectorINS_10task_movedEEEED0Ev:
.LFB13654:
	.cfi_startproc
	pushq	%rbx
	.cfi_def_cfa_offset 16
	.cfi_offset 3, -16
	movq	%rdi, %rbx
	movq	$_ZTVN5boost16exception_detail10clone_implINS0_19error_info_injectorINS_10task_movedEEEEE+24, (%rdi)
	movq	$_ZTVN5boost16exception_detail10clone_implINS0_19error_info_injectorINS_10task_movedEEEEE+80, 32(%rdi)
	movq	$_ZTVN5boost16exception_detail10clone_implINS0_19error_info_injectorINS_10task_movedEEEEE+136, 72(%rdi)
	call	_ZN5boost16exception_detail19error_info_injectorINS_10task_movedEED2Ev
	movq	%rbx, %rdi
	movl	$80, %esi
	popq	%rbx
	.cfi_def_cfa_offset 8
	jmp	_ZdlPvm
	.cfi_endproc
.LFE13654:
	.size	_ZN5boost16exception_detail10clone_implINS0_19error_info_injectorINS_10task_movedEEEED0Ev, .-_ZN5boost16exception_detail10clone_implINS0_19error_info_injectorINS_10task_movedEEEED0Ev
	.section	.text._ZN5boost16exception_detail19error_info_injectorINS_20task_already_startedEED2Ev,"axG",@progbits,_ZN5boost16exception_detail19error_info_injectorINS_20task_already_startedEED5Ev,comdat
	.align 2
	.p2align 4,,15
	.weak	_ZN5boost16exception_detail19error_info_injectorINS_20task_already_startedEED2Ev
	.type	_ZN5boost16exception_detail19error_info_injectorINS_20task_already_startedEED2Ev, @function
_ZN5boost16exception_detail19error_info_injectorINS_20task_already_startedEED2Ev:
.LFB14593:
	.cfi_startproc
	.cfi_personality 0x3,__gxx_personality_v0
	.cfi_lsda 0x3,.LLSDA14593
	pushq	%rbx
	.cfi_def_cfa_offset 16
	.cfi_offset 3, -16
	movq	%rdi, %rbx
	movq	$_ZTVN5boost16exception_detail19error_info_injectorINS_20task_already_startedEEE+16, (%rdi)
	movq	$_ZTVN5boost9exceptionE+16, 32(%rdi)
	movq	40(%rdi), %rdi
	testq	%rdi, %rdi
	je	.L181
	movq	(%rdi), %rax
	call	*32(%rax)
.L181:
	movq	$_ZTVN5boost12future_errorE+16, (%rbx)
	movq	%rbx, %rdi
	popq	%rbx
	.cfi_def_cfa_offset 8
	jmp	_ZNSt11logic_errorD2Ev
	.cfi_endproc
.LFE14593:
	.section	.gcc_except_table._ZN5boost16exception_detail19error_info_injectorINS_20task_already_startedEED2Ev,"aG",@progbits,_ZN5boost16exception_detail19error_info_injectorINS_20task_already_startedEED5Ev,comdat
.LLSDA14593:
	.byte	0xff
	.byte	0xff
	.byte	0x1
	.uleb128 .LLSDACSE14593-.LLSDACSB14593
.LLSDACSB14593:
.LLSDACSE14593:
	.section	.text._ZN5boost16exception_detail19error_info_injectorINS_20task_already_startedEED2Ev,"axG",@progbits,_ZN5boost16exception_detail19error_info_injectorINS_20task_already_startedEED5Ev,comdat
	.size	_ZN5boost16exception_detail19error_info_injectorINS_20task_already_startedEED2Ev, .-_ZN5boost16exception_detail19error_info_injectorINS_20task_already_startedEED2Ev
	.weak	_ZN5boost16exception_detail19error_info_injectorINS_20task_already_startedEED1Ev
	.set	_ZN5boost16exception_detail19error_info_injectorINS_20task_already_startedEED1Ev,_ZN5boost16exception_detail19error_info_injectorINS_20task_already_startedEED2Ev
	.set	.LTHUNK276,_ZN5boost16exception_detail19error_info_injectorINS_20task_already_startedEED1Ev
	.p2align 4,,15
	.weak	_ZThn32_N5boost16exception_detail19error_info_injectorINS_20task_already_startedEED1Ev
	.type	_ZThn32_N5boost16exception_detail19error_info_injectorINS_20task_already_startedEED1Ev, @function
_ZThn32_N5boost16exception_detail19error_info_injectorINS_20task_already_startedEED1Ev:
.LFB15297:
	.cfi_startproc
	subq	$32, %rdi
	jmp	.LTHUNK276
	.cfi_endproc
.LFE15297:
	.size	_ZThn32_N5boost16exception_detail19error_info_injectorINS_20task_already_startedEED1Ev, .-_ZThn32_N5boost16exception_detail19error_info_injectorINS_20task_already_startedEED1Ev
	.section	.text._ZN5boost16exception_detail19error_info_injectorINS_20task_already_startedEED0Ev,"axG",@progbits,_ZN5boost16exception_detail19error_info_injectorINS_20task_already_startedEED5Ev,comdat
	.align 2
	.p2align 4,,15
	.weak	_ZN5boost16exception_detail19error_info_injectorINS_20task_already_startedEED0Ev
	.type	_ZN5boost16exception_detail19error_info_injectorINS_20task_already_startedEED0Ev, @function
_ZN5boost16exception_detail19error_info_injectorINS_20task_already_startedEED0Ev:
.LFB14595:
	.cfi_startproc
	pushq	%rbx
	.cfi_def_cfa_offset 16
	.cfi_offset 3, -16
	movq	%rdi, %rbx
	call	_ZN5boost16exception_detail19error_info_injectorINS_20task_already_startedEED1Ev
	movq	%rbx, %rdi
	movl	$72, %esi
	popq	%rbx
	.cfi_def_cfa_offset 8
	jmp	_ZdlPvm
	.cfi_endproc
.LFE14595:
	.size	_ZN5boost16exception_detail19error_info_injectorINS_20task_already_startedEED0Ev, .-_ZN5boost16exception_detail19error_info_injectorINS_20task_already_startedEED0Ev
	.section	.text._ZN5boost16exception_detail10clone_implINS0_19error_info_injectorINS_20task_already_startedEEEED1Ev,"axG",@progbits,_ZN5boost16exception_detail10clone_implINS0_19error_info_injectorINS_20task_already_startedEEEED1Ev,comdat
	.align 2
	.p2align 4,,15
	.weak	_ZN5boost16exception_detail10clone_implINS0_19error_info_injectorINS_20task_already_startedEEEED1Ev
	.type	_ZN5boost16exception_detail10clone_implINS0_19error_info_injectorINS_20task_already_startedEEEED1Ev, @function
_ZN5boost16exception_detail10clone_implINS0_19error_info_injectorINS_20task_already_startedEEEED1Ev:
.LFB14599:
	.cfi_startproc
	movq	$_ZTVN5boost16exception_detail10clone_implINS0_19error_info_injectorINS_20task_already_startedEEEEE+24, (%rdi)
	movq	$_ZTVN5boost16exception_detail10clone_implINS0_19error_info_injectorINS_20task_already_startedEEEEE+80, 32(%rdi)
	movq	$_ZTVN5boost16exception_detail10clone_implINS0_19error_info_injectorINS_20task_already_startedEEEEE+136, 72(%rdi)
	jmp	_ZN5boost16exception_detail19error_info_injectorINS_20task_already_startedEED2Ev
	.cfi_endproc
.LFE14599:
	.size	_ZN5boost16exception_detail10clone_implINS0_19error_info_injectorINS_20task_already_startedEEEED1Ev, .-_ZN5boost16exception_detail10clone_implINS0_19error_info_injectorINS_20task_already_startedEEEED1Ev
	.section	.text._ZN5boost16exception_detail10clone_implINS0_19error_info_injectorINS_20task_already_startedEEEED0Ev,"axG",@progbits,_ZN5boost16exception_detail10clone_implINS0_19error_info_injectorINS_20task_already_startedEEEED0Ev,comdat
	.align 2
	.p2align 4,,15
	.weak	_ZN5boost16exception_detail10clone_implINS0_19error_info_injectorINS_20task_already_startedEEEED0Ev
	.type	_ZN5boost16exception_detail10clone_implINS0_19error_info_injectorINS_20task_already_startedEEEED0Ev, @function
_ZN5boost16exception_detail10clone_implINS0_19error_info_injectorINS_20task_already_startedEEEED0Ev:
.LFB14600:
	.cfi_startproc
	pushq	%rbx
	.cfi_def_cfa_offset 16
	.cfi_offset 3, -16
	movq	%rdi, %rbx
	movq	$_ZTVN5boost16exception_detail10clone_implINS0_19error_info_injectorINS_20task_already_startedEEEEE+24, (%rdi)
	movq	$_ZTVN5boost16exception_detail10clone_implINS0_19error_info_injectorINS_20task_already_startedEEEEE+80, 32(%rdi)
	movq	$_ZTVN5boost16exception_detail10clone_implINS0_19error_info_injectorINS_20task_already_startedEEEEE+136, 72(%rdi)
	call	_ZN5boost16exception_detail19error_info_injectorINS_20task_already_startedEED2Ev
	movq	%rbx, %rdi
	movl	$80, %esi
	popq	%rbx
	.cfi_def_cfa_offset 8
	jmp	_ZdlPvm
	.cfi_endproc
.LFE14600:
	.size	_ZN5boost16exception_detail10clone_implINS0_19error_info_injectorINS_20task_already_startedEEEED0Ev, .-_ZN5boost16exception_detail10clone_implINS0_19error_info_injectorINS_20task_already_startedEEEED0Ev
	.section	.text._ZN5boost16exception_detail19error_info_injectorINS_20future_uninitializedEED2Ev,"axG",@progbits,_ZN5boost16exception_detail19error_info_injectorINS_20future_uninitializedEED5Ev,comdat
	.align 2
	.p2align 4,,15
	.weak	_ZN5boost16exception_detail19error_info_injectorINS_20future_uninitializedEED2Ev
	.type	_ZN5boost16exception_detail19error_info_injectorINS_20future_uninitializedEED2Ev, @function
_ZN5boost16exception_detail19error_info_injectorINS_20future_uninitializedEED2Ev:
.LFB12961:
	.cfi_startproc
	.cfi_personality 0x3,__gxx_personality_v0
	.cfi_lsda 0x3,.LLSDA12961
	pushq	%rbx
	.cfi_def_cfa_offset 16
	.cfi_offset 3, -16
	movq	%rdi, %rbx
	movq	$_ZTVN5boost16exception_detail19error_info_injectorINS_20future_uninitializedEEE+16, (%rdi)
	movq	$_ZTVN5boost9exceptionE+16, 32(%rdi)
	movq	40(%rdi), %rdi
	testq	%rdi, %rdi
	je	.L192
	movq	(%rdi), %rax
	call	*32(%rax)
.L192:
	movq	$_ZTVN5boost12future_errorE+16, (%rbx)
	movq	%rbx, %rdi
	popq	%rbx
	.cfi_def_cfa_offset 8
	jmp	_ZNSt11logic_errorD2Ev
	.cfi_endproc
.LFE12961:
	.section	.gcc_except_table._ZN5boost16exception_detail19error_info_injectorINS_20future_uninitializedEED2Ev,"aG",@progbits,_ZN5boost16exception_detail19error_info_injectorINS_20future_uninitializedEED5Ev,comdat
.LLSDA12961:
	.byte	0xff
	.byte	0xff
	.byte	0x1
	.uleb128 .LLSDACSE12961-.LLSDACSB12961
.LLSDACSB12961:
.LLSDACSE12961:
	.section	.text._ZN5boost16exception_detail19error_info_injectorINS_20future_uninitializedEED2Ev,"axG",@progbits,_ZN5boost16exception_detail19error_info_injectorINS_20future_uninitializedEED5Ev,comdat
	.size	_ZN5boost16exception_detail19error_info_injectorINS_20future_uninitializedEED2Ev, .-_ZN5boost16exception_detail19error_info_injectorINS_20future_uninitializedEED2Ev
	.weak	_ZN5boost16exception_detail19error_info_injectorINS_20future_uninitializedEED1Ev
	.set	_ZN5boost16exception_detail19error_info_injectorINS_20future_uninitializedEED1Ev,_ZN5boost16exception_detail19error_info_injectorINS_20future_uninitializedEED2Ev
	.set	.LTHUNK170,_ZN5boost16exception_detail19error_info_injectorINS_20future_uninitializedEED1Ev
	.p2align 4,,15
	.weak	_ZThn32_N5boost16exception_detail19error_info_injectorINS_20future_uninitializedEED1Ev
	.type	_ZThn32_N5boost16exception_detail19error_info_injectorINS_20future_uninitializedEED1Ev, @function
_ZThn32_N5boost16exception_detail19error_info_injectorINS_20future_uninitializedEED1Ev:
.LFB15301:
	.cfi_startproc
	subq	$32, %rdi
	jmp	.LTHUNK170
	.cfi_endproc
.LFE15301:
	.size	_ZThn32_N5boost16exception_detail19error_info_injectorINS_20future_uninitializedEED1Ev, .-_ZThn32_N5boost16exception_detail19error_info_injectorINS_20future_uninitializedEED1Ev
	.section	.text._ZN5boost16exception_detail19error_info_injectorINS_20future_uninitializedEED0Ev,"axG",@progbits,_ZN5boost16exception_detail19error_info_injectorINS_20future_uninitializedEED5Ev,comdat
	.align 2
	.p2align 4,,15
	.weak	_ZN5boost16exception_detail19error_info_injectorINS_20future_uninitializedEED0Ev
	.type	_ZN5boost16exception_detail19error_info_injectorINS_20future_uninitializedEED0Ev, @function
_ZN5boost16exception_detail19error_info_injectorINS_20future_uninitializedEED0Ev:
.LFB12963:
	.cfi_startproc
	pushq	%rbx
	.cfi_def_cfa_offset 16
	.cfi_offset 3, -16
	movq	%rdi, %rbx
	call	_ZN5boost16exception_detail19error_info_injectorINS_20future_uninitializedEED1Ev
	movq	%rbx, %rdi
	movl	$72, %esi
	popq	%rbx
	.cfi_def_cfa_offset 8
	jmp	_ZdlPvm
	.cfi_endproc
.LFE12963:
	.size	_ZN5boost16exception_detail19error_info_injectorINS_20future_uninitializedEED0Ev, .-_ZN5boost16exception_detail19error_info_injectorINS_20future_uninitializedEED0Ev
	.section	.text._ZN5boost16exception_detail10clone_implINS0_19error_info_injectorINS_20future_uninitializedEEEED1Ev,"axG",@progbits,_ZN5boost16exception_detail10clone_implINS0_19error_info_injectorINS_20future_uninitializedEEEED1Ev,comdat
	.align 2
	.p2align 4,,15
	.weak	_ZN5boost16exception_detail10clone_implINS0_19error_info_injectorINS_20future_uninitializedEEEED1Ev
	.type	_ZN5boost16exception_detail10clone_implINS0_19error_info_injectorINS_20future_uninitializedEEEED1Ev, @function
_ZN5boost16exception_detail10clone_implINS0_19error_info_injectorINS_20future_uninitializedEEEED1Ev:
.LFB12967:
	.cfi_startproc
	movq	$_ZTVN5boost16exception_detail10clone_implINS0_19error_info_injectorINS_20future_uninitializedEEEEE+24, (%rdi)
	movq	$_ZTVN5boost16exception_detail10clone_implINS0_19error_info_injectorINS_20future_uninitializedEEEEE+80, 32(%rdi)
	movq	$_ZTVN5boost16exception_detail10clone_implINS0_19error_info_injectorINS_20future_uninitializedEEEEE+136, 72(%rdi)
	jmp	_ZN5boost16exception_detail19error_info_injectorINS_20future_uninitializedEED2Ev
	.cfi_endproc
.LFE12967:
	.size	_ZN5boost16exception_detail10clone_implINS0_19error_info_injectorINS_20future_uninitializedEEEED1Ev, .-_ZN5boost16exception_detail10clone_implINS0_19error_info_injectorINS_20future_uninitializedEEEED1Ev
	.section	.text._ZN5boost16exception_detail10clone_implINS0_19error_info_injectorINS_20future_uninitializedEEEED0Ev,"axG",@progbits,_ZN5boost16exception_detail10clone_implINS0_19error_info_injectorINS_20future_uninitializedEEEED0Ev,comdat
	.align 2
	.p2align 4,,15
	.weak	_ZN5boost16exception_detail10clone_implINS0_19error_info_injectorINS_20future_uninitializedEEEED0Ev
	.type	_ZN5boost16exception_detail10clone_implINS0_19error_info_injectorINS_20future_uninitializedEEEED0Ev, @function
_ZN5boost16exception_detail10clone_implINS0_19error_info_injectorINS_20future_uninitializedEEEED0Ev:
.LFB12968:
	.cfi_startproc
	pushq	%rbx
	.cfi_def_cfa_offset 16
	.cfi_offset 3, -16
	movq	%rdi, %rbx
	movq	$_ZTVN5boost16exception_detail10clone_implINS0_19error_info_injectorINS_20future_uninitializedEEEEE+24, (%rdi)
	movq	$_ZTVN5boost16exception_detail10clone_implINS0_19error_info_injectorINS_20future_uninitializedEEEEE+80, 32(%rdi)
	movq	$_ZTVN5boost16exception_detail10clone_implINS0_19error_info_injectorINS_20future_uninitializedEEEEE+136, 72(%rdi)
	call	_ZN5boost16exception_detail19error_info_injectorINS_20future_uninitializedEED2Ev
	movq	%rbx, %rdi
	movl	$80, %esi
	popq	%rbx
	.cfi_def_cfa_offset 8
	jmp	_ZdlPvm
	.cfi_endproc
.LFE12968:
	.size	_ZN5boost16exception_detail10clone_implINS0_19error_info_injectorINS_20future_uninitializedEEEED0Ev, .-_ZN5boost16exception_detail10clone_implINS0_19error_info_injectorINS_20future_uninitializedEEEED0Ev
	.section	.text._ZN5boost16exception_detail39current_exception_std_exception_wrapperISt11logic_errorED2Ev,"axG",@progbits,_ZN5boost16exception_detail39current_exception_std_exception_wrapperISt11logic_errorED5Ev,comdat
	.align 2
	.p2align 4,,15
	.weak	_ZN5boost16exception_detail39current_exception_std_exception_wrapperISt11logic_errorED2Ev
	.type	_ZN5boost16exception_detail39current_exception_std_exception_wrapperISt11logic_errorED2Ev, @function
_ZN5boost16exception_detail39current_exception_std_exception_wrapperISt11logic_errorED2Ev:
.LFB12005:
	.cfi_startproc
	.cfi_personality 0x3,__gxx_personality_v0
	.cfi_lsda 0x3,.LLSDA12005
	pushq	%rbx
	.cfi_def_cfa_offset 16
	.cfi_offset 3, -16
	movq	%rdi, %rbx
	movq	$_ZTVN5boost16exception_detail39current_exception_std_exception_wrapperISt11logic_errorEE+16, (%rdi)
	movq	$_ZTVN5boost9exceptionE+16, 16(%rdi)
	movq	24(%rdi), %rdi
	testq	%rdi, %rdi
	je	.L203
	movq	(%rdi), %rax
	call	*32(%rax)
.L203:
	movq	%rbx, %rdi
	popq	%rbx
	.cfi_def_cfa_offset 8
	jmp	_ZNSt11logic_errorD2Ev
	.cfi_endproc
.LFE12005:
	.section	.gcc_except_table._ZN5boost16exception_detail39current_exception_std_exception_wrapperISt11logic_errorED2Ev,"aG",@progbits,_ZN5boost16exception_detail39current_exception_std_exception_wrapperISt11logic_errorED5Ev,comdat
.LLSDA12005:
	.byte	0xff
	.byte	0xff
	.byte	0x1
	.uleb128 .LLSDACSE12005-.LLSDACSB12005
.LLSDACSB12005:
.LLSDACSE12005:
	.section	.text._ZN5boost16exception_detail39current_exception_std_exception_wrapperISt11logic_errorED2Ev,"axG",@progbits,_ZN5boost16exception_detail39current_exception_std_exception_wrapperISt11logic_errorED5Ev,comdat
	.size	_ZN5boost16exception_detail39current_exception_std_exception_wrapperISt11logic_errorED2Ev, .-_ZN5boost16exception_detail39current_exception_std_exception_wrapperISt11logic_errorED2Ev
	.weak	_ZN5boost16exception_detail39current_exception_std_exception_wrapperISt11logic_errorED1Ev
	.set	_ZN5boost16exception_detail39current_exception_std_exception_wrapperISt11logic_errorED1Ev,_ZN5boost16exception_detail39current_exception_std_exception_wrapperISt11logic_errorED2Ev
	.set	.LTHUNK68,_ZN5boost16exception_detail39current_exception_std_exception_wrapperISt11logic_errorED1Ev
	.p2align 4,,15
	.weak	_ZThn16_N5boost16exception_detail39current_exception_std_exception_wrapperISt11logic_errorED1Ev
	.type	_ZThn16_N5boost16exception_detail39current_exception_std_exception_wrapperISt11logic_errorED1Ev, @function
_ZThn16_N5boost16exception_detail39current_exception_std_exception_wrapperISt11logic_errorED1Ev:
.LFB15305:
	.cfi_startproc
	subq	$16, %rdi
	jmp	.LTHUNK68
	.cfi_endproc
.LFE15305:
	.size	_ZThn16_N5boost16exception_detail39current_exception_std_exception_wrapperISt11logic_errorED1Ev, .-_ZThn16_N5boost16exception_detail39current_exception_std_exception_wrapperISt11logic_errorED1Ev
	.section	.text._ZN5boost16exception_detail39current_exception_std_exception_wrapperISt11logic_errorED0Ev,"axG",@progbits,_ZN5boost16exception_detail39current_exception_std_exception_wrapperISt11logic_errorED5Ev,comdat
	.align 2
	.p2align 4,,15
	.weak	_ZN5boost16exception_detail39current_exception_std_exception_wrapperISt11logic_errorED0Ev
	.type	_ZN5boost16exception_detail39current_exception_std_exception_wrapperISt11logic_errorED0Ev, @function
_ZN5boost16exception_detail39current_exception_std_exception_wrapperISt11logic_errorED0Ev:
.LFB12007:
	.cfi_startproc
	pushq	%rbx
	.cfi_def_cfa_offset 16
	.cfi_offset 3, -16
	movq	%rdi, %rbx
	call	_ZN5boost16exception_detail39current_exception_std_exception_wrapperISt11logic_errorED1Ev
	movq	%rbx, %rdi
	movl	$56, %esi
	popq	%rbx
	.cfi_def_cfa_offset 8
	jmp	_ZdlPvm
	.cfi_endproc
.LFE12007:
	.size	_ZN5boost16exception_detail39current_exception_std_exception_wrapperISt11logic_errorED0Ev, .-_ZN5boost16exception_detail39current_exception_std_exception_wrapperISt11logic_errorED0Ev
	.section	.text._ZN5boost16exception_detail10clone_implINS0_39current_exception_std_exception_wrapperISt11logic_errorEEED1Ev,"axG",@progbits,_ZN5boost16exception_detail10clone_implINS0_39current_exception_std_exception_wrapperISt11logic_errorEEED1Ev,comdat
	.align 2
	.p2align 4,,15
	.weak	_ZN5boost16exception_detail10clone_implINS0_39current_exception_std_exception_wrapperISt11logic_errorEEED1Ev
	.type	_ZN5boost16exception_detail10clone_implINS0_39current_exception_std_exception_wrapperISt11logic_errorEEED1Ev, @function
_ZN5boost16exception_detail10clone_implINS0_39current_exception_std_exception_wrapperISt11logic_errorEEED1Ev:
.LFB12725:
	.cfi_startproc
	movq	$_ZTVN5boost16exception_detail10clone_implINS0_39current_exception_std_exception_wrapperISt11logic_errorEEEE+24, (%rdi)
	movq	$_ZTVN5boost16exception_detail10clone_implINS0_39current_exception_std_exception_wrapperISt11logic_errorEEEE+80, 16(%rdi)
	movq	$_ZTVN5boost16exception_detail10clone_implINS0_39current_exception_std_exception_wrapperISt11logic_errorEEEE+136, 56(%rdi)
	jmp	_ZN5boost16exception_detail39current_exception_std_exception_wrapperISt11logic_errorED2Ev
	.cfi_endproc
.LFE12725:
	.size	_ZN5boost16exception_detail10clone_implINS0_39current_exception_std_exception_wrapperISt11logic_errorEEED1Ev, .-_ZN5boost16exception_detail10clone_implINS0_39current_exception_std_exception_wrapperISt11logic_errorEEED1Ev
	.section	.text._ZN5boost16exception_detail10clone_implINS0_39current_exception_std_exception_wrapperISt11logic_errorEEED0Ev,"axG",@progbits,_ZN5boost16exception_detail10clone_implINS0_39current_exception_std_exception_wrapperISt11logic_errorEEED0Ev,comdat
	.align 2
	.p2align 4,,15
	.weak	_ZN5boost16exception_detail10clone_implINS0_39current_exception_std_exception_wrapperISt11logic_errorEEED0Ev
	.type	_ZN5boost16exception_detail10clone_implINS0_39current_exception_std_exception_wrapperISt11logic_errorEEED0Ev, @function
_ZN5boost16exception_detail10clone_implINS0_39current_exception_std_exception_wrapperISt11logic_errorEEED0Ev:
.LFB12726:
	.cfi_startproc
	pushq	%rbx
	.cfi_def_cfa_offset 16
	.cfi_offset 3, -16
	movq	%rdi, %rbx
	movq	$_ZTVN5boost16exception_detail10clone_implINS0_39current_exception_std_exception_wrapperISt11logic_errorEEEE+24, (%rdi)
	movq	$_ZTVN5boost16exception_detail10clone_implINS0_39current_exception_std_exception_wrapperISt11logic_errorEEEE+80, 16(%rdi)
	movq	$_ZTVN5boost16exception_detail10clone_implINS0_39current_exception_std_exception_wrapperISt11logic_errorEEEE+136, 56(%rdi)
	call	_ZN5boost16exception_detail39current_exception_std_exception_wrapperISt11logic_errorED2Ev
	movq	%rbx, %rdi
	movl	$64, %esi
	popq	%rbx
	.cfi_def_cfa_offset 8
	jmp	_ZdlPvm
	.cfi_endproc
.LFE12726:
	.size	_ZN5boost16exception_detail10clone_implINS0_39current_exception_std_exception_wrapperISt11logic_errorEEED0Ev, .-_ZN5boost16exception_detail10clone_implINS0_39current_exception_std_exception_wrapperISt11logic_errorEEED0Ev
	.section	.text._ZN5boost16exception_detail19error_info_injectorINS_24future_already_retrievedEED2Ev,"axG",@progbits,_ZN5boost16exception_detail19error_info_injectorINS_24future_already_retrievedEED5Ev,comdat
	.align 2
	.p2align 4,,15
	.weak	_ZN5boost16exception_detail19error_info_injectorINS_24future_already_retrievedEED2Ev
	.type	_ZN5boost16exception_detail19error_info_injectorINS_24future_already_retrievedEED2Ev, @function
_ZN5boost16exception_detail19error_info_injectorINS_24future_already_retrievedEED2Ev:
.LFB12319:
	.cfi_startproc
	.cfi_personality 0x3,__gxx_personality_v0
	.cfi_lsda 0x3,.LLSDA12319
	pushq	%rbx
	.cfi_def_cfa_offset 16
	.cfi_offset 3, -16
	movq	%rdi, %rbx
	movq	$_ZTVN5boost16exception_detail19error_info_injectorINS_24future_already_retrievedEEE+16, (%rdi)
	movq	$_ZTVN5boost9exceptionE+16, 32(%rdi)
	movq	40(%rdi), %rdi
	testq	%rdi, %rdi
	je	.L214
	movq	(%rdi), %rax
	call	*32(%rax)
.L214:
	movq	$_ZTVN5boost12future_errorE+16, (%rbx)
	movq	%rbx, %rdi
	popq	%rbx
	.cfi_def_cfa_offset 8
	jmp	_ZNSt11logic_errorD2Ev
	.cfi_endproc
.LFE12319:
	.section	.gcc_except_table._ZN5boost16exception_detail19error_info_injectorINS_24future_already_retrievedEED2Ev,"aG",@progbits,_ZN5boost16exception_detail19error_info_injectorINS_24future_already_retrievedEED5Ev,comdat
.LLSDA12319:
	.byte	0xff
	.byte	0xff
	.byte	0x1
	.uleb128 .LLSDACSE12319-.LLSDACSB12319
.LLSDACSB12319:
.LLSDACSE12319:
	.section	.text._ZN5boost16exception_detail19error_info_injectorINS_24future_already_retrievedEED2Ev,"axG",@progbits,_ZN5boost16exception_detail19error_info_injectorINS_24future_already_retrievedEED5Ev,comdat
	.size	_ZN5boost16exception_detail19error_info_injectorINS_24future_already_retrievedEED2Ev, .-_ZN5boost16exception_detail19error_info_injectorINS_24future_already_retrievedEED2Ev
	.weak	_ZN5boost16exception_detail19error_info_injectorINS_24future_already_retrievedEED1Ev
	.set	_ZN5boost16exception_detail19error_info_injectorINS_24future_already_retrievedEED1Ev,_ZN5boost16exception_detail19error_info_injectorINS_24future_already_retrievedEED2Ev
	.set	.LTHUNK102,_ZN5boost16exception_detail19error_info_injectorINS_24future_already_retrievedEED1Ev
	.p2align 4,,15
	.weak	_ZThn32_N5boost16exception_detail19error_info_injectorINS_24future_already_retrievedEED1Ev
	.type	_ZThn32_N5boost16exception_detail19error_info_injectorINS_24future_already_retrievedEED1Ev, @function
_ZThn32_N5boost16exception_detail19error_info_injectorINS_24future_already_retrievedEED1Ev:
.LFB15309:
	.cfi_startproc
	subq	$32, %rdi
	jmp	.LTHUNK102
	.cfi_endproc
.LFE15309:
	.size	_ZThn32_N5boost16exception_detail19error_info_injectorINS_24future_already_retrievedEED1Ev, .-_ZThn32_N5boost16exception_detail19error_info_injectorINS_24future_already_retrievedEED1Ev
	.section	.text._ZN5boost16exception_detail19error_info_injectorINS_24future_already_retrievedEED0Ev,"axG",@progbits,_ZN5boost16exception_detail19error_info_injectorINS_24future_already_retrievedEED5Ev,comdat
	.align 2
	.p2align 4,,15
	.weak	_ZN5boost16exception_detail19error_info_injectorINS_24future_already_retrievedEED0Ev
	.type	_ZN5boost16exception_detail19error_info_injectorINS_24future_already_retrievedEED0Ev, @function
_ZN5boost16exception_detail19error_info_injectorINS_24future_already_retrievedEED0Ev:
.LFB12321:
	.cfi_startproc
	pushq	%rbx
	.cfi_def_cfa_offset 16
	.cfi_offset 3, -16
	movq	%rdi, %rbx
	call	_ZN5boost16exception_detail19error_info_injectorINS_24future_already_retrievedEED1Ev
	movq	%rbx, %rdi
	movl	$72, %esi
	popq	%rbx
	.cfi_def_cfa_offset 8
	jmp	_ZdlPvm
	.cfi_endproc
.LFE12321:
	.size	_ZN5boost16exception_detail19error_info_injectorINS_24future_already_retrievedEED0Ev, .-_ZN5boost16exception_detail19error_info_injectorINS_24future_already_retrievedEED0Ev
	.section	.text._ZN5boost16exception_detail10clone_implINS0_19error_info_injectorINS_24future_already_retrievedEEEED1Ev,"axG",@progbits,_ZN5boost16exception_detail10clone_implINS0_19error_info_injectorINS_24future_already_retrievedEEEED1Ev,comdat
	.align 2
	.p2align 4,,15
	.weak	_ZN5boost16exception_detail10clone_implINS0_19error_info_injectorINS_24future_already_retrievedEEEED1Ev
	.type	_ZN5boost16exception_detail10clone_implINS0_19error_info_injectorINS_24future_already_retrievedEEEED1Ev, @function
_ZN5boost16exception_detail10clone_implINS0_19error_info_injectorINS_24future_already_retrievedEEEED1Ev:
.LFB12325:
	.cfi_startproc
	movq	$_ZTVN5boost16exception_detail10clone_implINS0_19error_info_injectorINS_24future_already_retrievedEEEEE+24, (%rdi)
	movq	$_ZTVN5boost16exception_detail10clone_implINS0_19error_info_injectorINS_24future_already_retrievedEEEEE+80, 32(%rdi)
	movq	$_ZTVN5boost16exception_detail10clone_implINS0_19error_info_injectorINS_24future_already_retrievedEEEEE+136, 72(%rdi)
	jmp	_ZN5boost16exception_detail19error_info_injectorINS_24future_already_retrievedEED2Ev
	.cfi_endproc
.LFE12325:
	.size	_ZN5boost16exception_detail10clone_implINS0_19error_info_injectorINS_24future_already_retrievedEEEED1Ev, .-_ZN5boost16exception_detail10clone_implINS0_19error_info_injectorINS_24future_already_retrievedEEEED1Ev
	.section	.text._ZN5boost16exception_detail10clone_implINS0_19error_info_injectorINS_24future_already_retrievedEEEED0Ev,"axG",@progbits,_ZN5boost16exception_detail10clone_implINS0_19error_info_injectorINS_24future_already_retrievedEEEED0Ev,comdat
	.align 2
	.p2align 4,,15
	.weak	_ZN5boost16exception_detail10clone_implINS0_19error_info_injectorINS_24future_already_retrievedEEEED0Ev
	.type	_ZN5boost16exception_detail10clone_implINS0_19error_info_injectorINS_24future_already_retrievedEEEED0Ev, @function
_ZN5boost16exception_detail10clone_implINS0_19error_info_injectorINS_24future_already_retrievedEEEED0Ev:
.LFB12326:
	.cfi_startproc
	pushq	%rbx
	.cfi_def_cfa_offset 16
	.cfi_offset 3, -16
	movq	%rdi, %rbx
	movq	$_ZTVN5boost16exception_detail10clone_implINS0_19error_info_injectorINS_24future_already_retrievedEEEEE+24, (%rdi)
	movq	$_ZTVN5boost16exception_detail10clone_implINS0_19error_info_injectorINS_24future_already_retrievedEEEEE+80, 32(%rdi)
	movq	$_ZTVN5boost16exception_detail10clone_implINS0_19error_info_injectorINS_24future_already_retrievedEEEEE+136, 72(%rdi)
	call	_ZN5boost16exception_detail19error_info_injectorINS_24future_already_retrievedEED2Ev
	movq	%rbx, %rdi
	movl	$80, %esi
	popq	%rbx
	.cfi_def_cfa_offset 8
	jmp	_ZdlPvm
	.cfi_endproc
.LFE12326:
	.size	_ZN5boost16exception_detail10clone_implINS0_19error_info_injectorINS_24future_already_retrievedEEEED0Ev, .-_ZN5boost16exception_detail10clone_implINS0_19error_info_injectorINS_24future_already_retrievedEEEED0Ev
	.section	.text._ZN5boost16exception_detail19error_info_injectorINS_25promise_already_satisfiedEED2Ev,"axG",@progbits,_ZN5boost16exception_detail19error_info_injectorINS_25promise_already_satisfiedEED5Ev,comdat
	.align 2
	.p2align 4,,15
	.weak	_ZN5boost16exception_detail19error_info_injectorINS_25promise_already_satisfiedEED2Ev
	.type	_ZN5boost16exception_detail19error_info_injectorINS_25promise_already_satisfiedEED2Ev, @function
_ZN5boost16exception_detail19error_info_injectorINS_25promise_already_satisfiedEED2Ev:
.LFB12240:
	.cfi_startproc
	.cfi_personality 0x3,__gxx_personality_v0
	.cfi_lsda 0x3,.LLSDA12240
	pushq	%rbx
	.cfi_def_cfa_offset 16
	.cfi_offset 3, -16
	movq	%rdi, %rbx
	movq	$_ZTVN5boost16exception_detail19error_info_injectorINS_25promise_already_satisfiedEEE+16, (%rdi)
	movq	$_ZTVN5boost9exceptionE+16, 32(%rdi)
	movq	40(%rdi), %rdi
	testq	%rdi, %rdi
	je	.L225
	movq	(%rdi), %rax
	call	*32(%rax)
.L225:
	movq	$_ZTVN5boost12future_errorE+16, (%rbx)
	movq	%rbx, %rdi
	popq	%rbx
	.cfi_def_cfa_offset 8
	jmp	_ZNSt11logic_errorD2Ev
	.cfi_endproc
.LFE12240:
	.section	.gcc_except_table._ZN5boost16exception_detail19error_info_injectorINS_25promise_already_satisfiedEED2Ev,"aG",@progbits,_ZN5boost16exception_detail19error_info_injectorINS_25promise_already_satisfiedEED5Ev,comdat
.LLSDA12240:
	.byte	0xff
	.byte	0xff
	.byte	0x1
	.uleb128 .LLSDACSE12240-.LLSDACSB12240
.LLSDACSB12240:
.LLSDACSE12240:
	.section	.text._ZN5boost16exception_detail19error_info_injectorINS_25promise_already_satisfiedEED2Ev,"axG",@progbits,_ZN5boost16exception_detail19error_info_injectorINS_25promise_already_satisfiedEED5Ev,comdat
	.size	_ZN5boost16exception_detail19error_info_injectorINS_25promise_already_satisfiedEED2Ev, .-_ZN5boost16exception_detail19error_info_injectorINS_25promise_already_satisfiedEED2Ev
	.weak	_ZN5boost16exception_detail19error_info_injectorINS_25promise_already_satisfiedEED1Ev
	.set	_ZN5boost16exception_detail19error_info_injectorINS_25promise_already_satisfiedEED1Ev,_ZN5boost16exception_detail19error_info_injectorINS_25promise_already_satisfiedEED2Ev
	.set	.LTHUNK88,_ZN5boost16exception_detail19error_info_injectorINS_25promise_already_satisfiedEED1Ev
	.p2align 4,,15
	.weak	_ZThn32_N5boost16exception_detail19error_info_injectorINS_25promise_already_satisfiedEED1Ev
	.type	_ZThn32_N5boost16exception_detail19error_info_injectorINS_25promise_already_satisfiedEED1Ev, @function
_ZThn32_N5boost16exception_detail19error_info_injectorINS_25promise_already_satisfiedEED1Ev:
.LFB15313:
	.cfi_startproc
	subq	$32, %rdi
	jmp	.LTHUNK88
	.cfi_endproc
.LFE15313:
	.size	_ZThn32_N5boost16exception_detail19error_info_injectorINS_25promise_already_satisfiedEED1Ev, .-_ZThn32_N5boost16exception_detail19error_info_injectorINS_25promise_already_satisfiedEED1Ev
	.section	.text._ZN5boost16exception_detail19error_info_injectorINS_25promise_already_satisfiedEED0Ev,"axG",@progbits,_ZN5boost16exception_detail19error_info_injectorINS_25promise_already_satisfiedEED5Ev,comdat
	.align 2
	.p2align 4,,15
	.weak	_ZN5boost16exception_detail19error_info_injectorINS_25promise_already_satisfiedEED0Ev
	.type	_ZN5boost16exception_detail19error_info_injectorINS_25promise_already_satisfiedEED0Ev, @function
_ZN5boost16exception_detail19error_info_injectorINS_25promise_already_satisfiedEED0Ev:
.LFB12242:
	.cfi_startproc
	pushq	%rbx
	.cfi_def_cfa_offset 16
	.cfi_offset 3, -16
	movq	%rdi, %rbx
	call	_ZN5boost16exception_detail19error_info_injectorINS_25promise_already_satisfiedEED1Ev
	movq	%rbx, %rdi
	movl	$72, %esi
	popq	%rbx
	.cfi_def_cfa_offset 8
	jmp	_ZdlPvm
	.cfi_endproc
.LFE12242:
	.size	_ZN5boost16exception_detail19error_info_injectorINS_25promise_already_satisfiedEED0Ev, .-_ZN5boost16exception_detail19error_info_injectorINS_25promise_already_satisfiedEED0Ev
	.section	.text._ZN5boost16exception_detail10clone_implINS0_19error_info_injectorINS_25promise_already_satisfiedEEEED1Ev,"axG",@progbits,_ZN5boost16exception_detail10clone_implINS0_19error_info_injectorINS_25promise_already_satisfiedEEEED1Ev,comdat
	.align 2
	.p2align 4,,15
	.weak	_ZN5boost16exception_detail10clone_implINS0_19error_info_injectorINS_25promise_already_satisfiedEEEED1Ev
	.type	_ZN5boost16exception_detail10clone_implINS0_19error_info_injectorINS_25promise_already_satisfiedEEEED1Ev, @function
_ZN5boost16exception_detail10clone_implINS0_19error_info_injectorINS_25promise_already_satisfiedEEEED1Ev:
.LFB12246:
	.cfi_startproc
	movq	$_ZTVN5boost16exception_detail10clone_implINS0_19error_info_injectorINS_25promise_already_satisfiedEEEEE+24, (%rdi)
	movq	$_ZTVN5boost16exception_detail10clone_implINS0_19error_info_injectorINS_25promise_already_satisfiedEEEEE+80, 32(%rdi)
	movq	$_ZTVN5boost16exception_detail10clone_implINS0_19error_info_injectorINS_25promise_already_satisfiedEEEEE+136, 72(%rdi)
	jmp	_ZN5boost16exception_detail19error_info_injectorINS_25promise_already_satisfiedEED2Ev
	.cfi_endproc
.LFE12246:
	.size	_ZN5boost16exception_detail10clone_implINS0_19error_info_injectorINS_25promise_already_satisfiedEEEED1Ev, .-_ZN5boost16exception_detail10clone_implINS0_19error_info_injectorINS_25promise_already_satisfiedEEEED1Ev
	.section	.text._ZN5boost16exception_detail10clone_implINS0_19error_info_injectorINS_25promise_already_satisfiedEEEED0Ev,"axG",@progbits,_ZN5boost16exception_detail10clone_implINS0_19error_info_injectorINS_25promise_already_satisfiedEEEED0Ev,comdat
	.align 2
	.p2align 4,,15
	.weak	_ZN5boost16exception_detail10clone_implINS0_19error_info_injectorINS_25promise_already_satisfiedEEEED0Ev
	.type	_ZN5boost16exception_detail10clone_implINS0_19error_info_injectorINS_25promise_already_satisfiedEEEED0Ev, @function
_ZN5boost16exception_detail10clone_implINS0_19error_info_injectorINS_25promise_already_satisfiedEEEED0Ev:
.LFB12247:
	.cfi_startproc
	pushq	%rbx
	.cfi_def_cfa_offset 16
	.cfi_offset 3, -16
	movq	%rdi, %rbx
	movq	$_ZTVN5boost16exception_detail10clone_implINS0_19error_info_injectorINS_25promise_already_satisfiedEEEEE+24, (%rdi)
	movq	$_ZTVN5boost16exception_detail10clone_implINS0_19error_info_injectorINS_25promise_already_satisfiedEEEEE+80, 32(%rdi)
	movq	$_ZTVN5boost16exception_detail10clone_implINS0_19error_info_injectorINS_25promise_already_satisfiedEEEEE+136, 72(%rdi)
	call	_ZN5boost16exception_detail19error_info_injectorINS_25promise_already_satisfiedEED2Ev
	movq	%rbx, %rdi
	movl	$80, %esi
	popq	%rbx
	.cfi_def_cfa_offset 8
	jmp	_ZdlPvm
	.cfi_endproc
.LFE12247:
	.size	_ZN5boost16exception_detail10clone_implINS0_19error_info_injectorINS_25promise_already_satisfiedEEEED0Ev, .-_ZN5boost16exception_detail10clone_implINS0_19error_info_injectorINS_25promise_already_satisfiedEEEED0Ev
	.section	.text._ZNK5boost16exception_detail10clone_implINS_14broken_promiseEE7rethrowEv,"axG",@progbits,_ZNK5boost16exception_detail10clone_implINS_14broken_promiseEE7rethrowEv,comdat
	.align 2
	.p2align 4,,15
	.weak	_ZNK5boost16exception_detail10clone_implINS_14broken_promiseEE7rethrowEv
	.type	_ZNK5boost16exception_detail10clone_implINS_14broken_promiseEE7rethrowEv, @function
_ZNK5boost16exception_detail10clone_implINS_14broken_promiseEE7rethrowEv:
.LFB14302:
	.cfi_startproc
	pushq	%rbp
	.cfi_def_cfa_offset 16
	.cfi_offset 6, -16
	pushq	%rbx
	.cfi_def_cfa_offset 24
	.cfi_offset 3, -24
	movq	%rdi, %rbp
	movl	$40, %edi
	subq	$8, %rsp
	.cfi_def_cfa_offset 32
	call	__cxa_allocate_exception
	movq	%rbp, %rsi
	movq	%rax, %rdi
	movq	$_ZTVN5boost16exception_detail10clone_baseE+16, 32(%rax)
	movq	%rax, %rbx
	call	_ZNSt11logic_errorC2ERKS_
	movdqu	16(%rbp), %xmm0
	movl	$_ZN5boost16exception_detail10clone_implINS_14broken_promiseEED1Ev, %edx
	movl	$_ZTIN5boost16exception_detail10clone_implINS_14broken_promiseEEE, %esi
	movq	%rbx, %rdi
	movq	$_ZTVN5boost16exception_detail10clone_implINS_14broken_promiseEEE+24, (%rbx)
	movups	%xmm0, 16(%rbx)
	movq	$_ZTVN5boost16exception_detail10clone_implINS_14broken_promiseEEE+104, 32(%rbx)
	call	__cxa_throw
	.cfi_endproc
.LFE14302:
	.size	_ZNK5boost16exception_detail10clone_implINS_14broken_promiseEE7rethrowEv, .-_ZNK5boost16exception_detail10clone_implINS_14broken_promiseEE7rethrowEv
	.section	.text._ZNK5boost16exception_detail10clone_implINS_14broken_promiseEE5cloneEv,"axG",@progbits,_ZNK5boost16exception_detail10clone_implINS_14broken_promiseEE5cloneEv,comdat
	.align 2
	.p2align 4,,15
	.weak	_ZNK5boost16exception_detail10clone_implINS_14broken_promiseEE5cloneEv
	.type	_ZNK5boost16exception_detail10clone_implINS_14broken_promiseEE5cloneEv, @function
_ZNK5boost16exception_detail10clone_implINS_14broken_promiseEE5cloneEv:
.LFB14301:
	.cfi_startproc
	pushq	%rbp
	.cfi_def_cfa_offset 16
	.cfi_offset 6, -16
	pushq	%rbx
	.cfi_def_cfa_offset 24
	.cfi_offset 3, -24
	movq	%rdi, %rbp
	movl	$40, %edi
	subq	$8, %rsp
	.cfi_def_cfa_offset 32
	call	_Znwm
	movq	%rbp, %rsi
	movq	$_ZTVN5boost16exception_detail10clone_baseE+16, 32(%rax)
	movq	%rax, %rdi
	movq	%rax, %rbx
	call	_ZNSt11logic_errorC2ERKS_
	movdqu	16(%rbp), %xmm0
	leaq	32(%rbx), %rax
	movq	$_ZTVN5boost16exception_detail10clone_implINS_14broken_promiseEEE+24, (%rbx)
	movq	$_ZTVN5boost16exception_detail10clone_implINS_14broken_promiseEEE+104, 32(%rbx)
	movups	%xmm0, 16(%rbx)
	addq	$8, %rsp
	.cfi_def_cfa_offset 24
	popq	%rbx
	.cfi_def_cfa_offset 16
	popq	%rbp
	.cfi_def_cfa_offset 8
	ret
	.cfi_endproc
.LFE14301:
	.size	_ZNK5boost16exception_detail10clone_implINS_14broken_promiseEE5cloneEv, .-_ZNK5boost16exception_detail10clone_implINS_14broken_promiseEE5cloneEv
	.section	.text._ZN5boost16exception_detail14bad_exception_D2Ev,"axG",@progbits,_ZN5boost16exception_detail14bad_exception_D5Ev,comdat
	.align 2
	.p2align 4,,15
	.weak	_ZN5boost16exception_detail14bad_exception_D2Ev
	.type	_ZN5boost16exception_detail14bad_exception_D2Ev, @function
_ZN5boost16exception_detail14bad_exception_D2Ev:
.LFB6972:
	.cfi_startproc
	.cfi_personality 0x3,__gxx_personality_v0
	.cfi_lsda 0x3,.LLSDA6972
	pushq	%rbx
	.cfi_def_cfa_offset 16
	.cfi_offset 3, -16
	movq	$_ZTVN5boost16exception_detail14bad_exception_E+16, (%rdi)
	movq	%rdi, %rbx
	movq	$_ZTVN5boost16exception_detail14bad_exception_E+48, 40(%rdi)
	addq	$40, %rdi
	call	_ZNSt13bad_exceptionD2Ev
	movq	8(%rbx), %rdi
	movq	$_ZTVN5boost9exceptionE+16, (%rbx)
	testq	%rdi, %rdi
	je	.L239
	movq	(%rdi), %rax
	popq	%rbx
	.cfi_remember_state
	.cfi_def_cfa_offset 8
	movq	32(%rax), %rax
	jmp	*%rax
	.p2align 4,,10
	.p2align 3
.L239:
	.cfi_restore_state
	popq	%rbx
	.cfi_def_cfa_offset 8
	ret
	.cfi_endproc
.LFE6972:
	.section	.gcc_except_table._ZN5boost16exception_detail14bad_exception_D2Ev,"aG",@progbits,_ZN5boost16exception_detail14bad_exception_D5Ev,comdat
.LLSDA6972:
	.byte	0xff
	.byte	0xff
	.byte	0x1
	.uleb128 .LLSDACSE6972-.LLSDACSB6972
.LLSDACSB6972:
.LLSDACSE6972:
	.section	.text._ZN5boost16exception_detail14bad_exception_D2Ev,"axG",@progbits,_ZN5boost16exception_detail14bad_exception_D5Ev,comdat
	.size	_ZN5boost16exception_detail14bad_exception_D2Ev, .-_ZN5boost16exception_detail14bad_exception_D2Ev
	.set	.LTHUNK2,_ZN5boost16exception_detail14bad_exception_D2Ev
	.p2align 4,,15
	.weak	_ZThn40_N5boost16exception_detail14bad_exception_D1Ev
	.type	_ZThn40_N5boost16exception_detail14bad_exception_D1Ev, @function
_ZThn40_N5boost16exception_detail14bad_exception_D1Ev:
.LFB15319:
	.cfi_startproc
	subq	$40, %rdi
	jmp	.LTHUNK2
	.cfi_endproc
.LFE15319:
	.size	_ZThn40_N5boost16exception_detail14bad_exception_D1Ev, .-_ZThn40_N5boost16exception_detail14bad_exception_D1Ev
	.weak	_ZN5boost16exception_detail14bad_exception_D1Ev
	.set	_ZN5boost16exception_detail14bad_exception_D1Ev,_ZN5boost16exception_detail14bad_exception_D2Ev
	.section	.text._ZN5boost16exception_detail14bad_exception_D0Ev,"axG",@progbits,_ZN5boost16exception_detail14bad_exception_D5Ev,comdat
	.align 2
	.p2align 4,,15
	.weak	_ZN5boost16exception_detail14bad_exception_D0Ev
	.type	_ZN5boost16exception_detail14bad_exception_D0Ev, @function
_ZN5boost16exception_detail14bad_exception_D0Ev:
.LFB6974:
	.cfi_startproc
	pushq	%rbx
	.cfi_def_cfa_offset 16
	.cfi_offset 3, -16
	movq	%rdi, %rbx
	call	_ZN5boost16exception_detail14bad_exception_D1Ev
	movq	%rbx, %rdi
	movl	$48, %esi
	popq	%rbx
	.cfi_def_cfa_offset 8
	jmp	_ZdlPvm
	.cfi_endproc
.LFE6974:
	.size	_ZN5boost16exception_detail14bad_exception_D0Ev, .-_ZN5boost16exception_detail14bad_exception_D0Ev
	.section	.text._ZN5boost16exception_detail10clone_implINS0_14bad_exception_EED1Ev,"axG",@progbits,_ZN5boost16exception_detail10clone_implINS0_14bad_exception_EED1Ev,comdat
	.align 2
	.p2align 4,,15
	.weak	_ZN5boost16exception_detail10clone_implINS0_14bad_exception_EED1Ev
	.type	_ZN5boost16exception_detail10clone_implINS0_14bad_exception_EED1Ev, @function
_ZN5boost16exception_detail10clone_implINS0_14bad_exception_EED1Ev:
.LFB11932:
	.cfi_startproc
	movq	$_ZTVN5boost16exception_detail10clone_implINS0_14bad_exception_EEE+24, (%rdi)
	movq	$_ZTVN5boost16exception_detail10clone_implINS0_14bad_exception_EEE+72, 40(%rdi)
	movq	$_ZTVN5boost16exception_detail10clone_implINS0_14bad_exception_EEE+136, 48(%rdi)
	jmp	_ZN5boost16exception_detail14bad_exception_D2Ev
	.cfi_endproc
.LFE11932:
	.size	_ZN5boost16exception_detail10clone_implINS0_14bad_exception_EED1Ev, .-_ZN5boost16exception_detail10clone_implINS0_14bad_exception_EED1Ev
	.section	.text._ZN5boost16exception_detail10clone_implINS0_14bad_exception_EED0Ev,"axG",@progbits,_ZN5boost16exception_detail10clone_implINS0_14bad_exception_EED0Ev,comdat
	.align 2
	.p2align 4,,15
	.weak	_ZN5boost16exception_detail10clone_implINS0_14bad_exception_EED0Ev
	.type	_ZN5boost16exception_detail10clone_implINS0_14bad_exception_EED0Ev, @function
_ZN5boost16exception_detail10clone_implINS0_14bad_exception_EED0Ev:
.LFB11933:
	.cfi_startproc
	pushq	%rbx
	.cfi_def_cfa_offset 16
	.cfi_offset 3, -16
	movq	%rdi, %rbx
	movq	$_ZTVN5boost16exception_detail10clone_implINS0_14bad_exception_EEE+24, (%rdi)
	movq	$_ZTVN5boost16exception_detail10clone_implINS0_14bad_exception_EEE+72, 40(%rdi)
	movq	$_ZTVN5boost16exception_detail10clone_implINS0_14bad_exception_EEE+136, 48(%rdi)
	call	_ZN5boost16exception_detail14bad_exception_D2Ev
	movq	%rbx, %rdi
	movl	$56, %esi
	popq	%rbx
	.cfi_def_cfa_offset 8
	jmp	_ZdlPvm
	.cfi_endproc
.LFE11933:
	.size	_ZN5boost16exception_detail10clone_implINS0_14bad_exception_EED0Ev, .-_ZN5boost16exception_detail10clone_implINS0_14bad_exception_EED0Ev
	.section	.text._ZN5boost16exception_detail39current_exception_std_exception_wrapperISt13bad_exceptionED2Ev,"axG",@progbits,_ZN5boost16exception_detail39current_exception_std_exception_wrapperISt13bad_exceptionED5Ev,comdat
	.align 2
	.p2align 4,,15
	.weak	_ZN5boost16exception_detail39current_exception_std_exception_wrapperISt13bad_exceptionED2Ev
	.type	_ZN5boost16exception_detail39current_exception_std_exception_wrapperISt13bad_exceptionED2Ev, @function
_ZN5boost16exception_detail39current_exception_std_exception_wrapperISt13bad_exceptionED2Ev:
.LFB12134:
	.cfi_startproc
	.cfi_personality 0x3,__gxx_personality_v0
	.cfi_lsda 0x3,.LLSDA12134
	pushq	%rbx
	.cfi_def_cfa_offset 16
	.cfi_offset 3, -16
	movq	%rdi, %rbx
	movq	$_ZTVN5boost16exception_detail39current_exception_std_exception_wrapperISt13bad_exceptionEE+16, (%rdi)
	movq	$_ZTVN5boost9exceptionE+16, 8(%rdi)
	movq	16(%rdi), %rdi
	testq	%rdi, %rdi
	je	.L248
	movq	(%rdi), %rax
	call	*32(%rax)
.L248:
	movq	%rbx, %rdi
	popq	%rbx
	.cfi_def_cfa_offset 8
	jmp	_ZNSt13bad_exceptionD2Ev
	.cfi_endproc
.LFE12134:
	.section	.gcc_except_table._ZN5boost16exception_detail39current_exception_std_exception_wrapperISt13bad_exceptionED2Ev,"aG",@progbits,_ZN5boost16exception_detail39current_exception_std_exception_wrapperISt13bad_exceptionED5Ev,comdat
.LLSDA12134:
	.byte	0xff
	.byte	0xff
	.byte	0x1
	.uleb128 .LLSDACSE12134-.LLSDACSB12134
.LLSDACSB12134:
.LLSDACSE12134:
	.section	.text._ZN5boost16exception_detail39current_exception_std_exception_wrapperISt13bad_exceptionED2Ev,"axG",@progbits,_ZN5boost16exception_detail39current_exception_std_exception_wrapperISt13bad_exceptionED5Ev,comdat
	.size	_ZN5boost16exception_detail39current_exception_std_exception_wrapperISt13bad_exceptionED2Ev, .-_ZN5boost16exception_detail39current_exception_std_exception_wrapperISt13bad_exceptionED2Ev
	.weak	_ZN5boost16exception_detail39current_exception_std_exception_wrapperISt13bad_exceptionED1Ev
	.set	_ZN5boost16exception_detail39current_exception_std_exception_wrapperISt13bad_exceptionED1Ev,_ZN5boost16exception_detail39current_exception_std_exception_wrapperISt13bad_exceptionED2Ev
	.set	.LTHUNK86,_ZN5boost16exception_detail39current_exception_std_exception_wrapperISt13bad_exceptionED1Ev
	.p2align 4,,15
	.weak	_ZThn8_N5boost16exception_detail39current_exception_std_exception_wrapperISt13bad_exceptionED1Ev
	.type	_ZThn8_N5boost16exception_detail39current_exception_std_exception_wrapperISt13bad_exceptionED1Ev, @function
_ZThn8_N5boost16exception_detail39current_exception_std_exception_wrapperISt13bad_exceptionED1Ev:
.LFB15323:
	.cfi_startproc
	subq	$8, %rdi
	jmp	.LTHUNK86
	.cfi_endproc
.LFE15323:
	.size	_ZThn8_N5boost16exception_detail39current_exception_std_exception_wrapperISt13bad_exceptionED1Ev, .-_ZThn8_N5boost16exception_detail39current_exception_std_exception_wrapperISt13bad_exceptionED1Ev
	.section	.text._ZN5boost16exception_detail39current_exception_std_exception_wrapperISt13bad_exceptionED0Ev,"axG",@progbits,_ZN5boost16exception_detail39current_exception_std_exception_wrapperISt13bad_exceptionED5Ev,comdat
	.align 2
	.p2align 4,,15
	.weak	_ZN5boost16exception_detail39current_exception_std_exception_wrapperISt13bad_exceptionED0Ev
	.type	_ZN5boost16exception_detail39current_exception_std_exception_wrapperISt13bad_exceptionED0Ev, @function
_ZN5boost16exception_detail39current_exception_std_exception_wrapperISt13bad_exceptionED0Ev:
.LFB12136:
	.cfi_startproc
	pushq	%rbx
	.cfi_def_cfa_offset 16
	.cfi_offset 3, -16
	movq	%rdi, %rbx
	call	_ZN5boost16exception_detail39current_exception_std_exception_wrapperISt13bad_exceptionED1Ev
	movq	%rbx, %rdi
	movl	$48, %esi
	popq	%rbx
	.cfi_def_cfa_offset 8
	jmp	_ZdlPvm
	.cfi_endproc
.LFE12136:
	.size	_ZN5boost16exception_detail39current_exception_std_exception_wrapperISt13bad_exceptionED0Ev, .-_ZN5boost16exception_detail39current_exception_std_exception_wrapperISt13bad_exceptionED0Ev
	.section	.text._ZN5boost16exception_detail10clone_implINS0_39current_exception_std_exception_wrapperISt13bad_exceptionEEED1Ev,"axG",@progbits,_ZN5boost16exception_detail10clone_implINS0_39current_exception_std_exception_wrapperISt13bad_exceptionEEED1Ev,comdat
	.align 2
	.p2align 4,,15
	.weak	_ZN5boost16exception_detail10clone_implINS0_39current_exception_std_exception_wrapperISt13bad_exceptionEEED1Ev
	.type	_ZN5boost16exception_detail10clone_implINS0_39current_exception_std_exception_wrapperISt13bad_exceptionEEED1Ev, @function
_ZN5boost16exception_detail10clone_implINS0_39current_exception_std_exception_wrapperISt13bad_exceptionEEED1Ev:
.LFB12779:
	.cfi_startproc
	movq	$_ZTVN5boost16exception_detail10clone_implINS0_39current_exception_std_exception_wrapperISt13bad_exceptionEEEE+24, (%rdi)
	movq	$_ZTVN5boost16exception_detail10clone_implINS0_39current_exception_std_exception_wrapperISt13bad_exceptionEEEE+80, 8(%rdi)
	movq	$_ZTVN5boost16exception_detail10clone_implINS0_39current_exception_std_exception_wrapperISt13bad_exceptionEEEE+136, 48(%rdi)
	jmp	_ZN5boost16exception_detail39current_exception_std_exception_wrapperISt13bad_exceptionED2Ev
	.cfi_endproc
.LFE12779:
	.size	_ZN5boost16exception_detail10clone_implINS0_39current_exception_std_exception_wrapperISt13bad_exceptionEEED1Ev, .-_ZN5boost16exception_detail10clone_implINS0_39current_exception_std_exception_wrapperISt13bad_exceptionEEED1Ev
	.section	.text._ZN5boost16exception_detail10clone_implINS0_39current_exception_std_exception_wrapperISt13bad_exceptionEEED0Ev,"axG",@progbits,_ZN5boost16exception_detail10clone_implINS0_39current_exception_std_exception_wrapperISt13bad_exceptionEEED0Ev,comdat
	.align 2
	.p2align 4,,15
	.weak	_ZN5boost16exception_detail10clone_implINS0_39current_exception_std_exception_wrapperISt13bad_exceptionEEED0Ev
	.type	_ZN5boost16exception_detail10clone_implINS0_39current_exception_std_exception_wrapperISt13bad_exceptionEEED0Ev, @function
_ZN5boost16exception_detail10clone_implINS0_39current_exception_std_exception_wrapperISt13bad_exceptionEEED0Ev:
.LFB12780:
	.cfi_startproc
	pushq	%rbx
	.cfi_def_cfa_offset 16
	.cfi_offset 3, -16
	movq	%rdi, %rbx
	movq	$_ZTVN5boost16exception_detail10clone_implINS0_39current_exception_std_exception_wrapperISt13bad_exceptionEEEE+24, (%rdi)
	movq	$_ZTVN5boost16exception_detail10clone_implINS0_39current_exception_std_exception_wrapperISt13bad_exceptionEEEE+80, 8(%rdi)
	movq	$_ZTVN5boost16exception_detail10clone_implINS0_39current_exception_std_exception_wrapperISt13bad_exceptionEEEE+136, 48(%rdi)
	call	_ZN5boost16exception_detail39current_exception_std_exception_wrapperISt13bad_exceptionED2Ev
	movq	%rbx, %rdi
	movl	$56, %esi
	popq	%rbx
	.cfi_def_cfa_offset 8
	jmp	_ZdlPvm
	.cfi_endproc
.LFE12780:
	.size	_ZN5boost16exception_detail10clone_implINS0_39current_exception_std_exception_wrapperISt13bad_exceptionEEED0Ev, .-_ZN5boost16exception_detail10clone_implINS0_39current_exception_std_exception_wrapperISt13bad_exceptionEEED0Ev
	.section	.text._ZN5boost16exception_detail10bad_alloc_D2Ev,"axG",@progbits,_ZN5boost16exception_detail10bad_alloc_D5Ev,comdat
	.align 2
	.p2align 4,,15
	.weak	_ZN5boost16exception_detail10bad_alloc_D2Ev
	.type	_ZN5boost16exception_detail10bad_alloc_D2Ev, @function
_ZN5boost16exception_detail10bad_alloc_D2Ev:
.LFB6968:
	.cfi_startproc
	.cfi_personality 0x3,__gxx_personality_v0
	.cfi_lsda 0x3,.LLSDA6968
	pushq	%rbx
	.cfi_def_cfa_offset 16
	.cfi_offset 3, -16
	movq	$_ZTVN5boost16exception_detail10bad_alloc_E+16, (%rdi)
	movq	%rdi, %rbx
	movq	$_ZTVN5boost16exception_detail10bad_alloc_E+48, 40(%rdi)
	addq	$40, %rdi
	call	_ZNSt9bad_allocD2Ev
	movq	8(%rbx), %rdi
	movq	$_ZTVN5boost9exceptionE+16, (%rbx)
	testq	%rdi, %rdi
	je	.L258
	movq	(%rdi), %rax
	popq	%rbx
	.cfi_remember_state
	.cfi_def_cfa_offset 8
	movq	32(%rax), %rax
	jmp	*%rax
	.p2align 4,,10
	.p2align 3
.L258:
	.cfi_restore_state
	popq	%rbx
	.cfi_def_cfa_offset 8
	ret
	.cfi_endproc
.LFE6968:
	.section	.gcc_except_table._ZN5boost16exception_detail10bad_alloc_D2Ev,"aG",@progbits,_ZN5boost16exception_detail10bad_alloc_D5Ev,comdat
.LLSDA6968:
	.byte	0xff
	.byte	0xff
	.byte	0x1
	.uleb128 .LLSDACSE6968-.LLSDACSB6968
.LLSDACSB6968:
.LLSDACSE6968:
	.section	.text._ZN5boost16exception_detail10bad_alloc_D2Ev,"axG",@progbits,_ZN5boost16exception_detail10bad_alloc_D5Ev,comdat
	.size	_ZN5boost16exception_detail10bad_alloc_D2Ev, .-_ZN5boost16exception_detail10bad_alloc_D2Ev
	.set	.LTHUNK0,_ZN5boost16exception_detail10bad_alloc_D2Ev
	.p2align 4,,15
	.weak	_ZThn40_N5boost16exception_detail10bad_alloc_D1Ev
	.type	_ZThn40_N5boost16exception_detail10bad_alloc_D1Ev, @function
_ZThn40_N5boost16exception_detail10bad_alloc_D1Ev:
.LFB15327:
	.cfi_startproc
	subq	$40, %rdi
	jmp	.LTHUNK0
	.cfi_endproc
.LFE15327:
	.size	_ZThn40_N5boost16exception_detail10bad_alloc_D1Ev, .-_ZThn40_N5boost16exception_detail10bad_alloc_D1Ev
	.weak	_ZN5boost16exception_detail10bad_alloc_D1Ev
	.set	_ZN5boost16exception_detail10bad_alloc_D1Ev,_ZN5boost16exception_detail10bad_alloc_D2Ev
	.section	.text._ZN5boost16exception_detail10bad_alloc_D0Ev,"axG",@progbits,_ZN5boost16exception_detail10bad_alloc_D5Ev,comdat
	.align 2
	.p2align 4,,15
	.weak	_ZN5boost16exception_detail10bad_alloc_D0Ev
	.type	_ZN5boost16exception_detail10bad_alloc_D0Ev, @function
_ZN5boost16exception_detail10bad_alloc_D0Ev:
.LFB6970:
	.cfi_startproc
	pushq	%rbx
	.cfi_def_cfa_offset 16
	.cfi_offset 3, -16
	movq	%rdi, %rbx
	call	_ZN5boost16exception_detail10bad_alloc_D1Ev
	movq	%rbx, %rdi
	movl	$48, %esi
	popq	%rbx
	.cfi_def_cfa_offset 8
	jmp	_ZdlPvm
	.cfi_endproc
.LFE6970:
	.size	_ZN5boost16exception_detail10bad_alloc_D0Ev, .-_ZN5boost16exception_detail10bad_alloc_D0Ev
	.section	.text._ZN5boost16exception_detail10clone_implINS0_10bad_alloc_EED1Ev,"axG",@progbits,_ZN5boost16exception_detail10clone_implINS0_10bad_alloc_EED1Ev,comdat
	.align 2
	.p2align 4,,15
	.weak	_ZN5boost16exception_detail10clone_implINS0_10bad_alloc_EED1Ev
	.type	_ZN5boost16exception_detail10clone_implINS0_10bad_alloc_EED1Ev, @function
_ZN5boost16exception_detail10clone_implINS0_10bad_alloc_EED1Ev:
.LFB11916:
	.cfi_startproc
	movq	$_ZTVN5boost16exception_detail10clone_implINS0_10bad_alloc_EEE+24, (%rdi)
	movq	$_ZTVN5boost16exception_detail10clone_implINS0_10bad_alloc_EEE+72, 40(%rdi)
	movq	$_ZTVN5boost16exception_detail10clone_implINS0_10bad_alloc_EEE+136, 48(%rdi)
	jmp	_ZN5boost16exception_detail10bad_alloc_D2Ev
	.cfi_endproc
.LFE11916:
	.size	_ZN5boost16exception_detail10clone_implINS0_10bad_alloc_EED1Ev, .-_ZN5boost16exception_detail10clone_implINS0_10bad_alloc_EED1Ev
	.section	.text._ZN5boost16exception_detail10clone_implINS0_10bad_alloc_EED0Ev,"axG",@progbits,_ZN5boost16exception_detail10clone_implINS0_10bad_alloc_EED0Ev,comdat
	.align 2
	.p2align 4,,15
	.weak	_ZN5boost16exception_detail10clone_implINS0_10bad_alloc_EED0Ev
	.type	_ZN5boost16exception_detail10clone_implINS0_10bad_alloc_EED0Ev, @function
_ZN5boost16exception_detail10clone_implINS0_10bad_alloc_EED0Ev:
.LFB11917:
	.cfi_startproc
	pushq	%rbx
	.cfi_def_cfa_offset 16
	.cfi_offset 3, -16
	movq	%rdi, %rbx
	movq	$_ZTVN5boost16exception_detail10clone_implINS0_10bad_alloc_EEE+24, (%rdi)
	movq	$_ZTVN5boost16exception_detail10clone_implINS0_10bad_alloc_EEE+72, 40(%rdi)
	movq	$_ZTVN5boost16exception_detail10clone_implINS0_10bad_alloc_EEE+136, 48(%rdi)
	call	_ZN5boost16exception_detail10bad_alloc_D2Ev
	movq	%rbx, %rdi
	movl	$56, %esi
	popq	%rbx
	.cfi_def_cfa_offset 8
	jmp	_ZdlPvm
	.cfi_endproc
.LFE11917:
	.size	_ZN5boost16exception_detail10clone_implINS0_10bad_alloc_EED0Ev, .-_ZN5boost16exception_detail10clone_implINS0_10bad_alloc_EED0Ev
	.section	.text._ZN5boost16exception_detail39current_exception_std_exception_wrapperISt9bad_allocED2Ev,"axG",@progbits,_ZN5boost16exception_detail39current_exception_std_exception_wrapperISt9bad_allocED5Ev,comdat
	.align 2
	.p2align 4,,15
	.weak	_ZN5boost16exception_detail39current_exception_std_exception_wrapperISt9bad_allocED2Ev
	.type	_ZN5boost16exception_detail39current_exception_std_exception_wrapperISt9bad_allocED2Ev, @function
_ZN5boost16exception_detail39current_exception_std_exception_wrapperISt9bad_allocED2Ev:
.LFB12092:
	.cfi_startproc
	.cfi_personality 0x3,__gxx_personality_v0
	.cfi_lsda 0x3,.LLSDA12092
	pushq	%rbx
	.cfi_def_cfa_offset 16
	.cfi_offset 3, -16
	movq	%rdi, %rbx
	movq	$_ZTVN5boost16exception_detail39current_exception_std_exception_wrapperISt9bad_allocEE+16, (%rdi)
	movq	$_ZTVN5boost9exceptionE+16, 8(%rdi)
	movq	16(%rdi), %rdi
	testq	%rdi, %rdi
	je	.L267
	movq	(%rdi), %rax
	call	*32(%rax)
.L267:
	movq	%rbx, %rdi
	popq	%rbx
	.cfi_def_cfa_offset 8
	jmp	_ZNSt9bad_allocD2Ev
	.cfi_endproc
.LFE12092:
	.section	.gcc_except_table._ZN5boost16exception_detail39current_exception_std_exception_wrapperISt9bad_allocED2Ev,"aG",@progbits,_ZN5boost16exception_detail39current_exception_std_exception_wrapperISt9bad_allocED5Ev,comdat
.LLSDA12092:
	.byte	0xff
	.byte	0xff
	.byte	0x1
	.uleb128 .LLSDACSE12092-.LLSDACSB12092
.LLSDACSB12092:
.LLSDACSE12092:
	.section	.text._ZN5boost16exception_detail39current_exception_std_exception_wrapperISt9bad_allocED2Ev,"axG",@progbits,_ZN5boost16exception_detail39current_exception_std_exception_wrapperISt9bad_allocED5Ev,comdat
	.size	_ZN5boost16exception_detail39current_exception_std_exception_wrapperISt9bad_allocED2Ev, .-_ZN5boost16exception_detail39current_exception_std_exception_wrapperISt9bad_allocED2Ev
	.weak	_ZN5boost16exception_detail39current_exception_std_exception_wrapperISt9bad_allocED1Ev
	.set	_ZN5boost16exception_detail39current_exception_std_exception_wrapperISt9bad_allocED1Ev,_ZN5boost16exception_detail39current_exception_std_exception_wrapperISt9bad_allocED2Ev
	.set	.LTHUNK80,_ZN5boost16exception_detail39current_exception_std_exception_wrapperISt9bad_allocED1Ev
	.p2align 4,,15
	.weak	_ZThn8_N5boost16exception_detail39current_exception_std_exception_wrapperISt9bad_allocED1Ev
	.type	_ZThn8_N5boost16exception_detail39current_exception_std_exception_wrapperISt9bad_allocED1Ev, @function
_ZThn8_N5boost16exception_detail39current_exception_std_exception_wrapperISt9bad_allocED1Ev:
.LFB15331:
	.cfi_startproc
	subq	$8, %rdi
	jmp	.LTHUNK80
	.cfi_endproc
.LFE15331:
	.size	_ZThn8_N5boost16exception_detail39current_exception_std_exception_wrapperISt9bad_allocED1Ev, .-_ZThn8_N5boost16exception_detail39current_exception_std_exception_wrapperISt9bad_allocED1Ev
	.section	.text._ZN5boost16exception_detail39current_exception_std_exception_wrapperISt9bad_allocED0Ev,"axG",@progbits,_ZN5boost16exception_detail39current_exception_std_exception_wrapperISt9bad_allocED5Ev,comdat
	.align 2
	.p2align 4,,15
	.weak	_ZN5boost16exception_detail39current_exception_std_exception_wrapperISt9bad_allocED0Ev
	.type	_ZN5boost16exception_detail39current_exception_std_exception_wrapperISt9bad_allocED0Ev, @function
_ZN5boost16exception_detail39current_exception_std_exception_wrapperISt9bad_allocED0Ev:
.LFB12094:
	.cfi_startproc
	pushq	%rbx
	.cfi_def_cfa_offset 16
	.cfi_offset 3, -16
	movq	%rdi, %rbx
	call	_ZN5boost16exception_detail39current_exception_std_exception_wrapperISt9bad_allocED1Ev
	movq	%rbx, %rdi
	movl	$48, %esi
	popq	%rbx
	.cfi_def_cfa_offset 8
	jmp	_ZdlPvm
	.cfi_endproc
.LFE12094:
	.size	_ZN5boost16exception_detail39current_exception_std_exception_wrapperISt9bad_allocED0Ev, .-_ZN5boost16exception_detail39current_exception_std_exception_wrapperISt9bad_allocED0Ev
	.section	.text._ZN5boost16exception_detail10clone_implINS0_39current_exception_std_exception_wrapperISt9bad_allocEEED1Ev,"axG",@progbits,_ZN5boost16exception_detail10clone_implINS0_39current_exception_std_exception_wrapperISt9bad_allocEEED1Ev,comdat
	.align 2
	.p2align 4,,15
	.weak	_ZN5boost16exception_detail10clone_implINS0_39current_exception_std_exception_wrapperISt9bad_allocEEED1Ev
	.type	_ZN5boost16exception_detail10clone_implINS0_39current_exception_std_exception_wrapperISt9bad_allocEEED1Ev, @function
_ZN5boost16exception_detail10clone_implINS0_39current_exception_std_exception_wrapperISt9bad_allocEEED1Ev:
.LFB12761:
	.cfi_startproc
	movq	$_ZTVN5boost16exception_detail10clone_implINS0_39current_exception_std_exception_wrapperISt9bad_allocEEEE+24, (%rdi)
	movq	$_ZTVN5boost16exception_detail10clone_implINS0_39current_exception_std_exception_wrapperISt9bad_allocEEEE+80, 8(%rdi)
	movq	$_ZTVN5boost16exception_detail10clone_implINS0_39current_exception_std_exception_wrapperISt9bad_allocEEEE+136, 48(%rdi)
	jmp	_ZN5boost16exception_detail39current_exception_std_exception_wrapperISt9bad_allocED2Ev
	.cfi_endproc
.LFE12761:
	.size	_ZN5boost16exception_detail10clone_implINS0_39current_exception_std_exception_wrapperISt9bad_allocEEED1Ev, .-_ZN5boost16exception_detail10clone_implINS0_39current_exception_std_exception_wrapperISt9bad_allocEEED1Ev
	.section	.text._ZN5boost16exception_detail10clone_implINS0_39current_exception_std_exception_wrapperISt9bad_allocEEED0Ev,"axG",@progbits,_ZN5boost16exception_detail10clone_implINS0_39current_exception_std_exception_wrapperISt9bad_allocEEED0Ev,comdat
	.align 2
	.p2align 4,,15
	.weak	_ZN5boost16exception_detail10clone_implINS0_39current_exception_std_exception_wrapperISt9bad_allocEEED0Ev
	.type	_ZN5boost16exception_detail10clone_implINS0_39current_exception_std_exception_wrapperISt9bad_allocEEED0Ev, @function
_ZN5boost16exception_detail10clone_implINS0_39current_exception_std_exception_wrapperISt9bad_allocEEED0Ev:
.LFB12762:
	.cfi_startproc
	pushq	%rbx
	.cfi_def_cfa_offset 16
	.cfi_offset 3, -16
	movq	%rdi, %rbx
	movq	$_ZTVN5boost16exception_detail10clone_implINS0_39current_exception_std_exception_wrapperISt9bad_allocEEEE+24, (%rdi)
	movq	$_ZTVN5boost16exception_detail10clone_implINS0_39current_exception_std_exception_wrapperISt9bad_allocEEEE+80, 8(%rdi)
	movq	$_ZTVN5boost16exception_detail10clone_implINS0_39current_exception_std_exception_wrapperISt9bad_allocEEEE+136, 48(%rdi)
	call	_ZN5boost16exception_detail39current_exception_std_exception_wrapperISt9bad_allocED2Ev
	movq	%rbx, %rdi
	movl	$56, %esi
	popq	%rbx
	.cfi_def_cfa_offset 8
	jmp	_ZdlPvm
	.cfi_endproc
.LFE12762:
	.size	_ZN5boost16exception_detail10clone_implINS0_39current_exception_std_exception_wrapperISt9bad_allocEEED0Ev, .-_ZN5boost16exception_detail10clone_implINS0_39current_exception_std_exception_wrapperISt9bad_allocEEED0Ev
	.section	.text._ZN5boost16exception_detail39current_exception_std_exception_wrapperISt12out_of_rangeED2Ev,"axG",@progbits,_ZN5boost16exception_detail39current_exception_std_exception_wrapperISt12out_of_rangeED5Ev,comdat
	.align 2
	.p2align 4,,15
	.weak	_ZN5boost16exception_detail39current_exception_std_exception_wrapperISt12out_of_rangeED2Ev
	.type	_ZN5boost16exception_detail39current_exception_std_exception_wrapperISt12out_of_rangeED2Ev, @function
_ZN5boost16exception_detail39current_exception_std_exception_wrapperISt12out_of_rangeED2Ev:
.LFB11993:
	.cfi_startproc
	.cfi_personality 0x3,__gxx_personality_v0
	.cfi_lsda 0x3,.LLSDA11993
	pushq	%rbx
	.cfi_def_cfa_offset 16
	.cfi_offset 3, -16
	movq	%rdi, %rbx
	movq	$_ZTVN5boost16exception_detail39current_exception_std_exception_wrapperISt12out_of_rangeEE+16, (%rdi)
	movq	$_ZTVN5boost9exceptionE+16, 16(%rdi)
	movq	24(%rdi), %rdi
	testq	%rdi, %rdi
	je	.L278
	movq	(%rdi), %rax
	call	*32(%rax)
.L278:
	movq	%rbx, %rdi
	popq	%rbx
	.cfi_def_cfa_offset 8
	jmp	_ZNSt12out_of_rangeD2Ev
	.cfi_endproc
.LFE11993:
	.section	.gcc_except_table._ZN5boost16exception_detail39current_exception_std_exception_wrapperISt12out_of_rangeED2Ev,"aG",@progbits,_ZN5boost16exception_detail39current_exception_std_exception_wrapperISt12out_of_rangeED5Ev,comdat
.LLSDA11993:
	.byte	0xff
	.byte	0xff
	.byte	0x1
	.uleb128 .LLSDACSE11993-.LLSDACSB11993
.LLSDACSB11993:
.LLSDACSE11993:
	.section	.text._ZN5boost16exception_detail39current_exception_std_exception_wrapperISt12out_of_rangeED2Ev,"axG",@progbits,_ZN5boost16exception_detail39current_exception_std_exception_wrapperISt12out_of_rangeED5Ev,comdat
	.size	_ZN5boost16exception_detail39current_exception_std_exception_wrapperISt12out_of_rangeED2Ev, .-_ZN5boost16exception_detail39current_exception_std_exception_wrapperISt12out_of_rangeED2Ev
	.weak	_ZN5boost16exception_detail39current_exception_std_exception_wrapperISt12out_of_rangeED1Ev
	.set	_ZN5boost16exception_detail39current_exception_std_exception_wrapperISt12out_of_rangeED1Ev,_ZN5boost16exception_detail39current_exception_std_exception_wrapperISt12out_of_rangeED2Ev
	.set	.LTHUNK66,_ZN5boost16exception_detail39current_exception_std_exception_wrapperISt12out_of_rangeED1Ev
	.p2align 4,,15
	.weak	_ZThn16_N5boost16exception_detail39current_exception_std_exception_wrapperISt12out_of_rangeED1Ev
	.type	_ZThn16_N5boost16exception_detail39current_exception_std_exception_wrapperISt12out_of_rangeED1Ev, @function
_ZThn16_N5boost16exception_detail39current_exception_std_exception_wrapperISt12out_of_rangeED1Ev:
.LFB15335:
	.cfi_startproc
	subq	$16, %rdi
	jmp	.LTHUNK66
	.cfi_endproc
.LFE15335:
	.size	_ZThn16_N5boost16exception_detail39current_exception_std_exception_wrapperISt12out_of_rangeED1Ev, .-_ZThn16_N5boost16exception_detail39current_exception_std_exception_wrapperISt12out_of_rangeED1Ev
	.section	.text._ZN5boost16exception_detail39current_exception_std_exception_wrapperISt12out_of_rangeED0Ev,"axG",@progbits,_ZN5boost16exception_detail39current_exception_std_exception_wrapperISt12out_of_rangeED5Ev,comdat
	.align 2
	.p2align 4,,15
	.weak	_ZN5boost16exception_detail39current_exception_std_exception_wrapperISt12out_of_rangeED0Ev
	.type	_ZN5boost16exception_detail39current_exception_std_exception_wrapperISt12out_of_rangeED0Ev, @function
_ZN5boost16exception_detail39current_exception_std_exception_wrapperISt12out_of_rangeED0Ev:
.LFB11995:
	.cfi_startproc
	pushq	%rbx
	.cfi_def_cfa_offset 16
	.cfi_offset 3, -16
	movq	%rdi, %rbx
	call	_ZN5boost16exception_detail39current_exception_std_exception_wrapperISt12out_of_rangeED1Ev
	movq	%rbx, %rdi
	movl	$56, %esi
	popq	%rbx
	.cfi_def_cfa_offset 8
	jmp	_ZdlPvm
	.cfi_endproc
.LFE11995:
	.size	_ZN5boost16exception_detail39current_exception_std_exception_wrapperISt12out_of_rangeED0Ev, .-_ZN5boost16exception_detail39current_exception_std_exception_wrapperISt12out_of_rangeED0Ev
	.section	.text._ZN5boost16exception_detail10clone_implINS0_39current_exception_std_exception_wrapperISt12out_of_rangeEEED1Ev,"axG",@progbits,_ZN5boost16exception_detail10clone_implINS0_39current_exception_std_exception_wrapperISt12out_of_rangeEEED1Ev,comdat
	.align 2
	.p2align 4,,15
	.weak	_ZN5boost16exception_detail10clone_implINS0_39current_exception_std_exception_wrapperISt12out_of_rangeEEED1Ev
	.type	_ZN5boost16exception_detail10clone_implINS0_39current_exception_std_exception_wrapperISt12out_of_rangeEEED1Ev, @function
_ZN5boost16exception_detail10clone_implINS0_39current_exception_std_exception_wrapperISt12out_of_rangeEEED1Ev:
.LFB12719:
	.cfi_startproc
	movq	$_ZTVN5boost16exception_detail10clone_implINS0_39current_exception_std_exception_wrapperISt12out_of_rangeEEEE+24, (%rdi)
	movq	$_ZTVN5boost16exception_detail10clone_implINS0_39current_exception_std_exception_wrapperISt12out_of_rangeEEEE+80, 16(%rdi)
	movq	$_ZTVN5boost16exception_detail10clone_implINS0_39current_exception_std_exception_wrapperISt12out_of_rangeEEEE+136, 56(%rdi)
	jmp	_ZN5boost16exception_detail39current_exception_std_exception_wrapperISt12out_of_rangeED2Ev
	.cfi_endproc
.LFE12719:
	.size	_ZN5boost16exception_detail10clone_implINS0_39current_exception_std_exception_wrapperISt12out_of_rangeEEED1Ev, .-_ZN5boost16exception_detail10clone_implINS0_39current_exception_std_exception_wrapperISt12out_of_rangeEEED1Ev
	.section	.text._ZN5boost16exception_detail10clone_implINS0_39current_exception_std_exception_wrapperISt12out_of_rangeEEED0Ev,"axG",@progbits,_ZN5boost16exception_detail10clone_implINS0_39current_exception_std_exception_wrapperISt12out_of_rangeEEED0Ev,comdat
	.align 2
	.p2align 4,,15
	.weak	_ZN5boost16exception_detail10clone_implINS0_39current_exception_std_exception_wrapperISt12out_of_rangeEEED0Ev
	.type	_ZN5boost16exception_detail10clone_implINS0_39current_exception_std_exception_wrapperISt12out_of_rangeEEED0Ev, @function
_ZN5boost16exception_detail10clone_implINS0_39current_exception_std_exception_wrapperISt12out_of_rangeEEED0Ev:
.LFB12720:
	.cfi_startproc
	pushq	%rbx
	.cfi_def_cfa_offset 16
	.cfi_offset 3, -16
	movq	%rdi, %rbx
	movq	$_ZTVN5boost16exception_detail10clone_implINS0_39current_exception_std_exception_wrapperISt12out_of_rangeEEEE+24, (%rdi)
	movq	$_ZTVN5boost16exception_detail10clone_implINS0_39current_exception_std_exception_wrapperISt12out_of_rangeEEEE+80, 16(%rdi)
	movq	$_ZTVN5boost16exception_detail10clone_implINS0_39current_exception_std_exception_wrapperISt12out_of_rangeEEEE+136, 56(%rdi)
	call	_ZN5boost16exception_detail39current_exception_std_exception_wrapperISt12out_of_rangeED2Ev
	movq	%rbx, %rdi
	movl	$64, %esi
	popq	%rbx
	.cfi_def_cfa_offset 8
	jmp	_ZdlPvm
	.cfi_endproc
.LFE12720:
	.size	_ZN5boost16exception_detail10clone_implINS0_39current_exception_std_exception_wrapperISt12out_of_rangeEEED0Ev, .-_ZN5boost16exception_detail10clone_implINS0_39current_exception_std_exception_wrapperISt12out_of_rangeEEED0Ev
	.section	.text._ZN5boost16exception_detail39current_exception_std_exception_wrapperISt10bad_typeidED2Ev,"axG",@progbits,_ZN5boost16exception_detail39current_exception_std_exception_wrapperISt10bad_typeidED5Ev,comdat
	.align 2
	.p2align 4,,15
	.weak	_ZN5boost16exception_detail39current_exception_std_exception_wrapperISt10bad_typeidED2Ev
	.type	_ZN5boost16exception_detail39current_exception_std_exception_wrapperISt10bad_typeidED2Ev, @function
_ZN5boost16exception_detail39current_exception_std_exception_wrapperISt10bad_typeidED2Ev:
.LFB12122:
	.cfi_startproc
	.cfi_personality 0x3,__gxx_personality_v0
	.cfi_lsda 0x3,.LLSDA12122
	pushq	%rbx
	.cfi_def_cfa_offset 16
	.cfi_offset 3, -16
	movq	%rdi, %rbx
	movq	$_ZTVN5boost16exception_detail39current_exception_std_exception_wrapperISt10bad_typeidEE+16, (%rdi)
	movq	$_ZTVN5boost9exceptionE+16, 8(%rdi)
	movq	16(%rdi), %rdi
	testq	%rdi, %rdi
	je	.L289
	movq	(%rdi), %rax
	call	*32(%rax)
.L289:
	movq	%rbx, %rdi
	popq	%rbx
	.cfi_def_cfa_offset 8
	jmp	_ZNSt10bad_typeidD2Ev
	.cfi_endproc
.LFE12122:
	.section	.gcc_except_table._ZN5boost16exception_detail39current_exception_std_exception_wrapperISt10bad_typeidED2Ev,"aG",@progbits,_ZN5boost16exception_detail39current_exception_std_exception_wrapperISt10bad_typeidED5Ev,comdat
.LLSDA12122:
	.byte	0xff
	.byte	0xff
	.byte	0x1
	.uleb128 .LLSDACSE12122-.LLSDACSB12122
.LLSDACSB12122:
.LLSDACSE12122:
	.section	.text._ZN5boost16exception_detail39current_exception_std_exception_wrapperISt10bad_typeidED2Ev,"axG",@progbits,_ZN5boost16exception_detail39current_exception_std_exception_wrapperISt10bad_typeidED5Ev,comdat
	.size	_ZN5boost16exception_detail39current_exception_std_exception_wrapperISt10bad_typeidED2Ev, .-_ZN5boost16exception_detail39current_exception_std_exception_wrapperISt10bad_typeidED2Ev
	.weak	_ZN5boost16exception_detail39current_exception_std_exception_wrapperISt10bad_typeidED1Ev
	.set	_ZN5boost16exception_detail39current_exception_std_exception_wrapperISt10bad_typeidED1Ev,_ZN5boost16exception_detail39current_exception_std_exception_wrapperISt10bad_typeidED2Ev
	.set	.LTHUNK84,_ZN5boost16exception_detail39current_exception_std_exception_wrapperISt10bad_typeidED1Ev
	.p2align 4,,15
	.weak	_ZThn8_N5boost16exception_detail39current_exception_std_exception_wrapperISt10bad_typeidED1Ev
	.type	_ZThn8_N5boost16exception_detail39current_exception_std_exception_wrapperISt10bad_typeidED1Ev, @function
_ZThn8_N5boost16exception_detail39current_exception_std_exception_wrapperISt10bad_typeidED1Ev:
.LFB15339:
	.cfi_startproc
	subq	$8, %rdi
	jmp	.LTHUNK84
	.cfi_endproc
.LFE15339:
	.size	_ZThn8_N5boost16exception_detail39current_exception_std_exception_wrapperISt10bad_typeidED1Ev, .-_ZThn8_N5boost16exception_detail39current_exception_std_exception_wrapperISt10bad_typeidED1Ev
	.section	.text._ZN5boost16exception_detail39current_exception_std_exception_wrapperISt10bad_typeidED0Ev,"axG",@progbits,_ZN5boost16exception_detail39current_exception_std_exception_wrapperISt10bad_typeidED5Ev,comdat
	.align 2
	.p2align 4,,15
	.weak	_ZN5boost16exception_detail39current_exception_std_exception_wrapperISt10bad_typeidED0Ev
	.type	_ZN5boost16exception_detail39current_exception_std_exception_wrapperISt10bad_typeidED0Ev, @function
_ZN5boost16exception_detail39current_exception_std_exception_wrapperISt10bad_typeidED0Ev:
.LFB12124:
	.cfi_startproc
	pushq	%rbx
	.cfi_def_cfa_offset 16
	.cfi_offset 3, -16
	movq	%rdi, %rbx
	call	_ZN5boost16exception_detail39current_exception_std_exception_wrapperISt10bad_typeidED1Ev
	movq	%rbx, %rdi
	movl	$48, %esi
	popq	%rbx
	.cfi_def_cfa_offset 8
	jmp	_ZdlPvm
	.cfi_endproc
.LFE12124:
	.size	_ZN5boost16exception_detail39current_exception_std_exception_wrapperISt10bad_typeidED0Ev, .-_ZN5boost16exception_detail39current_exception_std_exception_wrapperISt10bad_typeidED0Ev
	.section	.text._ZN5boost16exception_detail10clone_implINS0_39current_exception_std_exception_wrapperISt10bad_typeidEEED1Ev,"axG",@progbits,_ZN5boost16exception_detail10clone_implINS0_39current_exception_std_exception_wrapperISt10bad_typeidEEED1Ev,comdat
	.align 2
	.p2align 4,,15
	.weak	_ZN5boost16exception_detail10clone_implINS0_39current_exception_std_exception_wrapperISt10bad_typeidEEED1Ev
	.type	_ZN5boost16exception_detail10clone_implINS0_39current_exception_std_exception_wrapperISt10bad_typeidEEED1Ev, @function
_ZN5boost16exception_detail10clone_implINS0_39current_exception_std_exception_wrapperISt10bad_typeidEEED1Ev:
.LFB12773:
	.cfi_startproc
	movq	$_ZTVN5boost16exception_detail10clone_implINS0_39current_exception_std_exception_wrapperISt10bad_typeidEEEE+24, (%rdi)
	movq	$_ZTVN5boost16exception_detail10clone_implINS0_39current_exception_std_exception_wrapperISt10bad_typeidEEEE+80, 8(%rdi)
	movq	$_ZTVN5boost16exception_detail10clone_implINS0_39current_exception_std_exception_wrapperISt10bad_typeidEEEE+136, 48(%rdi)
	jmp	_ZN5boost16exception_detail39current_exception_std_exception_wrapperISt10bad_typeidED2Ev
	.cfi_endproc
.LFE12773:
	.size	_ZN5boost16exception_detail10clone_implINS0_39current_exception_std_exception_wrapperISt10bad_typeidEEED1Ev, .-_ZN5boost16exception_detail10clone_implINS0_39current_exception_std_exception_wrapperISt10bad_typeidEEED1Ev
	.section	.text._ZN5boost16exception_detail10clone_implINS0_39current_exception_std_exception_wrapperISt10bad_typeidEEED0Ev,"axG",@progbits,_ZN5boost16exception_detail10clone_implINS0_39current_exception_std_exception_wrapperISt10bad_typeidEEED0Ev,comdat
	.align 2
	.p2align 4,,15
	.weak	_ZN5boost16exception_detail10clone_implINS0_39current_exception_std_exception_wrapperISt10bad_typeidEEED0Ev
	.type	_ZN5boost16exception_detail10clone_implINS0_39current_exception_std_exception_wrapperISt10bad_typeidEEED0Ev, @function
_ZN5boost16exception_detail10clone_implINS0_39current_exception_std_exception_wrapperISt10bad_typeidEEED0Ev:
.LFB12774:
	.cfi_startproc
	pushq	%rbx
	.cfi_def_cfa_offset 16
	.cfi_offset 3, -16
	movq	%rdi, %rbx
	movq	$_ZTVN5boost16exception_detail10clone_implINS0_39current_exception_std_exception_wrapperISt10bad_typeidEEEE+24, (%rdi)
	movq	$_ZTVN5boost16exception_detail10clone_implINS0_39current_exception_std_exception_wrapperISt10bad_typeidEEEE+80, 8(%rdi)
	movq	$_ZTVN5boost16exception_detail10clone_implINS0_39current_exception_std_exception_wrapperISt10bad_typeidEEEE+136, 48(%rdi)
	call	_ZN5boost16exception_detail39current_exception_std_exception_wrapperISt10bad_typeidED2Ev
	movq	%rbx, %rdi
	movl	$56, %esi
	popq	%rbx
	.cfi_def_cfa_offset 8
	jmp	_ZdlPvm
	.cfi_endproc
.LFE12774:
	.size	_ZN5boost16exception_detail10clone_implINS0_39current_exception_std_exception_wrapperISt10bad_typeidEEED0Ev, .-_ZN5boost16exception_detail10clone_implINS0_39current_exception_std_exception_wrapperISt10bad_typeidEEED0Ev
	.section	.text._ZN5boost16exception_detail39current_exception_std_exception_wrapperISt8bad_castED2Ev,"axG",@progbits,_ZN5boost16exception_detail39current_exception_std_exception_wrapperISt8bad_castED5Ev,comdat
	.align 2
	.p2align 4,,15
	.weak	_ZN5boost16exception_detail39current_exception_std_exception_wrapperISt8bad_castED2Ev
	.type	_ZN5boost16exception_detail39current_exception_std_exception_wrapperISt8bad_castED2Ev, @function
_ZN5boost16exception_detail39current_exception_std_exception_wrapperISt8bad_castED2Ev:
.LFB12107:
	.cfi_startproc
	.cfi_personality 0x3,__gxx_personality_v0
	.cfi_lsda 0x3,.LLSDA12107
	pushq	%rbx
	.cfi_def_cfa_offset 16
	.cfi_offset 3, -16
	movq	%rdi, %rbx
	movq	$_ZTVN5boost16exception_detail39current_exception_std_exception_wrapperISt8bad_castEE+16, (%rdi)
	movq	$_ZTVN5boost9exceptionE+16, 8(%rdi)
	movq	16(%rdi), %rdi
	testq	%rdi, %rdi
	je	.L300
	movq	(%rdi), %rax
	call	*32(%rax)
.L300:
	movq	%rbx, %rdi
	popq	%rbx
	.cfi_def_cfa_offset 8
	jmp	_ZNSt8bad_castD2Ev
	.cfi_endproc
.LFE12107:
	.section	.gcc_except_table._ZN5boost16exception_detail39current_exception_std_exception_wrapperISt8bad_castED2Ev,"aG",@progbits,_ZN5boost16exception_detail39current_exception_std_exception_wrapperISt8bad_castED5Ev,comdat
.LLSDA12107:
	.byte	0xff
	.byte	0xff
	.byte	0x1
	.uleb128 .LLSDACSE12107-.LLSDACSB12107
.LLSDACSB12107:
.LLSDACSE12107:
	.section	.text._ZN5boost16exception_detail39current_exception_std_exception_wrapperISt8bad_castED2Ev,"axG",@progbits,_ZN5boost16exception_detail39current_exception_std_exception_wrapperISt8bad_castED5Ev,comdat
	.size	_ZN5boost16exception_detail39current_exception_std_exception_wrapperISt8bad_castED2Ev, .-_ZN5boost16exception_detail39current_exception_std_exception_wrapperISt8bad_castED2Ev
	.weak	_ZN5boost16exception_detail39current_exception_std_exception_wrapperISt8bad_castED1Ev
	.set	_ZN5boost16exception_detail39current_exception_std_exception_wrapperISt8bad_castED1Ev,_ZN5boost16exception_detail39current_exception_std_exception_wrapperISt8bad_castED2Ev
	.set	.LTHUNK82,_ZN5boost16exception_detail39current_exception_std_exception_wrapperISt8bad_castED1Ev
	.p2align 4,,15
	.weak	_ZThn8_N5boost16exception_detail39current_exception_std_exception_wrapperISt8bad_castED1Ev
	.type	_ZThn8_N5boost16exception_detail39current_exception_std_exception_wrapperISt8bad_castED1Ev, @function
_ZThn8_N5boost16exception_detail39current_exception_std_exception_wrapperISt8bad_castED1Ev:
.LFB15343:
	.cfi_startproc
	subq	$8, %rdi
	jmp	.LTHUNK82
	.cfi_endproc
.LFE15343:
	.size	_ZThn8_N5boost16exception_detail39current_exception_std_exception_wrapperISt8bad_castED1Ev, .-_ZThn8_N5boost16exception_detail39current_exception_std_exception_wrapperISt8bad_castED1Ev
	.section	.text._ZN5boost16exception_detail39current_exception_std_exception_wrapperISt8bad_castED0Ev,"axG",@progbits,_ZN5boost16exception_detail39current_exception_std_exception_wrapperISt8bad_castED5Ev,comdat
	.align 2
	.p2align 4,,15
	.weak	_ZN5boost16exception_detail39current_exception_std_exception_wrapperISt8bad_castED0Ev
	.type	_ZN5boost16exception_detail39current_exception_std_exception_wrapperISt8bad_castED0Ev, @function
_ZN5boost16exception_detail39current_exception_std_exception_wrapperISt8bad_castED0Ev:
.LFB12109:
	.cfi_startproc
	pushq	%rbx
	.cfi_def_cfa_offset 16
	.cfi_offset 3, -16
	movq	%rdi, %rbx
	call	_ZN5boost16exception_detail39current_exception_std_exception_wrapperISt8bad_castED1Ev
	movq	%rbx, %rdi
	movl	$48, %esi
	popq	%rbx
	.cfi_def_cfa_offset 8
	jmp	_ZdlPvm
	.cfi_endproc
.LFE12109:
	.size	_ZN5boost16exception_detail39current_exception_std_exception_wrapperISt8bad_castED0Ev, .-_ZN5boost16exception_detail39current_exception_std_exception_wrapperISt8bad_castED0Ev
	.section	.text._ZN5boost16exception_detail10clone_implINS0_39current_exception_std_exception_wrapperISt8bad_castEEED1Ev,"axG",@progbits,_ZN5boost16exception_detail10clone_implINS0_39current_exception_std_exception_wrapperISt8bad_castEEED1Ev,comdat
	.align 2
	.p2align 4,,15
	.weak	_ZN5boost16exception_detail10clone_implINS0_39current_exception_std_exception_wrapperISt8bad_castEEED1Ev
	.type	_ZN5boost16exception_detail10clone_implINS0_39current_exception_std_exception_wrapperISt8bad_castEEED1Ev, @function
_ZN5boost16exception_detail10clone_implINS0_39current_exception_std_exception_wrapperISt8bad_castEEED1Ev:
.LFB12767:
	.cfi_startproc
	movq	$_ZTVN5boost16exception_detail10clone_implINS0_39current_exception_std_exception_wrapperISt8bad_castEEEE+24, (%rdi)
	movq	$_ZTVN5boost16exception_detail10clone_implINS0_39current_exception_std_exception_wrapperISt8bad_castEEEE+80, 8(%rdi)
	movq	$_ZTVN5boost16exception_detail10clone_implINS0_39current_exception_std_exception_wrapperISt8bad_castEEEE+136, 48(%rdi)
	jmp	_ZN5boost16exception_detail39current_exception_std_exception_wrapperISt8bad_castED2Ev
	.cfi_endproc
.LFE12767:
	.size	_ZN5boost16exception_detail10clone_implINS0_39current_exception_std_exception_wrapperISt8bad_castEEED1Ev, .-_ZN5boost16exception_detail10clone_implINS0_39current_exception_std_exception_wrapperISt8bad_castEEED1Ev
	.section	.text._ZN5boost16exception_detail10clone_implINS0_39current_exception_std_exception_wrapperISt8bad_castEEED0Ev,"axG",@progbits,_ZN5boost16exception_detail10clone_implINS0_39current_exception_std_exception_wrapperISt8bad_castEEED0Ev,comdat
	.align 2
	.p2align 4,,15
	.weak	_ZN5boost16exception_detail10clone_implINS0_39current_exception_std_exception_wrapperISt8bad_castEEED0Ev
	.type	_ZN5boost16exception_detail10clone_implINS0_39current_exception_std_exception_wrapperISt8bad_castEEED0Ev, @function
_ZN5boost16exception_detail10clone_implINS0_39current_exception_std_exception_wrapperISt8bad_castEEED0Ev:
.LFB12768:
	.cfi_startproc
	pushq	%rbx
	.cfi_def_cfa_offset 16
	.cfi_offset 3, -16
	movq	%rdi, %rbx
	movq	$_ZTVN5boost16exception_detail10clone_implINS0_39current_exception_std_exception_wrapperISt8bad_castEEEE+24, (%rdi)
	movq	$_ZTVN5boost16exception_detail10clone_implINS0_39current_exception_std_exception_wrapperISt8bad_castEEEE+80, 8(%rdi)
	movq	$_ZTVN5boost16exception_detail10clone_implINS0_39current_exception_std_exception_wrapperISt8bad_castEEEE+136, 48(%rdi)
	call	_ZN5boost16exception_detail39current_exception_std_exception_wrapperISt8bad_castED2Ev
	movq	%rbx, %rdi
	movl	$56, %esi
	popq	%rbx
	.cfi_def_cfa_offset 8
	jmp	_ZdlPvm
	.cfi_endproc
.LFE12768:
	.size	_ZN5boost16exception_detail10clone_implINS0_39current_exception_std_exception_wrapperISt8bad_castEEED0Ev, .-_ZN5boost16exception_detail10clone_implINS0_39current_exception_std_exception_wrapperISt8bad_castEEED0Ev
	.section	.text._ZN5boost16exception_detail39current_exception_std_exception_wrapperINSt8ios_base7failureB5cxx11EED2Ev,"axG",@progbits,_ZN5boost16exception_detail39current_exception_std_exception_wrapperINSt8ios_base7failureB5cxx11EED5Ev,comdat
	.align 2
	.p2align 4,,15
	.weak	_ZN5boost16exception_detail39current_exception_std_exception_wrapperINSt8ios_base7failureB5cxx11EED2Ev
	.type	_ZN5boost16exception_detail39current_exception_std_exception_wrapperINSt8ios_base7failureB5cxx11EED2Ev, @function
_ZN5boost16exception_detail39current_exception_std_exception_wrapperINSt8ios_base7failureB5cxx11EED2Ev:
.LFB12068:
	.cfi_startproc
	.cfi_personality 0x3,__gxx_personality_v0
	.cfi_lsda 0x3,.LLSDA12068
	pushq	%rbx
	.cfi_def_cfa_offset 16
	.cfi_offset 3, -16
	movq	%rdi, %rbx
	movq	$_ZTVN5boost16exception_detail39current_exception_std_exception_wrapperINSt8ios_base7failureB5cxx11EEE+16, (%rdi)
	movq	$_ZTVN5boost9exceptionE+16, 32(%rdi)
	movq	40(%rdi), %rdi
	testq	%rdi, %rdi
	je	.L311
	movq	(%rdi), %rax
	call	*32(%rax)
.L311:
	movq	%rbx, %rdi
	popq	%rbx
	.cfi_def_cfa_offset 8
	jmp	_ZNSt8ios_base7failureB5cxx11D2Ev
	.cfi_endproc
.LFE12068:
	.section	.gcc_except_table._ZN5boost16exception_detail39current_exception_std_exception_wrapperINSt8ios_base7failureB5cxx11EED2Ev,"aG",@progbits,_ZN5boost16exception_detail39current_exception_std_exception_wrapperINSt8ios_base7failureB5cxx11EED5Ev,comdat
.LLSDA12068:
	.byte	0xff
	.byte	0xff
	.byte	0x1
	.uleb128 .LLSDACSE12068-.LLSDACSB12068
.LLSDACSB12068:
.LLSDACSE12068:
	.section	.text._ZN5boost16exception_detail39current_exception_std_exception_wrapperINSt8ios_base7failureB5cxx11EED2Ev,"axG",@progbits,_ZN5boost16exception_detail39current_exception_std_exception_wrapperINSt8ios_base7failureB5cxx11EED5Ev,comdat
	.size	_ZN5boost16exception_detail39current_exception_std_exception_wrapperINSt8ios_base7failureB5cxx11EED2Ev, .-_ZN5boost16exception_detail39current_exception_std_exception_wrapperINSt8ios_base7failureB5cxx11EED2Ev
	.weak	_ZN5boost16exception_detail39current_exception_std_exception_wrapperINSt8ios_base7failureB5cxx11EED1Ev
	.set	_ZN5boost16exception_detail39current_exception_std_exception_wrapperINSt8ios_base7failureB5cxx11EED1Ev,_ZN5boost16exception_detail39current_exception_std_exception_wrapperINSt8ios_base7failureB5cxx11EED2Ev
	.set	.LTHUNK76,_ZN5boost16exception_detail39current_exception_std_exception_wrapperINSt8ios_base7failureB5cxx11EED1Ev
	.p2align 4,,15
	.weak	_ZThn32_N5boost16exception_detail39current_exception_std_exception_wrapperINSt8ios_base7failureB5cxx11EED1Ev
	.type	_ZThn32_N5boost16exception_detail39current_exception_std_exception_wrapperINSt8ios_base7failureB5cxx11EED1Ev, @function
_ZThn32_N5boost16exception_detail39current_exception_std_exception_wrapperINSt8ios_base7failureB5cxx11EED1Ev:
.LFB15347:
	.cfi_startproc
	subq	$32, %rdi
	jmp	.LTHUNK76
	.cfi_endproc
.LFE15347:
	.size	_ZThn32_N5boost16exception_detail39current_exception_std_exception_wrapperINSt8ios_base7failureB5cxx11EED1Ev, .-_ZThn32_N5boost16exception_detail39current_exception_std_exception_wrapperINSt8ios_base7failureB5cxx11EED1Ev
	.section	.text._ZN5boost16exception_detail39current_exception_std_exception_wrapperINSt8ios_base7failureB5cxx11EED0Ev,"axG",@progbits,_ZN5boost16exception_detail39current_exception_std_exception_wrapperINSt8ios_base7failureB5cxx11EED5Ev,comdat
	.align 2
	.p2align 4,,15
	.weak	_ZN5boost16exception_detail39current_exception_std_exception_wrapperINSt8ios_base7failureB5cxx11EED0Ev
	.type	_ZN5boost16exception_detail39current_exception_std_exception_wrapperINSt8ios_base7failureB5cxx11EED0Ev, @function
_ZN5boost16exception_detail39current_exception_std_exception_wrapperINSt8ios_base7failureB5cxx11EED0Ev:
.LFB12070:
	.cfi_startproc
	pushq	%rbx
	.cfi_def_cfa_offset 16
	.cfi_offset 3, -16
	movq	%rdi, %rbx
	call	_ZN5boost16exception_detail39current_exception_std_exception_wrapperINSt8ios_base7failureB5cxx11EED1Ev
	movq	%rbx, %rdi
	movl	$72, %esi
	popq	%rbx
	.cfi_def_cfa_offset 8
	jmp	_ZdlPvm
	.cfi_endproc
.LFE12070:
	.size	_ZN5boost16exception_detail39current_exception_std_exception_wrapperINSt8ios_base7failureB5cxx11EED0Ev, .-_ZN5boost16exception_detail39current_exception_std_exception_wrapperINSt8ios_base7failureB5cxx11EED0Ev
	.section	.text._ZN5boost16exception_detail10clone_implINS0_39current_exception_std_exception_wrapperINSt8ios_base7failureB5cxx11EEEED1Ev,"axG",@progbits,_ZN5boost16exception_detail10clone_implINS0_39current_exception_std_exception_wrapperINSt8ios_base7failureB5cxx11EEEED1Ev,comdat
	.align 2
	.p2align 4,,15
	.weak	_ZN5boost16exception_detail10clone_implINS0_39current_exception_std_exception_wrapperINSt8ios_base7failureB5cxx11EEEED1Ev
	.type	_ZN5boost16exception_detail10clone_implINS0_39current_exception_std_exception_wrapperINSt8ios_base7failureB5cxx11EEEED1Ev, @function
_ZN5boost16exception_detail10clone_implINS0_39current_exception_std_exception_wrapperINSt8ios_base7failureB5cxx11EEEED1Ev:
.LFB12749:
	.cfi_startproc
	movq	$_ZTVN5boost16exception_detail10clone_implINS0_39current_exception_std_exception_wrapperINSt8ios_base7failureB5cxx11EEEEE+24, (%rdi)
	movq	$_ZTVN5boost16exception_detail10clone_implINS0_39current_exception_std_exception_wrapperINSt8ios_base7failureB5cxx11EEEEE+80, 32(%rdi)
	movq	$_ZTVN5boost16exception_detail10clone_implINS0_39current_exception_std_exception_wrapperINSt8ios_base7failureB5cxx11EEEEE+136, 72(%rdi)
	jmp	_ZN5boost16exception_detail39current_exception_std_exception_wrapperINSt8ios_base7failureB5cxx11EED2Ev
	.cfi_endproc
.LFE12749:
	.size	_ZN5boost16exception_detail10clone_implINS0_39current_exception_std_exception_wrapperINSt8ios_base7failureB5cxx11EEEED1Ev, .-_ZN5boost16exception_detail10clone_implINS0_39current_exception_std_exception_wrapperINSt8ios_base7failureB5cxx11EEEED1Ev
	.section	.text._ZN5boost16exception_detail10clone_implINS0_39current_exception_std_exception_wrapperINSt8ios_base7failureB5cxx11EEEED0Ev,"axG",@progbits,_ZN5boost16exception_detail10clone_implINS0_39current_exception_std_exception_wrapperINSt8ios_base7failureB5cxx11EEEED0Ev,comdat
	.align 2
	.p2align 4,,15
	.weak	_ZN5boost16exception_detail10clone_implINS0_39current_exception_std_exception_wrapperINSt8ios_base7failureB5cxx11EEEED0Ev
	.type	_ZN5boost16exception_detail10clone_implINS0_39current_exception_std_exception_wrapperINSt8ios_base7failureB5cxx11EEEED0Ev, @function
_ZN5boost16exception_detail10clone_implINS0_39current_exception_std_exception_wrapperINSt8ios_base7failureB5cxx11EEEED0Ev:
.LFB12750:
	.cfi_startproc
	pushq	%rbx
	.cfi_def_cfa_offset 16
	.cfi_offset 3, -16
	movq	%rdi, %rbx
	movq	$_ZTVN5boost16exception_detail10clone_implINS0_39current_exception_std_exception_wrapperINSt8ios_base7failureB5cxx11EEEEE+24, (%rdi)
	movq	$_ZTVN5boost16exception_detail10clone_implINS0_39current_exception_std_exception_wrapperINSt8ios_base7failureB5cxx11EEEEE+80, 32(%rdi)
	movq	$_ZTVN5boost16exception_detail10clone_implINS0_39current_exception_std_exception_wrapperINSt8ios_base7failureB5cxx11EEEEE+136, 72(%rdi)
	call	_ZN5boost16exception_detail39current_exception_std_exception_wrapperINSt8ios_base7failureB5cxx11EED2Ev
	movq	%rbx, %rdi
	movl	$80, %esi
	popq	%rbx
	.cfi_def_cfa_offset 8
	jmp	_ZdlPvm
	.cfi_endproc
.LFE12750:
	.size	_ZN5boost16exception_detail10clone_implINS0_39current_exception_std_exception_wrapperINSt8ios_base7failureB5cxx11EEEED0Ev, .-_ZN5boost16exception_detail10clone_implINS0_39current_exception_std_exception_wrapperINSt8ios_base7failureB5cxx11EEEED0Ev
	.section	.text._ZN5boost16exception_detail39current_exception_std_exception_wrapperISt15underflow_errorED2Ev,"axG",@progbits,_ZN5boost16exception_detail39current_exception_std_exception_wrapperISt15underflow_errorED5Ev,comdat
	.align 2
	.p2align 4,,15
	.weak	_ZN5boost16exception_detail39current_exception_std_exception_wrapperISt15underflow_errorED2Ev
	.type	_ZN5boost16exception_detail39current_exception_std_exception_wrapperISt15underflow_errorED2Ev, @function
_ZN5boost16exception_detail39current_exception_std_exception_wrapperISt15underflow_errorED2Ev:
.LFB12050:
	.cfi_startproc
	.cfi_personality 0x3,__gxx_personality_v0
	.cfi_lsda 0x3,.LLSDA12050
	pushq	%rbx
	.cfi_def_cfa_offset 16
	.cfi_offset 3, -16
	movq	%rdi, %rbx
	movq	$_ZTVN5boost16exception_detail39current_exception_std_exception_wrapperISt15underflow_errorEE+16, (%rdi)
	movq	$_ZTVN5boost9exceptionE+16, 16(%rdi)
	movq	24(%rdi), %rdi
	testq	%rdi, %rdi
	je	.L322
	movq	(%rdi), %rax
	call	*32(%rax)
.L322:
	movq	%rbx, %rdi
	popq	%rbx
	.cfi_def_cfa_offset 8
	jmp	_ZNSt15underflow_errorD2Ev
	.cfi_endproc
.LFE12050:
	.section	.gcc_except_table._ZN5boost16exception_detail39current_exception_std_exception_wrapperISt15underflow_errorED2Ev,"aG",@progbits,_ZN5boost16exception_detail39current_exception_std_exception_wrapperISt15underflow_errorED5Ev,comdat
.LLSDA12050:
	.byte	0xff
	.byte	0xff
	.byte	0x1
	.uleb128 .LLSDACSE12050-.LLSDACSB12050
.LLSDACSB12050:
.LLSDACSE12050:
	.section	.text._ZN5boost16exception_detail39current_exception_std_exception_wrapperISt15underflow_errorED2Ev,"axG",@progbits,_ZN5boost16exception_detail39current_exception_std_exception_wrapperISt15underflow_errorED5Ev,comdat
	.size	_ZN5boost16exception_detail39current_exception_std_exception_wrapperISt15underflow_errorED2Ev, .-_ZN5boost16exception_detail39current_exception_std_exception_wrapperISt15underflow_errorED2Ev
	.weak	_ZN5boost16exception_detail39current_exception_std_exception_wrapperISt15underflow_errorED1Ev
	.set	_ZN5boost16exception_detail39current_exception_std_exception_wrapperISt15underflow_errorED1Ev,_ZN5boost16exception_detail39current_exception_std_exception_wrapperISt15underflow_errorED2Ev
	.set	.LTHUNK74,_ZN5boost16exception_detail39current_exception_std_exception_wrapperISt15underflow_errorED1Ev
	.p2align 4,,15
	.weak	_ZThn16_N5boost16exception_detail39current_exception_std_exception_wrapperISt15underflow_errorED1Ev
	.type	_ZThn16_N5boost16exception_detail39current_exception_std_exception_wrapperISt15underflow_errorED1Ev, @function
_ZThn16_N5boost16exception_detail39current_exception_std_exception_wrapperISt15underflow_errorED1Ev:
.LFB15351:
	.cfi_startproc
	subq	$16, %rdi
	jmp	.LTHUNK74
	.cfi_endproc
.LFE15351:
	.size	_ZThn16_N5boost16exception_detail39current_exception_std_exception_wrapperISt15underflow_errorED1Ev, .-_ZThn16_N5boost16exception_detail39current_exception_std_exception_wrapperISt15underflow_errorED1Ev
	.section	.text._ZN5boost16exception_detail39current_exception_std_exception_wrapperISt15underflow_errorED0Ev,"axG",@progbits,_ZN5boost16exception_detail39current_exception_std_exception_wrapperISt15underflow_errorED5Ev,comdat
	.align 2
	.p2align 4,,15
	.weak	_ZN5boost16exception_detail39current_exception_std_exception_wrapperISt15underflow_errorED0Ev
	.type	_ZN5boost16exception_detail39current_exception_std_exception_wrapperISt15underflow_errorED0Ev, @function
_ZN5boost16exception_detail39current_exception_std_exception_wrapperISt15underflow_errorED0Ev:
.LFB12052:
	.cfi_startproc
	pushq	%rbx
	.cfi_def_cfa_offset 16
	.cfi_offset 3, -16
	movq	%rdi, %rbx
	call	_ZN5boost16exception_detail39current_exception_std_exception_wrapperISt15underflow_errorED1Ev
	movq	%rbx, %rdi
	movl	$56, %esi
	popq	%rbx
	.cfi_def_cfa_offset 8
	jmp	_ZdlPvm
	.cfi_endproc
.LFE12052:
	.size	_ZN5boost16exception_detail39current_exception_std_exception_wrapperISt15underflow_errorED0Ev, .-_ZN5boost16exception_detail39current_exception_std_exception_wrapperISt15underflow_errorED0Ev
	.section	.text._ZN5boost16exception_detail10clone_implINS0_39current_exception_std_exception_wrapperISt15underflow_errorEEED1Ev,"axG",@progbits,_ZN5boost16exception_detail10clone_implINS0_39current_exception_std_exception_wrapperISt15underflow_errorEEED1Ev,comdat
	.align 2
	.p2align 4,,15
	.weak	_ZN5boost16exception_detail10clone_implINS0_39current_exception_std_exception_wrapperISt15underflow_errorEEED1Ev
	.type	_ZN5boost16exception_detail10clone_implINS0_39current_exception_std_exception_wrapperISt15underflow_errorEEED1Ev, @function
_ZN5boost16exception_detail10clone_implINS0_39current_exception_std_exception_wrapperISt15underflow_errorEEED1Ev:
.LFB12743:
	.cfi_startproc
	movq	$_ZTVN5boost16exception_detail10clone_implINS0_39current_exception_std_exception_wrapperISt15underflow_errorEEEE+24, (%rdi)
	movq	$_ZTVN5boost16exception_detail10clone_implINS0_39current_exception_std_exception_wrapperISt15underflow_errorEEEE+80, 16(%rdi)
	movq	$_ZTVN5boost16exception_detail10clone_implINS0_39current_exception_std_exception_wrapperISt15underflow_errorEEEE+136, 56(%rdi)
	jmp	_ZN5boost16exception_detail39current_exception_std_exception_wrapperISt15underflow_errorED2Ev
	.cfi_endproc
.LFE12743:
	.size	_ZN5boost16exception_detail10clone_implINS0_39current_exception_std_exception_wrapperISt15underflow_errorEEED1Ev, .-_ZN5boost16exception_detail10clone_implINS0_39current_exception_std_exception_wrapperISt15underflow_errorEEED1Ev
	.section	.text._ZN5boost16exception_detail10clone_implINS0_39current_exception_std_exception_wrapperISt15underflow_errorEEED0Ev,"axG",@progbits,_ZN5boost16exception_detail10clone_implINS0_39current_exception_std_exception_wrapperISt15underflow_errorEEED0Ev,comdat
	.align 2
	.p2align 4,,15
	.weak	_ZN5boost16exception_detail10clone_implINS0_39current_exception_std_exception_wrapperISt15underflow_errorEEED0Ev
	.type	_ZN5boost16exception_detail10clone_implINS0_39current_exception_std_exception_wrapperISt15underflow_errorEEED0Ev, @function
_ZN5boost16exception_detail10clone_implINS0_39current_exception_std_exception_wrapperISt15underflow_errorEEED0Ev:
.LFB12744:
	.cfi_startproc
	pushq	%rbx
	.cfi_def_cfa_offset 16
	.cfi_offset 3, -16
	movq	%rdi, %rbx
	movq	$_ZTVN5boost16exception_detail10clone_implINS0_39current_exception_std_exception_wrapperISt15underflow_errorEEEE+24, (%rdi)
	movq	$_ZTVN5boost16exception_detail10clone_implINS0_39current_exception_std_exception_wrapperISt15underflow_errorEEEE+80, 16(%rdi)
	movq	$_ZTVN5boost16exception_detail10clone_implINS0_39current_exception_std_exception_wrapperISt15underflow_errorEEEE+136, 56(%rdi)
	call	_ZN5boost16exception_detail39current_exception_std_exception_wrapperISt15underflow_errorED2Ev
	movq	%rbx, %rdi
	movl	$64, %esi
	popq	%rbx
	.cfi_def_cfa_offset 8
	jmp	_ZdlPvm
	.cfi_endproc
.LFE12744:
	.size	_ZN5boost16exception_detail10clone_implINS0_39current_exception_std_exception_wrapperISt15underflow_errorEEED0Ev, .-_ZN5boost16exception_detail10clone_implINS0_39current_exception_std_exception_wrapperISt15underflow_errorEEED0Ev
	.section	.text._ZN5boost16exception_detail39current_exception_std_exception_wrapperISt14overflow_errorED2Ev,"axG",@progbits,_ZN5boost16exception_detail39current_exception_std_exception_wrapperISt14overflow_errorED5Ev,comdat
	.align 2
	.p2align 4,,15
	.weak	_ZN5boost16exception_detail39current_exception_std_exception_wrapperISt14overflow_errorED2Ev
	.type	_ZN5boost16exception_detail39current_exception_std_exception_wrapperISt14overflow_errorED2Ev, @function
_ZN5boost16exception_detail39current_exception_std_exception_wrapperISt14overflow_errorED2Ev:
.LFB12035:
	.cfi_startproc
	.cfi_personality 0x3,__gxx_personality_v0
	.cfi_lsda 0x3,.LLSDA12035
	pushq	%rbx
	.cfi_def_cfa_offset 16
	.cfi_offset 3, -16
	movq	%rdi, %rbx
	movq	$_ZTVN5boost16exception_detail39current_exception_std_exception_wrapperISt14overflow_errorEE+16, (%rdi)
	movq	$_ZTVN5boost9exceptionE+16, 16(%rdi)
	movq	24(%rdi), %rdi
	testq	%rdi, %rdi
	je	.L333
	movq	(%rdi), %rax
	call	*32(%rax)
.L333:
	movq	%rbx, %rdi
	popq	%rbx
	.cfi_def_cfa_offset 8
	jmp	_ZNSt14overflow_errorD2Ev
	.cfi_endproc
.LFE12035:
	.section	.gcc_except_table._ZN5boost16exception_detail39current_exception_std_exception_wrapperISt14overflow_errorED2Ev,"aG",@progbits,_ZN5boost16exception_detail39current_exception_std_exception_wrapperISt14overflow_errorED5Ev,comdat
.LLSDA12035:
	.byte	0xff
	.byte	0xff
	.byte	0x1
	.uleb128 .LLSDACSE12035-.LLSDACSB12035
.LLSDACSB12035:
.LLSDACSE12035:
	.section	.text._ZN5boost16exception_detail39current_exception_std_exception_wrapperISt14overflow_errorED2Ev,"axG",@progbits,_ZN5boost16exception_detail39current_exception_std_exception_wrapperISt14overflow_errorED5Ev,comdat
	.size	_ZN5boost16exception_detail39current_exception_std_exception_wrapperISt14overflow_errorED2Ev, .-_ZN5boost16exception_detail39current_exception_std_exception_wrapperISt14overflow_errorED2Ev
	.weak	_ZN5boost16exception_detail39current_exception_std_exception_wrapperISt14overflow_errorED1Ev
	.set	_ZN5boost16exception_detail39current_exception_std_exception_wrapperISt14overflow_errorED1Ev,_ZN5boost16exception_detail39current_exception_std_exception_wrapperISt14overflow_errorED2Ev
	.set	.LTHUNK72,_ZN5boost16exception_detail39current_exception_std_exception_wrapperISt14overflow_errorED1Ev
	.p2align 4,,15
	.weak	_ZThn16_N5boost16exception_detail39current_exception_std_exception_wrapperISt14overflow_errorED1Ev
	.type	_ZThn16_N5boost16exception_detail39current_exception_std_exception_wrapperISt14overflow_errorED1Ev, @function
_ZThn16_N5boost16exception_detail39current_exception_std_exception_wrapperISt14overflow_errorED1Ev:
.LFB15355:
	.cfi_startproc
	subq	$16, %rdi
	jmp	.LTHUNK72
	.cfi_endproc
.LFE15355:
	.size	_ZThn16_N5boost16exception_detail39current_exception_std_exception_wrapperISt14overflow_errorED1Ev, .-_ZThn16_N5boost16exception_detail39current_exception_std_exception_wrapperISt14overflow_errorED1Ev
	.section	.text._ZN5boost16exception_detail39current_exception_std_exception_wrapperISt14overflow_errorED0Ev,"axG",@progbits,_ZN5boost16exception_detail39current_exception_std_exception_wrapperISt14overflow_errorED5Ev,comdat
	.align 2
	.p2align 4,,15
	.weak	_ZN5boost16exception_detail39current_exception_std_exception_wrapperISt14overflow_errorED0Ev
	.type	_ZN5boost16exception_detail39current_exception_std_exception_wrapperISt14overflow_errorED0Ev, @function
_ZN5boost16exception_detail39current_exception_std_exception_wrapperISt14overflow_errorED0Ev:
.LFB12037:
	.cfi_startproc
	pushq	%rbx
	.cfi_def_cfa_offset 16
	.cfi_offset 3, -16
	movq	%rdi, %rbx
	call	_ZN5boost16exception_detail39current_exception_std_exception_wrapperISt14overflow_errorED1Ev
	movq	%rbx, %rdi
	movl	$56, %esi
	popq	%rbx
	.cfi_def_cfa_offset 8
	jmp	_ZdlPvm
	.cfi_endproc
.LFE12037:
	.size	_ZN5boost16exception_detail39current_exception_std_exception_wrapperISt14overflow_errorED0Ev, .-_ZN5boost16exception_detail39current_exception_std_exception_wrapperISt14overflow_errorED0Ev
	.section	.text._ZN5boost16exception_detail10clone_implINS0_39current_exception_std_exception_wrapperISt14overflow_errorEEED1Ev,"axG",@progbits,_ZN5boost16exception_detail10clone_implINS0_39current_exception_std_exception_wrapperISt14overflow_errorEEED1Ev,comdat
	.align 2
	.p2align 4,,15
	.weak	_ZN5boost16exception_detail10clone_implINS0_39current_exception_std_exception_wrapperISt14overflow_errorEEED1Ev
	.type	_ZN5boost16exception_detail10clone_implINS0_39current_exception_std_exception_wrapperISt14overflow_errorEEED1Ev, @function
_ZN5boost16exception_detail10clone_implINS0_39current_exception_std_exception_wrapperISt14overflow_errorEEED1Ev:
.LFB12737:
	.cfi_startproc
	movq	$_ZTVN5boost16exception_detail10clone_implINS0_39current_exception_std_exception_wrapperISt14overflow_errorEEEE+24, (%rdi)
	movq	$_ZTVN5boost16exception_detail10clone_implINS0_39current_exception_std_exception_wrapperISt14overflow_errorEEEE+80, 16(%rdi)
	movq	$_ZTVN5boost16exception_detail10clone_implINS0_39current_exception_std_exception_wrapperISt14overflow_errorEEEE+136, 56(%rdi)
	jmp	_ZN5boost16exception_detail39current_exception_std_exception_wrapperISt14overflow_errorED2Ev
	.cfi_endproc
.LFE12737:
	.size	_ZN5boost16exception_detail10clone_implINS0_39current_exception_std_exception_wrapperISt14overflow_errorEEED1Ev, .-_ZN5boost16exception_detail10clone_implINS0_39current_exception_std_exception_wrapperISt14overflow_errorEEED1Ev
	.section	.text._ZN5boost16exception_detail10clone_implINS0_39current_exception_std_exception_wrapperISt14overflow_errorEEED0Ev,"axG",@progbits,_ZN5boost16exception_detail10clone_implINS0_39current_exception_std_exception_wrapperISt14overflow_errorEEED0Ev,comdat
	.align 2
	.p2align 4,,15
	.weak	_ZN5boost16exception_detail10clone_implINS0_39current_exception_std_exception_wrapperISt14overflow_errorEEED0Ev
	.type	_ZN5boost16exception_detail10clone_implINS0_39current_exception_std_exception_wrapperISt14overflow_errorEEED0Ev, @function
_ZN5boost16exception_detail10clone_implINS0_39current_exception_std_exception_wrapperISt14overflow_errorEEED0Ev:
.LFB12738:
	.cfi_startproc
	pushq	%rbx
	.cfi_def_cfa_offset 16
	.cfi_offset 3, -16
	movq	%rdi, %rbx
	movq	$_ZTVN5boost16exception_detail10clone_implINS0_39current_exception_std_exception_wrapperISt14overflow_errorEEEE+24, (%rdi)
	movq	$_ZTVN5boost16exception_detail10clone_implINS0_39current_exception_std_exception_wrapperISt14overflow_errorEEEE+80, 16(%rdi)
	movq	$_ZTVN5boost16exception_detail10clone_implINS0_39current_exception_std_exception_wrapperISt14overflow_errorEEEE+136, 56(%rdi)
	call	_ZN5boost16exception_detail39current_exception_std_exception_wrapperISt14overflow_errorED2Ev
	movq	%rbx, %rdi
	movl	$64, %esi
	popq	%rbx
	.cfi_def_cfa_offset 8
	jmp	_ZdlPvm
	.cfi_endproc
.LFE12738:
	.size	_ZN5boost16exception_detail10clone_implINS0_39current_exception_std_exception_wrapperISt14overflow_errorEEED0Ev, .-_ZN5boost16exception_detail10clone_implINS0_39current_exception_std_exception_wrapperISt14overflow_errorEEED0Ev
	.section	.text._ZN5boost16exception_detail39current_exception_std_exception_wrapperISt11range_errorED2Ev,"axG",@progbits,_ZN5boost16exception_detail39current_exception_std_exception_wrapperISt11range_errorED5Ev,comdat
	.align 2
	.p2align 4,,15
	.weak	_ZN5boost16exception_detail39current_exception_std_exception_wrapperISt11range_errorED2Ev
	.type	_ZN5boost16exception_detail39current_exception_std_exception_wrapperISt11range_errorED2Ev, @function
_ZN5boost16exception_detail39current_exception_std_exception_wrapperISt11range_errorED2Ev:
.LFB12020:
	.cfi_startproc
	.cfi_personality 0x3,__gxx_personality_v0
	.cfi_lsda 0x3,.LLSDA12020
	pushq	%rbx
	.cfi_def_cfa_offset 16
	.cfi_offset 3, -16
	movq	%rdi, %rbx
	movq	$_ZTVN5boost16exception_detail39current_exception_std_exception_wrapperISt11range_errorEE+16, (%rdi)
	movq	$_ZTVN5boost9exceptionE+16, 16(%rdi)
	movq	24(%rdi), %rdi
	testq	%rdi, %rdi
	je	.L344
	movq	(%rdi), %rax
	call	*32(%rax)
.L344:
	movq	%rbx, %rdi
	popq	%rbx
	.cfi_def_cfa_offset 8
	jmp	_ZNSt11range_errorD2Ev
	.cfi_endproc
.LFE12020:
	.section	.gcc_except_table._ZN5boost16exception_detail39current_exception_std_exception_wrapperISt11range_errorED2Ev,"aG",@progbits,_ZN5boost16exception_detail39current_exception_std_exception_wrapperISt11range_errorED5Ev,comdat
.LLSDA12020:
	.byte	0xff
	.byte	0xff
	.byte	0x1
	.uleb128 .LLSDACSE12020-.LLSDACSB12020
.LLSDACSB12020:
.LLSDACSE12020:
	.section	.text._ZN5boost16exception_detail39current_exception_std_exception_wrapperISt11range_errorED2Ev,"axG",@progbits,_ZN5boost16exception_detail39current_exception_std_exception_wrapperISt11range_errorED5Ev,comdat
	.size	_ZN5boost16exception_detail39current_exception_std_exception_wrapperISt11range_errorED2Ev, .-_ZN5boost16exception_detail39current_exception_std_exception_wrapperISt11range_errorED2Ev
	.weak	_ZN5boost16exception_detail39current_exception_std_exception_wrapperISt11range_errorED1Ev
	.set	_ZN5boost16exception_detail39current_exception_std_exception_wrapperISt11range_errorED1Ev,_ZN5boost16exception_detail39current_exception_std_exception_wrapperISt11range_errorED2Ev
	.set	.LTHUNK70,_ZN5boost16exception_detail39current_exception_std_exception_wrapperISt11range_errorED1Ev
	.p2align 4,,15
	.weak	_ZThn16_N5boost16exception_detail39current_exception_std_exception_wrapperISt11range_errorED1Ev
	.type	_ZThn16_N5boost16exception_detail39current_exception_std_exception_wrapperISt11range_errorED1Ev, @function
_ZThn16_N5boost16exception_detail39current_exception_std_exception_wrapperISt11range_errorED1Ev:
.LFB15359:
	.cfi_startproc
	subq	$16, %rdi
	jmp	.LTHUNK70
	.cfi_endproc
.LFE15359:
	.size	_ZThn16_N5boost16exception_detail39current_exception_std_exception_wrapperISt11range_errorED1Ev, .-_ZThn16_N5boost16exception_detail39current_exception_std_exception_wrapperISt11range_errorED1Ev
	.section	.text._ZN5boost16exception_detail39current_exception_std_exception_wrapperISt11range_errorED0Ev,"axG",@progbits,_ZN5boost16exception_detail39current_exception_std_exception_wrapperISt11range_errorED5Ev,comdat
	.align 2
	.p2align 4,,15
	.weak	_ZN5boost16exception_detail39current_exception_std_exception_wrapperISt11range_errorED0Ev
	.type	_ZN5boost16exception_detail39current_exception_std_exception_wrapperISt11range_errorED0Ev, @function
_ZN5boost16exception_detail39current_exception_std_exception_wrapperISt11range_errorED0Ev:
.LFB12022:
	.cfi_startproc
	pushq	%rbx
	.cfi_def_cfa_offset 16
	.cfi_offset 3, -16
	movq	%rdi, %rbx
	call	_ZN5boost16exception_detail39current_exception_std_exception_wrapperISt11range_errorED1Ev
	movq	%rbx, %rdi
	movl	$56, %esi
	popq	%rbx
	.cfi_def_cfa_offset 8
	jmp	_ZdlPvm
	.cfi_endproc
.LFE12022:
	.size	_ZN5boost16exception_detail39current_exception_std_exception_wrapperISt11range_errorED0Ev, .-_ZN5boost16exception_detail39current_exception_std_exception_wrapperISt11range_errorED0Ev
	.section	.text._ZN5boost16exception_detail10clone_implINS0_39current_exception_std_exception_wrapperISt11range_errorEEED1Ev,"axG",@progbits,_ZN5boost16exception_detail10clone_implINS0_39current_exception_std_exception_wrapperISt11range_errorEEED1Ev,comdat
	.align 2
	.p2align 4,,15
	.weak	_ZN5boost16exception_detail10clone_implINS0_39current_exception_std_exception_wrapperISt11range_errorEEED1Ev
	.type	_ZN5boost16exception_detail10clone_implINS0_39current_exception_std_exception_wrapperISt11range_errorEEED1Ev, @function
_ZN5boost16exception_detail10clone_implINS0_39current_exception_std_exception_wrapperISt11range_errorEEED1Ev:
.LFB12731:
	.cfi_startproc
	movq	$_ZTVN5boost16exception_detail10clone_implINS0_39current_exception_std_exception_wrapperISt11range_errorEEEE+24, (%rdi)
	movq	$_ZTVN5boost16exception_detail10clone_implINS0_39current_exception_std_exception_wrapperISt11range_errorEEEE+80, 16(%rdi)
	movq	$_ZTVN5boost16exception_detail10clone_implINS0_39current_exception_std_exception_wrapperISt11range_errorEEEE+136, 56(%rdi)
	jmp	_ZN5boost16exception_detail39current_exception_std_exception_wrapperISt11range_errorED2Ev
	.cfi_endproc
.LFE12731:
	.size	_ZN5boost16exception_detail10clone_implINS0_39current_exception_std_exception_wrapperISt11range_errorEEED1Ev, .-_ZN5boost16exception_detail10clone_implINS0_39current_exception_std_exception_wrapperISt11range_errorEEED1Ev
	.section	.text._ZN5boost16exception_detail10clone_implINS0_39current_exception_std_exception_wrapperISt11range_errorEEED0Ev,"axG",@progbits,_ZN5boost16exception_detail10clone_implINS0_39current_exception_std_exception_wrapperISt11range_errorEEED0Ev,comdat
	.align 2
	.p2align 4,,15
	.weak	_ZN5boost16exception_detail10clone_implINS0_39current_exception_std_exception_wrapperISt11range_errorEEED0Ev
	.type	_ZN5boost16exception_detail10clone_implINS0_39current_exception_std_exception_wrapperISt11range_errorEEED0Ev, @function
_ZN5boost16exception_detail10clone_implINS0_39current_exception_std_exception_wrapperISt11range_errorEEED0Ev:
.LFB12732:
	.cfi_startproc
	pushq	%rbx
	.cfi_def_cfa_offset 16
	.cfi_offset 3, -16
	movq	%rdi, %rbx
	movq	$_ZTVN5boost16exception_detail10clone_implINS0_39current_exception_std_exception_wrapperISt11range_errorEEEE+24, (%rdi)
	movq	$_ZTVN5boost16exception_detail10clone_implINS0_39current_exception_std_exception_wrapperISt11range_errorEEEE+80, 16(%rdi)
	movq	$_ZTVN5boost16exception_detail10clone_implINS0_39current_exception_std_exception_wrapperISt11range_errorEEEE+136, 56(%rdi)
	call	_ZN5boost16exception_detail39current_exception_std_exception_wrapperISt11range_errorED2Ev
	movq	%rbx, %rdi
	movl	$64, %esi
	popq	%rbx
	.cfi_def_cfa_offset 8
	jmp	_ZdlPvm
	.cfi_endproc
.LFE12732:
	.size	_ZN5boost16exception_detail10clone_implINS0_39current_exception_std_exception_wrapperISt11range_errorEEED0Ev, .-_ZN5boost16exception_detail10clone_implINS0_39current_exception_std_exception_wrapperISt11range_errorEEED0Ev
	.section	.text._ZN5boost16exception_detail39current_exception_std_exception_wrapperISt12length_errorED2Ev,"axG",@progbits,_ZN5boost16exception_detail39current_exception_std_exception_wrapperISt12length_errorED5Ev,comdat
	.align 2
	.p2align 4,,15
	.weak	_ZN5boost16exception_detail39current_exception_std_exception_wrapperISt12length_errorED2Ev
	.type	_ZN5boost16exception_detail39current_exception_std_exception_wrapperISt12length_errorED2Ev, @function
_ZN5boost16exception_detail39current_exception_std_exception_wrapperISt12length_errorED2Ev:
.LFB11978:
	.cfi_startproc
	.cfi_personality 0x3,__gxx_personality_v0
	.cfi_lsda 0x3,.LLSDA11978
	pushq	%rbx
	.cfi_def_cfa_offset 16
	.cfi_offset 3, -16
	movq	%rdi, %rbx
	movq	$_ZTVN5boost16exception_detail39current_exception_std_exception_wrapperISt12length_errorEE+16, (%rdi)
	movq	$_ZTVN5boost9exceptionE+16, 16(%rdi)
	movq	24(%rdi), %rdi
	testq	%rdi, %rdi
	je	.L355
	movq	(%rdi), %rax
	call	*32(%rax)
.L355:
	movq	%rbx, %rdi
	popq	%rbx
	.cfi_def_cfa_offset 8
	jmp	_ZNSt12length_errorD2Ev
	.cfi_endproc
.LFE11978:
	.section	.gcc_except_table._ZN5boost16exception_detail39current_exception_std_exception_wrapperISt12length_errorED2Ev,"aG",@progbits,_ZN5boost16exception_detail39current_exception_std_exception_wrapperISt12length_errorED5Ev,comdat
.LLSDA11978:
	.byte	0xff
	.byte	0xff
	.byte	0x1
	.uleb128 .LLSDACSE11978-.LLSDACSB11978
.LLSDACSB11978:
.LLSDACSE11978:
	.section	.text._ZN5boost16exception_detail39current_exception_std_exception_wrapperISt12length_errorED2Ev,"axG",@progbits,_ZN5boost16exception_detail39current_exception_std_exception_wrapperISt12length_errorED5Ev,comdat
	.size	_ZN5boost16exception_detail39current_exception_std_exception_wrapperISt12length_errorED2Ev, .-_ZN5boost16exception_detail39current_exception_std_exception_wrapperISt12length_errorED2Ev
	.weak	_ZN5boost16exception_detail39current_exception_std_exception_wrapperISt12length_errorED1Ev
	.set	_ZN5boost16exception_detail39current_exception_std_exception_wrapperISt12length_errorED1Ev,_ZN5boost16exception_detail39current_exception_std_exception_wrapperISt12length_errorED2Ev
	.set	.LTHUNK64,_ZN5boost16exception_detail39current_exception_std_exception_wrapperISt12length_errorED1Ev
	.p2align 4,,15
	.weak	_ZThn16_N5boost16exception_detail39current_exception_std_exception_wrapperISt12length_errorED1Ev
	.type	_ZThn16_N5boost16exception_detail39current_exception_std_exception_wrapperISt12length_errorED1Ev, @function
_ZThn16_N5boost16exception_detail39current_exception_std_exception_wrapperISt12length_errorED1Ev:
.LFB15363:
	.cfi_startproc
	subq	$16, %rdi
	jmp	.LTHUNK64
	.cfi_endproc
.LFE15363:
	.size	_ZThn16_N5boost16exception_detail39current_exception_std_exception_wrapperISt12length_errorED1Ev, .-_ZThn16_N5boost16exception_detail39current_exception_std_exception_wrapperISt12length_errorED1Ev
	.section	.text._ZN5boost16exception_detail39current_exception_std_exception_wrapperISt12length_errorED0Ev,"axG",@progbits,_ZN5boost16exception_detail39current_exception_std_exception_wrapperISt12length_errorED5Ev,comdat
	.align 2
	.p2align 4,,15
	.weak	_ZN5boost16exception_detail39current_exception_std_exception_wrapperISt12length_errorED0Ev
	.type	_ZN5boost16exception_detail39current_exception_std_exception_wrapperISt12length_errorED0Ev, @function
_ZN5boost16exception_detail39current_exception_std_exception_wrapperISt12length_errorED0Ev:
.LFB11980:
	.cfi_startproc
	pushq	%rbx
	.cfi_def_cfa_offset 16
	.cfi_offset 3, -16
	movq	%rdi, %rbx
	call	_ZN5boost16exception_detail39current_exception_std_exception_wrapperISt12length_errorED1Ev
	movq	%rbx, %rdi
	movl	$56, %esi
	popq	%rbx
	.cfi_def_cfa_offset 8
	jmp	_ZdlPvm
	.cfi_endproc
.LFE11980:
	.size	_ZN5boost16exception_detail39current_exception_std_exception_wrapperISt12length_errorED0Ev, .-_ZN5boost16exception_detail39current_exception_std_exception_wrapperISt12length_errorED0Ev
	.section	.text._ZN5boost16exception_detail10clone_implINS0_39current_exception_std_exception_wrapperISt12length_errorEEED1Ev,"axG",@progbits,_ZN5boost16exception_detail10clone_implINS0_39current_exception_std_exception_wrapperISt12length_errorEEED1Ev,comdat
	.align 2
	.p2align 4,,15
	.weak	_ZN5boost16exception_detail10clone_implINS0_39current_exception_std_exception_wrapperISt12length_errorEEED1Ev
	.type	_ZN5boost16exception_detail10clone_implINS0_39current_exception_std_exception_wrapperISt12length_errorEEED1Ev, @function
_ZN5boost16exception_detail10clone_implINS0_39current_exception_std_exception_wrapperISt12length_errorEEED1Ev:
.LFB12713:
	.cfi_startproc
	movq	$_ZTVN5boost16exception_detail10clone_implINS0_39current_exception_std_exception_wrapperISt12length_errorEEEE+24, (%rdi)
	movq	$_ZTVN5boost16exception_detail10clone_implINS0_39current_exception_std_exception_wrapperISt12length_errorEEEE+80, 16(%rdi)
	movq	$_ZTVN5boost16exception_detail10clone_implINS0_39current_exception_std_exception_wrapperISt12length_errorEEEE+136, 56(%rdi)
	jmp	_ZN5boost16exception_detail39current_exception_std_exception_wrapperISt12length_errorED2Ev
	.cfi_endproc
.LFE12713:
	.size	_ZN5boost16exception_detail10clone_implINS0_39current_exception_std_exception_wrapperISt12length_errorEEED1Ev, .-_ZN5boost16exception_detail10clone_implINS0_39current_exception_std_exception_wrapperISt12length_errorEEED1Ev
	.section	.text._ZN5boost16exception_detail10clone_implINS0_39current_exception_std_exception_wrapperISt12length_errorEEED0Ev,"axG",@progbits,_ZN5boost16exception_detail10clone_implINS0_39current_exception_std_exception_wrapperISt12length_errorEEED0Ev,comdat
	.align 2
	.p2align 4,,15
	.weak	_ZN5boost16exception_detail10clone_implINS0_39current_exception_std_exception_wrapperISt12length_errorEEED0Ev
	.type	_ZN5boost16exception_detail10clone_implINS0_39current_exception_std_exception_wrapperISt12length_errorEEED0Ev, @function
_ZN5boost16exception_detail10clone_implINS0_39current_exception_std_exception_wrapperISt12length_errorEEED0Ev:
.LFB12714:
	.cfi_startproc
	pushq	%rbx
	.cfi_def_cfa_offset 16
	.cfi_offset 3, -16
	movq	%rdi, %rbx
	movq	$_ZTVN5boost16exception_detail10clone_implINS0_39current_exception_std_exception_wrapperISt12length_errorEEEE+24, (%rdi)
	movq	$_ZTVN5boost16exception_detail10clone_implINS0_39current_exception_std_exception_wrapperISt12length_errorEEEE+80, 16(%rdi)
	movq	$_ZTVN5boost16exception_detail10clone_implINS0_39current_exception_std_exception_wrapperISt12length_errorEEEE+136, 56(%rdi)
	call	_ZN5boost16exception_detail39current_exception_std_exception_wrapperISt12length_errorED2Ev
	movq	%rbx, %rdi
	movl	$64, %esi
	popq	%rbx
	.cfi_def_cfa_offset 8
	jmp	_ZdlPvm
	.cfi_endproc
.LFE12714:
	.size	_ZN5boost16exception_detail10clone_implINS0_39current_exception_std_exception_wrapperISt12length_errorEEED0Ev, .-_ZN5boost16exception_detail10clone_implINS0_39current_exception_std_exception_wrapperISt12length_errorEEED0Ev
	.section	.text._ZN5boost16exception_detail39current_exception_std_exception_wrapperISt16invalid_argumentED2Ev,"axG",@progbits,_ZN5boost16exception_detail39current_exception_std_exception_wrapperISt16invalid_argumentED5Ev,comdat
	.align 2
	.p2align 4,,15
	.weak	_ZN5boost16exception_detail39current_exception_std_exception_wrapperISt16invalid_argumentED2Ev
	.type	_ZN5boost16exception_detail39current_exception_std_exception_wrapperISt16invalid_argumentED2Ev, @function
_ZN5boost16exception_detail39current_exception_std_exception_wrapperISt16invalid_argumentED2Ev:
.LFB11963:
	.cfi_startproc
	.cfi_personality 0x3,__gxx_personality_v0
	.cfi_lsda 0x3,.LLSDA11963
	pushq	%rbx
	.cfi_def_cfa_offset 16
	.cfi_offset 3, -16
	movq	%rdi, %rbx
	movq	$_ZTVN5boost16exception_detail39current_exception_std_exception_wrapperISt16invalid_argumentEE+16, (%rdi)
	movq	$_ZTVN5boost9exceptionE+16, 16(%rdi)
	movq	24(%rdi), %rdi
	testq	%rdi, %rdi
	je	.L366
	movq	(%rdi), %rax
	call	*32(%rax)
.L366:
	movq	%rbx, %rdi
	popq	%rbx
	.cfi_def_cfa_offset 8
	jmp	_ZNSt16invalid_argumentD2Ev
	.cfi_endproc
.LFE11963:
	.section	.gcc_except_table._ZN5boost16exception_detail39current_exception_std_exception_wrapperISt16invalid_argumentED2Ev,"aG",@progbits,_ZN5boost16exception_detail39current_exception_std_exception_wrapperISt16invalid_argumentED5Ev,comdat
.LLSDA11963:
	.byte	0xff
	.byte	0xff
	.byte	0x1
	.uleb128 .LLSDACSE11963-.LLSDACSB11963
.LLSDACSB11963:
.LLSDACSE11963:
	.section	.text._ZN5boost16exception_detail39current_exception_std_exception_wrapperISt16invalid_argumentED2Ev,"axG",@progbits,_ZN5boost16exception_detail39current_exception_std_exception_wrapperISt16invalid_argumentED5Ev,comdat
	.size	_ZN5boost16exception_detail39current_exception_std_exception_wrapperISt16invalid_argumentED2Ev, .-_ZN5boost16exception_detail39current_exception_std_exception_wrapperISt16invalid_argumentED2Ev
	.weak	_ZN5boost16exception_detail39current_exception_std_exception_wrapperISt16invalid_argumentED1Ev
	.set	_ZN5boost16exception_detail39current_exception_std_exception_wrapperISt16invalid_argumentED1Ev,_ZN5boost16exception_detail39current_exception_std_exception_wrapperISt16invalid_argumentED2Ev
	.set	.LTHUNK62,_ZN5boost16exception_detail39current_exception_std_exception_wrapperISt16invalid_argumentED1Ev
	.p2align 4,,15
	.weak	_ZThn16_N5boost16exception_detail39current_exception_std_exception_wrapperISt16invalid_argumentED1Ev
	.type	_ZThn16_N5boost16exception_detail39current_exception_std_exception_wrapperISt16invalid_argumentED1Ev, @function
_ZThn16_N5boost16exception_detail39current_exception_std_exception_wrapperISt16invalid_argumentED1Ev:
.LFB15367:
	.cfi_startproc
	subq	$16, %rdi
	jmp	.LTHUNK62
	.cfi_endproc
.LFE15367:
	.size	_ZThn16_N5boost16exception_detail39current_exception_std_exception_wrapperISt16invalid_argumentED1Ev, .-_ZThn16_N5boost16exception_detail39current_exception_std_exception_wrapperISt16invalid_argumentED1Ev
	.section	.text._ZN5boost16exception_detail39current_exception_std_exception_wrapperISt16invalid_argumentED0Ev,"axG",@progbits,_ZN5boost16exception_detail39current_exception_std_exception_wrapperISt16invalid_argumentED5Ev,comdat
	.align 2
	.p2align 4,,15
	.weak	_ZN5boost16exception_detail39current_exception_std_exception_wrapperISt16invalid_argumentED0Ev
	.type	_ZN5boost16exception_detail39current_exception_std_exception_wrapperISt16invalid_argumentED0Ev, @function
_ZN5boost16exception_detail39current_exception_std_exception_wrapperISt16invalid_argumentED0Ev:
.LFB11965:
	.cfi_startproc
	pushq	%rbx
	.cfi_def_cfa_offset 16
	.cfi_offset 3, -16
	movq	%rdi, %rbx
	call	_ZN5boost16exception_detail39current_exception_std_exception_wrapperISt16invalid_argumentED1Ev
	movq	%rbx, %rdi
	movl	$56, %esi
	popq	%rbx
	.cfi_def_cfa_offset 8
	jmp	_ZdlPvm
	.cfi_endproc
.LFE11965:
	.size	_ZN5boost16exception_detail39current_exception_std_exception_wrapperISt16invalid_argumentED0Ev, .-_ZN5boost16exception_detail39current_exception_std_exception_wrapperISt16invalid_argumentED0Ev
	.section	.text._ZN5boost16exception_detail10clone_implINS0_39current_exception_std_exception_wrapperISt16invalid_argumentEEED1Ev,"axG",@progbits,_ZN5boost16exception_detail10clone_implINS0_39current_exception_std_exception_wrapperISt16invalid_argumentEEED1Ev,comdat
	.align 2
	.p2align 4,,15
	.weak	_ZN5boost16exception_detail10clone_implINS0_39current_exception_std_exception_wrapperISt16invalid_argumentEEED1Ev
	.type	_ZN5boost16exception_detail10clone_implINS0_39current_exception_std_exception_wrapperISt16invalid_argumentEEED1Ev, @function
_ZN5boost16exception_detail10clone_implINS0_39current_exception_std_exception_wrapperISt16invalid_argumentEEED1Ev:
.LFB12707:
	.cfi_startproc
	movq	$_ZTVN5boost16exception_detail10clone_implINS0_39current_exception_std_exception_wrapperISt16invalid_argumentEEEE+24, (%rdi)
	movq	$_ZTVN5boost16exception_detail10clone_implINS0_39current_exception_std_exception_wrapperISt16invalid_argumentEEEE+80, 16(%rdi)
	movq	$_ZTVN5boost16exception_detail10clone_implINS0_39current_exception_std_exception_wrapperISt16invalid_argumentEEEE+136, 56(%rdi)
	jmp	_ZN5boost16exception_detail39current_exception_std_exception_wrapperISt16invalid_argumentED2Ev
	.cfi_endproc
.LFE12707:
	.size	_ZN5boost16exception_detail10clone_implINS0_39current_exception_std_exception_wrapperISt16invalid_argumentEEED1Ev, .-_ZN5boost16exception_detail10clone_implINS0_39current_exception_std_exception_wrapperISt16invalid_argumentEEED1Ev
	.section	.text._ZN5boost16exception_detail10clone_implINS0_39current_exception_std_exception_wrapperISt16invalid_argumentEEED0Ev,"axG",@progbits,_ZN5boost16exception_detail10clone_implINS0_39current_exception_std_exception_wrapperISt16invalid_argumentEEED0Ev,comdat
	.align 2
	.p2align 4,,15
	.weak	_ZN5boost16exception_detail10clone_implINS0_39current_exception_std_exception_wrapperISt16invalid_argumentEEED0Ev
	.type	_ZN5boost16exception_detail10clone_implINS0_39current_exception_std_exception_wrapperISt16invalid_argumentEEED0Ev, @function
_ZN5boost16exception_detail10clone_implINS0_39current_exception_std_exception_wrapperISt16invalid_argumentEEED0Ev:
.LFB12708:
	.cfi_startproc
	pushq	%rbx
	.cfi_def_cfa_offset 16
	.cfi_offset 3, -16
	movq	%rdi, %rbx
	movq	$_ZTVN5boost16exception_detail10clone_implINS0_39current_exception_std_exception_wrapperISt16invalid_argumentEEEE+24, (%rdi)
	movq	$_ZTVN5boost16exception_detail10clone_implINS0_39current_exception_std_exception_wrapperISt16invalid_argumentEEEE+80, 16(%rdi)
	movq	$_ZTVN5boost16exception_detail10clone_implINS0_39current_exception_std_exception_wrapperISt16invalid_argumentEEEE+136, 56(%rdi)
	call	_ZN5boost16exception_detail39current_exception_std_exception_wrapperISt16invalid_argumentED2Ev
	movq	%rbx, %rdi
	movl	$64, %esi
	popq	%rbx
	.cfi_def_cfa_offset 8
	jmp	_ZdlPvm
	.cfi_endproc
.LFE12708:
	.size	_ZN5boost16exception_detail10clone_implINS0_39current_exception_std_exception_wrapperISt16invalid_argumentEEED0Ev, .-_ZN5boost16exception_detail10clone_implINS0_39current_exception_std_exception_wrapperISt16invalid_argumentEEED0Ev
	.section	.text._ZN5boost16exception_detail39current_exception_std_exception_wrapperISt12domain_errorED2Ev,"axG",@progbits,_ZN5boost16exception_detail39current_exception_std_exception_wrapperISt12domain_errorED5Ev,comdat
	.align 2
	.p2align 4,,15
	.weak	_ZN5boost16exception_detail39current_exception_std_exception_wrapperISt12domain_errorED2Ev
	.type	_ZN5boost16exception_detail39current_exception_std_exception_wrapperISt12domain_errorED2Ev, @function
_ZN5boost16exception_detail39current_exception_std_exception_wrapperISt12domain_errorED2Ev:
.LFB11948:
	.cfi_startproc
	.cfi_personality 0x3,__gxx_personality_v0
	.cfi_lsda 0x3,.LLSDA11948
	pushq	%rbx
	.cfi_def_cfa_offset 16
	.cfi_offset 3, -16
	movq	%rdi, %rbx
	movq	$_ZTVN5boost16exception_detail39current_exception_std_exception_wrapperISt12domain_errorEE+16, (%rdi)
	movq	$_ZTVN5boost9exceptionE+16, 16(%rdi)
	movq	24(%rdi), %rdi
	testq	%rdi, %rdi
	je	.L377
	movq	(%rdi), %rax
	call	*32(%rax)
.L377:
	movq	%rbx, %rdi
	popq	%rbx
	.cfi_def_cfa_offset 8
	jmp	_ZNSt12domain_errorD2Ev
	.cfi_endproc
.LFE11948:
	.section	.gcc_except_table._ZN5boost16exception_detail39current_exception_std_exception_wrapperISt12domain_errorED2Ev,"aG",@progbits,_ZN5boost16exception_detail39current_exception_std_exception_wrapperISt12domain_errorED5Ev,comdat
.LLSDA11948:
	.byte	0xff
	.byte	0xff
	.byte	0x1
	.uleb128 .LLSDACSE11948-.LLSDACSB11948
.LLSDACSB11948:
.LLSDACSE11948:
	.section	.text._ZN5boost16exception_detail39current_exception_std_exception_wrapperISt12domain_errorED2Ev,"axG",@progbits,_ZN5boost16exception_detail39current_exception_std_exception_wrapperISt12domain_errorED5Ev,comdat
	.size	_ZN5boost16exception_detail39current_exception_std_exception_wrapperISt12domain_errorED2Ev, .-_ZN5boost16exception_detail39current_exception_std_exception_wrapperISt12domain_errorED2Ev
	.weak	_ZN5boost16exception_detail39current_exception_std_exception_wrapperISt12domain_errorED1Ev
	.set	_ZN5boost16exception_detail39current_exception_std_exception_wrapperISt12domain_errorED1Ev,_ZN5boost16exception_detail39current_exception_std_exception_wrapperISt12domain_errorED2Ev
	.set	.LTHUNK60,_ZN5boost16exception_detail39current_exception_std_exception_wrapperISt12domain_errorED1Ev
	.p2align 4,,15
	.weak	_ZThn16_N5boost16exception_detail39current_exception_std_exception_wrapperISt12domain_errorED1Ev
	.type	_ZThn16_N5boost16exception_detail39current_exception_std_exception_wrapperISt12domain_errorED1Ev, @function
_ZThn16_N5boost16exception_detail39current_exception_std_exception_wrapperISt12domain_errorED1Ev:
.LFB15371:
	.cfi_startproc
	subq	$16, %rdi
	jmp	.LTHUNK60
	.cfi_endproc
.LFE15371:
	.size	_ZThn16_N5boost16exception_detail39current_exception_std_exception_wrapperISt12domain_errorED1Ev, .-_ZThn16_N5boost16exception_detail39current_exception_std_exception_wrapperISt12domain_errorED1Ev
	.section	.text._ZN5boost16exception_detail39current_exception_std_exception_wrapperISt12domain_errorED0Ev,"axG",@progbits,_ZN5boost16exception_detail39current_exception_std_exception_wrapperISt12domain_errorED5Ev,comdat
	.align 2
	.p2align 4,,15
	.weak	_ZN5boost16exception_detail39current_exception_std_exception_wrapperISt12domain_errorED0Ev
	.type	_ZN5boost16exception_detail39current_exception_std_exception_wrapperISt12domain_errorED0Ev, @function
_ZN5boost16exception_detail39current_exception_std_exception_wrapperISt12domain_errorED0Ev:
.LFB11950:
	.cfi_startproc
	pushq	%rbx
	.cfi_def_cfa_offset 16
	.cfi_offset 3, -16
	movq	%rdi, %rbx
	call	_ZN5boost16exception_detail39current_exception_std_exception_wrapperISt12domain_errorED1Ev
	movq	%rbx, %rdi
	movl	$56, %esi
	popq	%rbx
	.cfi_def_cfa_offset 8
	jmp	_ZdlPvm
	.cfi_endproc
.LFE11950:
	.size	_ZN5boost16exception_detail39current_exception_std_exception_wrapperISt12domain_errorED0Ev, .-_ZN5boost16exception_detail39current_exception_std_exception_wrapperISt12domain_errorED0Ev
	.section	.text._ZN5boost16exception_detail10clone_implINS0_39current_exception_std_exception_wrapperISt12domain_errorEEED1Ev,"axG",@progbits,_ZN5boost16exception_detail10clone_implINS0_39current_exception_std_exception_wrapperISt12domain_errorEEED1Ev,comdat
	.align 2
	.p2align 4,,15
	.weak	_ZN5boost16exception_detail10clone_implINS0_39current_exception_std_exception_wrapperISt12domain_errorEEED1Ev
	.type	_ZN5boost16exception_detail10clone_implINS0_39current_exception_std_exception_wrapperISt12domain_errorEEED1Ev, @function
_ZN5boost16exception_detail10clone_implINS0_39current_exception_std_exception_wrapperISt12domain_errorEEED1Ev:
.LFB12701:
	.cfi_startproc
	movq	$_ZTVN5boost16exception_detail10clone_implINS0_39current_exception_std_exception_wrapperISt12domain_errorEEEE+24, (%rdi)
	movq	$_ZTVN5boost16exception_detail10clone_implINS0_39current_exception_std_exception_wrapperISt12domain_errorEEEE+80, 16(%rdi)
	movq	$_ZTVN5boost16exception_detail10clone_implINS0_39current_exception_std_exception_wrapperISt12domain_errorEEEE+136, 56(%rdi)
	jmp	_ZN5boost16exception_detail39current_exception_std_exception_wrapperISt12domain_errorED2Ev
	.cfi_endproc
.LFE12701:
	.size	_ZN5boost16exception_detail10clone_implINS0_39current_exception_std_exception_wrapperISt12domain_errorEEED1Ev, .-_ZN5boost16exception_detail10clone_implINS0_39current_exception_std_exception_wrapperISt12domain_errorEEED1Ev
	.section	.text._ZN5boost16exception_detail10clone_implINS0_39current_exception_std_exception_wrapperISt12domain_errorEEED0Ev,"axG",@progbits,_ZN5boost16exception_detail10clone_implINS0_39current_exception_std_exception_wrapperISt12domain_errorEEED0Ev,comdat
	.align 2
	.p2align 4,,15
	.weak	_ZN5boost16exception_detail10clone_implINS0_39current_exception_std_exception_wrapperISt12domain_errorEEED0Ev
	.type	_ZN5boost16exception_detail10clone_implINS0_39current_exception_std_exception_wrapperISt12domain_errorEEED0Ev, @function
_ZN5boost16exception_detail10clone_implINS0_39current_exception_std_exception_wrapperISt12domain_errorEEED0Ev:
.LFB12702:
	.cfi_startproc
	pushq	%rbx
	.cfi_def_cfa_offset 16
	.cfi_offset 3, -16
	movq	%rdi, %rbx
	movq	$_ZTVN5boost16exception_detail10clone_implINS0_39current_exception_std_exception_wrapperISt12domain_errorEEEE+24, (%rdi)
	movq	$_ZTVN5boost16exception_detail10clone_implINS0_39current_exception_std_exception_wrapperISt12domain_errorEEEE+80, 16(%rdi)
	movq	$_ZTVN5boost16exception_detail10clone_implINS0_39current_exception_std_exception_wrapperISt12domain_errorEEEE+136, 56(%rdi)
	call	_ZN5boost16exception_detail39current_exception_std_exception_wrapperISt12domain_errorED2Ev
	movq	%rbx, %rdi
	movl	$64, %esi
	popq	%rbx
	.cfi_def_cfa_offset 8
	jmp	_ZdlPvm
	.cfi_endproc
.LFE12702:
	.size	_ZN5boost16exception_detail10clone_implINS0_39current_exception_std_exception_wrapperISt12domain_errorEEED0Ev, .-_ZN5boost16exception_detail10clone_implINS0_39current_exception_std_exception_wrapperISt12domain_errorEEED0Ev
	.section	.text._ZN5boost12bad_weak_ptrD2Ev,"axG",@progbits,_ZN5boost12bad_weak_ptrD5Ev,comdat
	.align 2
	.p2align 4,,15
	.weak	_ZN5boost12bad_weak_ptrD2Ev
	.type	_ZN5boost12bad_weak_ptrD2Ev, @function
_ZN5boost12bad_weak_ptrD2Ev:
.LFB11581:
	.cfi_startproc
	movq	$_ZTVN5boost12bad_weak_ptrE+16, (%rdi)
	jmp	_ZNSt9exceptionD2Ev
	.cfi_endproc
.LFE11581:
	.size	_ZN5boost12bad_weak_ptrD2Ev, .-_ZN5boost12bad_weak_ptrD2Ev
	.weak	_ZN5boost12bad_weak_ptrD1Ev
	.set	_ZN5boost12bad_weak_ptrD1Ev,_ZN5boost12bad_weak_ptrD2Ev
	.section	.text._ZN5boost12bad_weak_ptrD0Ev,"axG",@progbits,_ZN5boost12bad_weak_ptrD5Ev,comdat
	.align 2
	.p2align 4,,15
	.weak	_ZN5boost12bad_weak_ptrD0Ev
	.type	_ZN5boost12bad_weak_ptrD0Ev, @function
_ZN5boost12bad_weak_ptrD0Ev:
.LFB11583:
	.cfi_startproc
	pushq	%rbx
	.cfi_def_cfa_offset 16
	.cfi_offset 3, -16
	movq	%rdi, %rbx
	movq	$_ZTVN5boost12bad_weak_ptrE+16, (%rdi)
	call	_ZNSt9exceptionD2Ev
	movq	%rbx, %rdi
	movl	$8, %esi
	popq	%rbx
	.cfi_def_cfa_offset 8
	jmp	_ZdlPvm
	.cfi_endproc
.LFE11583:
	.size	_ZN5boost12bad_weak_ptrD0Ev, .-_ZN5boost12bad_weak_ptrD0Ev
	.section	.text._ZN5boost17unknown_exceptionD2Ev,"axG",@progbits,_ZN5boost17unknown_exceptionD5Ev,comdat
	.align 2
	.p2align 4,,15
	.weak	_ZN5boost17unknown_exceptionD2Ev
	.type	_ZN5boost17unknown_exceptionD2Ev, @function
_ZN5boost17unknown_exceptionD2Ev:
.LFB6989:
	.cfi_startproc
	.cfi_personality 0x3,__gxx_personality_v0
	.cfi_lsda 0x3,.LLSDA6989
	pushq	%rbx
	.cfi_def_cfa_offset 16
	.cfi_offset 3, -16
	movq	$_ZTVN5boost17unknown_exceptionE+16, (%rdi)
	movq	%rdi, %rbx
	movq	$_ZTVN5boost17unknown_exceptionE+48, 40(%rdi)
	addq	$40, %rdi
	call	_ZNSt9exceptionD2Ev
	movq	8(%rbx), %rdi
	movq	$_ZTVN5boost9exceptionE+16, (%rbx)
	testq	%rdi, %rdi
	je	.L390
	movq	(%rdi), %rax
	popq	%rbx
	.cfi_remember_state
	.cfi_def_cfa_offset 8
	movq	32(%rax), %rax
	jmp	*%rax
	.p2align 4,,10
	.p2align 3
.L390:
	.cfi_restore_state
	popq	%rbx
	.cfi_def_cfa_offset 8
	ret
	.cfi_endproc
.LFE6989:
	.section	.gcc_except_table._ZN5boost17unknown_exceptionD2Ev,"aG",@progbits,_ZN5boost17unknown_exceptionD5Ev,comdat
.LLSDA6989:
	.byte	0xff
	.byte	0xff
	.byte	0x1
	.uleb128 .LLSDACSE6989-.LLSDACSB6989
.LLSDACSB6989:
.LLSDACSE6989:
	.section	.text._ZN5boost17unknown_exceptionD2Ev,"axG",@progbits,_ZN5boost17unknown_exceptionD5Ev,comdat
	.size	_ZN5boost17unknown_exceptionD2Ev, .-_ZN5boost17unknown_exceptionD2Ev
	.set	.LTHUNK4,_ZN5boost17unknown_exceptionD2Ev
	.p2align 4,,15
	.weak	_ZThn40_N5boost17unknown_exceptionD1Ev
	.type	_ZThn40_N5boost17unknown_exceptionD1Ev, @function
_ZThn40_N5boost17unknown_exceptionD1Ev:
.LFB15375:
	.cfi_startproc
	subq	$40, %rdi
	jmp	.LTHUNK4
	.cfi_endproc
.LFE15375:
	.size	_ZThn40_N5boost17unknown_exceptionD1Ev, .-_ZThn40_N5boost17unknown_exceptionD1Ev
	.weak	_ZN5boost17unknown_exceptionD1Ev
	.set	_ZN5boost17unknown_exceptionD1Ev,_ZN5boost17unknown_exceptionD2Ev
	.section	.text._ZN5boost17unknown_exceptionD0Ev,"axG",@progbits,_ZN5boost17unknown_exceptionD5Ev,comdat
	.align 2
	.p2align 4,,15
	.weak	_ZN5boost17unknown_exceptionD0Ev
	.type	_ZN5boost17unknown_exceptionD0Ev, @function
_ZN5boost17unknown_exceptionD0Ev:
.LFB6991:
	.cfi_startproc
	pushq	%rbx
	.cfi_def_cfa_offset 16
	.cfi_offset 3, -16
	movq	%rdi, %rbx
	call	_ZN5boost17unknown_exceptionD1Ev
	movq	%rbx, %rdi
	movl	$48, %esi
	popq	%rbx
	.cfi_def_cfa_offset 8
	jmp	_ZdlPvm
	.cfi_endproc
.LFE6991:
	.size	_ZN5boost17unknown_exceptionD0Ev, .-_ZN5boost17unknown_exceptionD0Ev
	.section	.text._ZN5boost16exception_detail10clone_implINS_17unknown_exceptionEED1Ev,"axG",@progbits,_ZN5boost16exception_detail10clone_implINS_17unknown_exceptionEED1Ev,comdat
	.align 2
	.p2align 4,,15
	.weak	_ZN5boost16exception_detail10clone_implINS_17unknown_exceptionEED1Ev
	.type	_ZN5boost16exception_detail10clone_implINS_17unknown_exceptionEED1Ev, @function
_ZN5boost16exception_detail10clone_implINS_17unknown_exceptionEED1Ev:
.LFB11905:
	.cfi_startproc
	movq	$_ZTVN5boost16exception_detail10clone_implINS_17unknown_exceptionEEE+24, (%rdi)
	movq	$_ZTVN5boost16exception_detail10clone_implINS_17unknown_exceptionEEE+72, 40(%rdi)
	movq	$_ZTVN5boost16exception_detail10clone_implINS_17unknown_exceptionEEE+136, 48(%rdi)
	jmp	_ZN5boost17unknown_exceptionD2Ev
	.cfi_endproc
.LFE11905:
	.size	_ZN5boost16exception_detail10clone_implINS_17unknown_exceptionEED1Ev, .-_ZN5boost16exception_detail10clone_implINS_17unknown_exceptionEED1Ev
	.section	.text._ZN5boost16exception_detail10clone_implINS_17unknown_exceptionEED0Ev,"axG",@progbits,_ZN5boost16exception_detail10clone_implINS_17unknown_exceptionEED0Ev,comdat
	.align 2
	.p2align 4,,15
	.weak	_ZN5boost16exception_detail10clone_implINS_17unknown_exceptionEED0Ev
	.type	_ZN5boost16exception_detail10clone_implINS_17unknown_exceptionEED0Ev, @function
_ZN5boost16exception_detail10clone_implINS_17unknown_exceptionEED0Ev:
.LFB11906:
	.cfi_startproc
	pushq	%rbx
	.cfi_def_cfa_offset 16
	.cfi_offset 3, -16
	movq	%rdi, %rbx
	movq	$_ZTVN5boost16exception_detail10clone_implINS_17unknown_exceptionEEE+24, (%rdi)
	movq	$_ZTVN5boost16exception_detail10clone_implINS_17unknown_exceptionEEE+72, 40(%rdi)
	movq	$_ZTVN5boost16exception_detail10clone_implINS_17unknown_exceptionEEE+136, 48(%rdi)
	call	_ZN5boost17unknown_exceptionD2Ev
	movq	%rbx, %rdi
	movl	$56, %esi
	popq	%rbx
	.cfi_def_cfa_offset 8
	jmp	_ZdlPvm
	.cfi_endproc
.LFE11906:
	.size	_ZN5boost16exception_detail10clone_implINS_17unknown_exceptionEED0Ev, .-_ZN5boost16exception_detail10clone_implINS_17unknown_exceptionEED0Ev
	.section	.text._ZN5boost16exception_detail19error_info_injectorINS_12bad_weak_ptrEED2Ev,"axG",@progbits,_ZN5boost16exception_detail19error_info_injectorINS_12bad_weak_ptrEED5Ev,comdat
	.align 2
	.p2align 4,,15
	.weak	_ZN5boost16exception_detail19error_info_injectorINS_12bad_weak_ptrEED2Ev
	.type	_ZN5boost16exception_detail19error_info_injectorINS_12bad_weak_ptrEED2Ev, @function
_ZN5boost16exception_detail19error_info_injectorINS_12bad_weak_ptrEED2Ev:
.LFB11584:
	.cfi_startproc
	.cfi_personality 0x3,__gxx_personality_v0
	.cfi_lsda 0x3,.LLSDA11584
	pushq	%rbx
	.cfi_def_cfa_offset 16
	.cfi_offset 3, -16
	movq	%rdi, %rbx
	movq	$_ZTVN5boost16exception_detail19error_info_injectorINS_12bad_weak_ptrEEE+16, (%rdi)
	movq	$_ZTVN5boost9exceptionE+16, 8(%rdi)
	movq	16(%rdi), %rdi
	testq	%rdi, %rdi
	je	.L399
	movq	(%rdi), %rax
	call	*32(%rax)
.L399:
	movq	$_ZTVN5boost12bad_weak_ptrE+16, (%rbx)
	movq	%rbx, %rdi
	popq	%rbx
	.cfi_def_cfa_offset 8
	jmp	_ZNSt9exceptionD2Ev
	.cfi_endproc
.LFE11584:
	.section	.gcc_except_table._ZN5boost16exception_detail19error_info_injectorINS_12bad_weak_ptrEED2Ev,"aG",@progbits,_ZN5boost16exception_detail19error_info_injectorINS_12bad_weak_ptrEED5Ev,comdat
.LLSDA11584:
	.byte	0xff
	.byte	0xff
	.byte	0x1
	.uleb128 .LLSDACSE11584-.LLSDACSB11584
.LLSDACSB11584:
.LLSDACSE11584:
	.section	.text._ZN5boost16exception_detail19error_info_injectorINS_12bad_weak_ptrEED2Ev,"axG",@progbits,_ZN5boost16exception_detail19error_info_injectorINS_12bad_weak_ptrEED5Ev,comdat
	.size	_ZN5boost16exception_detail19error_info_injectorINS_12bad_weak_ptrEED2Ev, .-_ZN5boost16exception_detail19error_info_injectorINS_12bad_weak_ptrEED2Ev
	.weak	_ZN5boost16exception_detail19error_info_injectorINS_12bad_weak_ptrEED1Ev
	.set	_ZN5boost16exception_detail19error_info_injectorINS_12bad_weak_ptrEED1Ev,_ZN5boost16exception_detail19error_info_injectorINS_12bad_weak_ptrEED2Ev
	.set	.LTHUNK12,_ZN5boost16exception_detail19error_info_injectorINS_12bad_weak_ptrEED1Ev
	.p2align 4,,15
	.weak	_ZThn8_N5boost16exception_detail19error_info_injectorINS_12bad_weak_ptrEED1Ev
	.type	_ZThn8_N5boost16exception_detail19error_info_injectorINS_12bad_weak_ptrEED1Ev, @function
_ZThn8_N5boost16exception_detail19error_info_injectorINS_12bad_weak_ptrEED1Ev:
.LFB15379:
	.cfi_startproc
	subq	$8, %rdi
	jmp	.LTHUNK12
	.cfi_endproc
.LFE15379:
	.size	_ZThn8_N5boost16exception_detail19error_info_injectorINS_12bad_weak_ptrEED1Ev, .-_ZThn8_N5boost16exception_detail19error_info_injectorINS_12bad_weak_ptrEED1Ev
	.section	.text._ZN5boost16exception_detail19error_info_injectorINS_12bad_weak_ptrEED0Ev,"axG",@progbits,_ZN5boost16exception_detail19error_info_injectorINS_12bad_weak_ptrEED5Ev,comdat
	.align 2
	.p2align 4,,15
	.weak	_ZN5boost16exception_detail19error_info_injectorINS_12bad_weak_ptrEED0Ev
	.type	_ZN5boost16exception_detail19error_info_injectorINS_12bad_weak_ptrEED0Ev, @function
_ZN5boost16exception_detail19error_info_injectorINS_12bad_weak_ptrEED0Ev:
.LFB11586:
	.cfi_startproc
	pushq	%rbx
	.cfi_def_cfa_offset 16
	.cfi_offset 3, -16
	movq	%rdi, %rbx
	call	_ZN5boost16exception_detail19error_info_injectorINS_12bad_weak_ptrEED1Ev
	movq	%rbx, %rdi
	movl	$48, %esi
	popq	%rbx
	.cfi_def_cfa_offset 8
	jmp	_ZdlPvm
	.cfi_endproc
.LFE11586:
	.size	_ZN5boost16exception_detail19error_info_injectorINS_12bad_weak_ptrEED0Ev, .-_ZN5boost16exception_detail19error_info_injectorINS_12bad_weak_ptrEED0Ev
	.section	.text._ZN5boost16exception_detail10clone_implINS0_19error_info_injectorINS_12bad_weak_ptrEEEED1Ev,"axG",@progbits,_ZN5boost16exception_detail10clone_implINS0_19error_info_injectorINS_12bad_weak_ptrEEEED1Ev,comdat
	.align 2
	.p2align 4,,15
	.weak	_ZN5boost16exception_detail10clone_implINS0_19error_info_injectorINS_12bad_weak_ptrEEEED1Ev
	.type	_ZN5boost16exception_detail10clone_implINS0_19error_info_injectorINS_12bad_weak_ptrEEEED1Ev, @function
_ZN5boost16exception_detail10clone_implINS0_19error_info_injectorINS_12bad_weak_ptrEEEED1Ev:
.LFB11590:
	.cfi_startproc
	movq	$_ZTVN5boost16exception_detail10clone_implINS0_19error_info_injectorINS_12bad_weak_ptrEEEEE+24, (%rdi)
	movq	$_ZTVN5boost16exception_detail10clone_implINS0_19error_info_injectorINS_12bad_weak_ptrEEEEE+80, 8(%rdi)
	movq	$_ZTVN5boost16exception_detail10clone_implINS0_19error_info_injectorINS_12bad_weak_ptrEEEEE+136, 48(%rdi)
	jmp	_ZN5boost16exception_detail19error_info_injectorINS_12bad_weak_ptrEED2Ev
	.cfi_endproc
.LFE11590:
	.size	_ZN5boost16exception_detail10clone_implINS0_19error_info_injectorINS_12bad_weak_ptrEEEED1Ev, .-_ZN5boost16exception_detail10clone_implINS0_19error_info_injectorINS_12bad_weak_ptrEEEED1Ev
	.section	.text._ZN5boost16exception_detail10clone_implINS0_19error_info_injectorINS_12bad_weak_ptrEEEED0Ev,"axG",@progbits,_ZN5boost16exception_detail10clone_implINS0_19error_info_injectorINS_12bad_weak_ptrEEEED0Ev,comdat
	.align 2
	.p2align 4,,15
	.weak	_ZN5boost16exception_detail10clone_implINS0_19error_info_injectorINS_12bad_weak_ptrEEEED0Ev
	.type	_ZN5boost16exception_detail10clone_implINS0_19error_info_injectorINS_12bad_weak_ptrEEEED0Ev, @function
_ZN5boost16exception_detail10clone_implINS0_19error_info_injectorINS_12bad_weak_ptrEEEED0Ev:
.LFB11591:
	.cfi_startproc
	pushq	%rbx
	.cfi_def_cfa_offset 16
	.cfi_offset 3, -16
	movq	%rdi, %rbx
	movq	$_ZTVN5boost16exception_detail10clone_implINS0_19error_info_injectorINS_12bad_weak_ptrEEEEE+24, (%rdi)
	movq	$_ZTVN5boost16exception_detail10clone_implINS0_19error_info_injectorINS_12bad_weak_ptrEEEEE+80, 8(%rdi)
	movq	$_ZTVN5boost16exception_detail10clone_implINS0_19error_info_injectorINS_12bad_weak_ptrEEEEE+136, 48(%rdi)
	call	_ZN5boost16exception_detail19error_info_injectorINS_12bad_weak_ptrEED2Ev
	movq	%rbx, %rdi
	movl	$56, %esi
	popq	%rbx
	.cfi_def_cfa_offset 8
	jmp	_ZdlPvm
	.cfi_endproc
.LFE11591:
	.size	_ZN5boost16exception_detail10clone_implINS0_19error_info_injectorINS_12bad_weak_ptrEEEED0Ev, .-_ZN5boost16exception_detail10clone_implINS0_19error_info_injectorINS_12bad_weak_ptrEEEED0Ev
	.section	.rodata.str1.1,"aMS",@progbits,1
.LC1:
	.string	"basic_string::_M_create"
	.text
	.align 2
	.p2align 4,,15
	.type	_ZNSt7__cxx1112basic_stringIcSt11char_traitsIcESaIcEE9_M_createERmm.isra.137, @function
_ZNSt7__cxx1112basic_stringIcSt11char_traitsIcESaIcEE9_M_createERmm.isra.137:
.LFB14875:
	.cfi_startproc
	movq	(%rdi), %rax
	testq	%rax, %rax
	js	.L419
	cmpq	%rsi, %rax
	jbe	.L418
	addq	%rsi, %rsi
	cmpq	%rsi, %rax
	jnb	.L418
	testq	%rsi, %rsi
	js	.L414
	movq	%rsi, (%rdi)
	leaq	1(%rsi), %rdi
	jmp	_Znwm
	.p2align 4,,10
	.p2align 3
.L418:
	leaq	1(%rax), %rdi
	jmp	_Znwm
	.p2align 4,,10
	.p2align 3
.L414:
	movabsq	$9223372036854775807, %rax
	movq	%rax, (%rdi)
	movabsq	$-9223372036854775808, %rdi
	jmp	_Znwm
.L419:
	subq	$8, %rsp
	.cfi_def_cfa_offset 16
	movl	$.LC1, %edi
	call	_ZSt20__throw_length_errorPKc
	.cfi_endproc
.LFE14875:
	.size	_ZNSt7__cxx1112basic_stringIcSt11char_traitsIcESaIcEE9_M_createERmm.isra.137, .-_ZNSt7__cxx1112basic_stringIcSt11char_traitsIcESaIcEE9_M_createERmm.isra.137
	.section	.rodata.str1.8,"aMS",@progbits,1
	.align 8
.LC2:
	.string	"basic_string::_M_construct null not valid"
	.text
	.align 2
	.p2align 4,,15
	.type	_ZNSt7__cxx1112basic_stringIcSt11char_traitsIcESaIcEE12_M_constructIPcEEvT_S7_St20forward_iterator_tag.isra.138, @function
_ZNSt7__cxx1112basic_stringIcSt11char_traitsIcESaIcEE12_M_constructIPcEEvT_S7_St20forward_iterator_tag.isra.138:
.LFB14876:
	.cfi_startproc
	pushq	%r12
	.cfi_def_cfa_offset 16
	.cfi_offset 12, -16
	pushq	%rbp
	.cfi_def_cfa_offset 24
	.cfi_offset 6, -24
	movq	%rsi, %r12
	movq	%rdi, %rbp
	subq	$40, %rsp
	.cfi_def_cfa_offset 64
	testq	%rsi, %rsi
	jne	.L421
	testq	%rdx, %rdx
	jne	.L436
.L421:
	subq	%r12, %rdx
	cmpq	$15, %rdx
	movq	%rdx, 24(%rsp)
	ja	.L437
	cmpq	$1, %rdx
	movq	0(%rbp), %rax
	je	.L438
	testq	%rdx, %rdx
	jne	.L423
	movq	%rdx, 8(%rbp)
	movb	$0, (%rax,%rdx)
	addq	$40, %rsp
	.cfi_remember_state
	.cfi_def_cfa_offset 24
	popq	%rbp
	.cfi_def_cfa_offset 16
	popq	%r12
	.cfi_def_cfa_offset 8
	ret
	.p2align 4,,10
	.p2align 3
.L438:
	.cfi_restore_state
	movzbl	(%r12), %edx
	movb	%dl, (%rax)
	movq	24(%rsp), %rdx
	movq	0(%rbp), %rax
	movq	%rdx, 8(%rbp)
	movb	$0, (%rax,%rdx)
	addq	$40, %rsp
	.cfi_remember_state
	.cfi_def_cfa_offset 24
	popq	%rbp
