	.file	"4_continuations.cpp"
	.section	.rodata._ZNK5boost12bad_weak_ptr4whatEv.str1.1,"aMS",@progbits,1
.LC0:
	.string	"tr1::bad_weak_ptr"
	.section	.text._ZNK5boost12bad_weak_ptr4whatEv,"axG",@progbits,_ZNK5boost12bad_weak_ptr4whatEv,comdat
	.align 2
	.p2align 4,,15
	.weak	_ZNK5boost12bad_weak_ptr4whatEv
	.type	_ZNK5boost12bad_weak_ptr4whatEv, @function
_ZNK5boost12bad_weak_ptr4whatEv:
.LFB2243:
	.cfi_startproc
	movl	$.LC0, %eax
	ret
	.cfi_endproc
.LFE2243:
	.size	_ZNK5boost12bad_weak_ptr4whatEv, .-_ZNK5boost12bad_weak_ptr4whatEv
	.section	.text._ZN5boost6detail15sp_counted_base7destroyEv,"axG",@progbits,_ZN5boost6detail15sp_counted_base7destroyEv,comdat
	.align 2
	.p2align 4,,15
	.weak	_ZN5boost6detail15sp_counted_base7destroyEv
	.type	_ZN5boost6detail15sp_counted_base7destroyEv, @function
_ZN5boost6detail15sp_counted_base7destroyEv:
.LFB2527:
	.cfi_startproc
	movq	(%rdi), %rax
	jmp	*8(%rax)
	.cfi_endproc
.LFE2527:
	.size	_ZN5boost6detail15sp_counted_base7destroyEv, .-_ZN5boost6detail15sp_counted_base7destroyEv
	.section	.text._ZNK5boost16exception_detail25error_info_container_impl7add_refEv,"axG",@progbits,_ZNK5boost16exception_detail25error_info_container_impl7add_refEv,comdat
	.align 2
	.p2align 4,,15
	.weak	_ZNK5boost16exception_detail25error_info_container_impl7add_refEv
	.type	_ZNK5boost16exception_detail25error_info_container_impl7add_refEv, @function
_ZNK5boost16exception_detail25error_info_container_impl7add_refEv:
.LFB6925:
	.cfi_startproc
	addl	$1, 88(%rdi)
	ret
	.cfi_endproc
.LFE6925:
	.size	_ZNK5boost16exception_detail25error_info_container_impl7add_refEv, .-_ZNK5boost16exception_detail25error_info_container_impl7add_refEv
	.section	.text._ZN5boost6detail17shared_state_base19launch_continuationEv,"axG",@progbits,_ZN5boost6detail17shared_state_base19launch_continuationEv,comdat
	.align 2
	.p2align 4,,15
	.weak	_ZN5boost6detail17shared_state_base19launch_continuationEv
	.type	_ZN5boost6detail17shared_state_base19launch_continuationEv, @function
_ZN5boost6detail17shared_state_base19launch_continuationEv:
.LFB10219:
	.cfi_startproc
	rep ret
	.cfi_endproc
.LFE10219:
	.size	_ZN5boost6detail17shared_state_base19launch_continuationEv, .-_ZN5boost6detail17shared_state_base19launch_continuationEv
	.section	.text._ZN5boost6detail17shared_state_base7executeERNS_11unique_lockINS_5mutexEEE,"axG",@progbits,_ZN5boost6detail17shared_state_base7executeERNS_11unique_lockINS_5mutexEEE,comdat
	.align 2
	.p2align 4,,15
	.weak	_ZN5boost6detail17shared_state_base7executeERNS_11unique_lockINS_5mutexEEE
	.type	_ZN5boost6detail17shared_state_base7executeERNS_11unique_lockINS_5mutexEEE, @function
_ZN5boost6detail17shared_state_base7executeERNS_11unique_lockINS_5mutexEEE:
.LFB10280:
	.cfi_startproc
	rep ret
	.cfi_endproc
.LFE10280:
	.size	_ZN5boost6detail17shared_state_base7executeERNS_11unique_lockINS_5mutexEEE, .-_ZN5boost6detail17shared_state_base7executeERNS_11unique_lockINS_5mutexEEE
	.section	.text._ZNK5boost10shared_ptrIKNS_16exception_detail10clone_baseEE3getEv,"axG",@progbits,_ZNK5boost10shared_ptrIKNS_16exception_detail10clone_baseEE3getEv,comdat
	.align 2
	.p2align 4,,15
	.weak	_ZNK5boost10shared_ptrIKNS_16exception_detail10clone_baseEE3getEv
	.type	_ZNK5boost10shared_ptrIKNS_16exception_detail10clone_baseEE3getEv, @function
_ZNK5boost10shared_ptrIKNS_16exception_detail10clone_baseEE3getEv:
.LFB11228:
	.cfi_startproc
	movq	(%rdi), %rax
	ret
	.cfi_endproc
.LFE11228:
	.size	_ZNK5boost10shared_ptrIKNS_16exception_detail10clone_baseEE3getEv, .-_ZNK5boost10shared_ptrIKNS_16exception_detail10clone_baseEE3getEv
	.section	.text._ZN5boost10error_infoINS_27tag_original_exception_typeEPKSt9type_infoED2Ev,"axG",@progbits,_ZN5boost10error_infoINS_27tag_original_exception_typeEPKSt9type_infoED5Ev,comdat
	.align 2
	.p2align 4,,15
	.weak	_ZN5boost10error_infoINS_27tag_original_exception_typeEPKSt9type_infoED2Ev
	.type	_ZN5boost10error_infoINS_27tag_original_exception_typeEPKSt9type_infoED2Ev, @function
_ZN5boost10error_infoINS_27tag_original_exception_typeEPKSt9type_infoED2Ev:
.LFB11909:
	.cfi_startproc
	rep ret
	.cfi_endproc
.LFE11909:
	.size	_ZN5boost10error_infoINS_27tag_original_exception_typeEPKSt9type_infoED2Ev, .-_ZN5boost10error_infoINS_27tag_original_exception_typeEPKSt9type_infoED2Ev
	.weak	_ZN5boost10error_infoINS_27tag_original_exception_typeEPKSt9type_infoED1Ev
	.set	_ZN5boost10error_infoINS_27tag_original_exception_typeEPKSt9type_infoED1Ev,_ZN5boost10error_infoINS_27tag_original_exception_typeEPKSt9type_infoED2Ev
	.section	.text._ZN5boost9function0IvE5dummy7nonnullEv,"axG",@progbits,_ZN5boost9function0IvE5dummy7nonnullEv,comdat
	.align 2
	.p2align 4,,15
	.weak	_ZN5boost9function0IvE5dummy7nonnullEv
	.type	_ZN5boost9function0IvE5dummy7nonnullEv, @function
_ZN5boost9function0IvE5dummy7nonnullEv:
.LFB12238:
	.cfi_startproc
	rep ret
	.cfi_endproc
.LFE12238:
	.size	_ZN5boost9function0IvE5dummy7nonnullEv, .-_ZN5boost9function0IvE5dummy7nonnullEv
	.section	.text._ZN5boost6detail17sp_counted_impl_pINS0_11thread_dataINS_13packaged_taskIiEEEEED2Ev,"axG",@progbits,_ZN5boost6detail17sp_counted_impl_pINS0_11thread_dataINS_13packaged_taskIiEEEEED5Ev,comdat
	.align 2
	.p2align 4,,15
	.weak	_ZN5boost6detail17sp_counted_impl_pINS0_11thread_dataINS_13packaged_taskIiEEEEED2Ev
	.type	_ZN5boost6detail17sp_counted_impl_pINS0_11thread_dataINS_13packaged_taskIiEEEEED2Ev, @function
_ZN5boost6detail17sp_counted_impl_pINS0_11thread_dataINS_13packaged_taskIiEEEEED2Ev:
.LFB14216:
	.cfi_startproc
	rep ret
	.cfi_endproc
.LFE14216:
	.size	_ZN5boost6detail17sp_counted_impl_pINS0_11thread_dataINS_13packaged_taskIiEEEEED2Ev, .-_ZN5boost6detail17sp_counted_impl_pINS0_11thread_dataINS_13packaged_taskIiEEEEED2Ev
	.weak	_ZN5boost6detail17sp_counted_impl_pINS0_11thread_dataINS_13packaged_taskIiEEEEED1Ev
	.set	_ZN5boost6detail17sp_counted_impl_pINS0_11thread_dataINS_13packaged_taskIiEEEEED1Ev,_ZN5boost6detail17sp_counted_impl_pINS0_11thread_dataINS_13packaged_taskIiEEEEED2Ev
	.section	.text._ZN5boost6detail17sp_counted_impl_pINS_10error_infoINS_27tag_original_exception_typeEPKSt9type_infoEEED2Ev,"axG",@progbits,_ZN5boost6detail17sp_counted_impl_pINS_10error_infoINS_27tag_original_exception_typeEPKSt9type_infoEEED5Ev,comdat
	.align 2
	.p2align 4,,15
	.weak	_ZN5boost6detail17sp_counted_impl_pINS_10error_infoINS_27tag_original_exception_typeEPKSt9type_infoEEED2Ev
	.type	_ZN5boost6detail17sp_counted_impl_pINS_10error_infoINS_27tag_original_exception_typeEPKSt9type_infoEEED2Ev, @function
_ZN5boost6detail17sp_counted_impl_pINS_10error_infoINS_27tag_original_exception_typeEPKSt9type_infoEEED2Ev:
.LFB14220:
	.cfi_startproc
	rep ret
	.cfi_endproc
.LFE14220:
	.size	_ZN5boost6detail17sp_counted_impl_pINS_10error_infoINS_27tag_original_exception_typeEPKSt9type_infoEEED2Ev, .-_ZN5boost6detail17sp_counted_impl_pINS_10error_infoINS_27tag_original_exception_typeEPKSt9type_infoEEED2Ev
	.weak	_ZN5boost6detail17sp_counted_impl_pINS_10error_infoINS_27tag_original_exception_typeEPKSt9type_infoEEED1Ev
	.set	_ZN5boost6detail17sp_counted_impl_pINS_10error_infoINS_27tag_original_exception_typeEPKSt9type_infoEEED1Ev,_ZN5boost6detail17sp_counted_impl_pINS_10error_infoINS_27tag_original_exception_typeEPKSt9type_infoEEED2Ev
	.text
	.align 2
	.p2align 4,,15
	.type	_ZN5boost6detail17sp_counted_impl_pINS0_41future_deferred_continuation_shared_stateINS_6futureIiEEiZ4mainEUlT_E3_EEED2Ev, @function
_ZN5boost6detail17sp_counted_impl_pINS0_41future_deferred_continuation_shared_stateINS_6futureIiEEiZ4mainEUlT_E3_EEED2Ev:
.LFB14224:
	.cfi_startproc
	rep ret
	.cfi_endproc
.LFE14224:
	.size	_ZN5boost6detail17sp_counted_impl_pINS0_41future_deferred_continuation_shared_stateINS_6futureIiEEiZ4mainEUlT_E3_EEED2Ev, .-_ZN5boost6detail17sp_counted_impl_pINS0_41future_deferred_continuation_shared_stateINS_6futureIiEEiZ4mainEUlT_E3_EEED2Ev
	.set	_ZN5boost6detail17sp_counted_impl_pINS0_41future_deferred_continuation_shared_stateINS_6futureIiEEiZ4mainEUlT_E3_EEED1Ev,_ZN5boost6detail17sp_counted_impl_pINS0_41future_deferred_continuation_shared_stateINS_6futureIiEEiZ4mainEUlT_E3_EEED2Ev
	.align 2
	.p2align 4,,15
	.type	_ZN5boost6detail17sp_counted_impl_pINS0_38future_async_continuation_shared_stateINS_6futureIiEEiZ4mainEUlT_E3_EEED2Ev, @function
_ZN5boost6detail17sp_counted_impl_pINS0_38future_async_continuation_shared_stateINS_6futureIiEEiZ4mainEUlT_E3_EEED2Ev:
.LFB14228:
	.cfi_startproc
	rep ret
	.cfi_endproc
.LFE14228:
	.size	_ZN5boost6detail17sp_counted_impl_pINS0_38future_async_continuation_shared_stateINS_6futureIiEEiZ4mainEUlT_E3_EEED2Ev, .-_ZN5boost6detail17sp_counted_impl_pINS0_38future_async_continuation_shared_stateINS_6futureIiEEiZ4mainEUlT_E3_EEED2Ev
	.set	_ZN5boost6detail17sp_counted_impl_pINS0_38future_async_continuation_shared_stateINS_6futureIiEEiZ4mainEUlT_E3_EEED1Ev,_ZN5boost6detail17sp_counted_impl_pINS0_38future_async_continuation_shared_stateINS_6futureIiEEiZ4mainEUlT_E3_EEED2Ev
	.align 2
	.p2align 4,,15
	.type	_ZN5boost6detail17sp_counted_impl_pINS0_41future_deferred_continuation_shared_stateINS_6futureIiEEiZ4mainEUlT_E2_EEED2Ev, @function
_ZN5boost6detail17sp_counted_impl_pINS0_41future_deferred_continuation_shared_stateINS_6futureIiEEiZ4mainEUlT_E2_EEED2Ev:
.LFB14232:
	.cfi_startproc
	rep ret
	.cfi_endproc
.LFE14232:
	.size	_ZN5boost6detail17sp_counted_impl_pINS0_41future_deferred_continuation_shared_stateINS_6futureIiEEiZ4mainEUlT_E2_EEED2Ev, .-_ZN5boost6detail17sp_counted_impl_pINS0_41future_deferred_continuation_shared_stateINS_6futureIiEEiZ4mainEUlT_E2_EEED2Ev
	.set	_ZN5boost6detail17sp_counted_impl_pINS0_41future_deferred_continuation_shared_stateINS_6futureIiEEiZ4mainEUlT_E2_EEED1Ev,_ZN5boost6detail17sp_counted_impl_pINS0_41future_deferred_continuation_shared_stateINS_6futureIiEEiZ4mainEUlT_E2_EEED2Ev
	.align 2
	.p2align 4,,15
	.type	_ZN5boost6detail17sp_counted_impl_pINS0_38future_async_continuation_shared_stateINS_6futureIiEEiZ4mainEUlT_E2_EEED2Ev, @function
_ZN5boost6detail17sp_counted_impl_pINS0_38future_async_continuation_shared_stateINS_6futureIiEEiZ4mainEUlT_E2_EEED2Ev:
.LFB14236:
	.cfi_startproc
	rep ret
	.cfi_endproc
.LFE14236:
	.size	_ZN5boost6detail17sp_counted_impl_pINS0_38future_async_continuation_shared_stateINS_6futureIiEEiZ4mainEUlT_E2_EEED2Ev, .-_ZN5boost6detail17sp_counted_impl_pINS0_38future_async_continuation_shared_stateINS_6futureIiEEiZ4mainEUlT_E2_EEED2Ev
	.set	_ZN5boost6detail17sp_counted_impl_pINS0_38future_async_continuation_shared_stateINS_6futureIiEEiZ4mainEUlT_E2_EEED1Ev,_ZN5boost6detail17sp_counted_impl_pINS0_38future_async_continuation_shared_stateINS_6futureIiEEiZ4mainEUlT_E2_EEED2Ev
	.align 2
	.p2align 4,,15
	.type	_ZN5boost6detail17sp_counted_impl_pINS0_41future_deferred_continuation_shared_stateINS_6futureIiEEiZ4mainEUlT_E1_EEED2Ev, @function
_ZN5boost6detail17sp_counted_impl_pINS0_41future_deferred_continuation_shared_stateINS_6futureIiEEiZ4mainEUlT_E1_EEED2Ev:
.LFB14240:
	.cfi_startproc
	rep ret
	.cfi_endproc
.LFE14240:
	.size	_ZN5boost6detail17sp_counted_impl_pINS0_41future_deferred_continuation_shared_stateINS_6futureIiEEiZ4mainEUlT_E1_EEED2Ev, .-_ZN5boost6detail17sp_counted_impl_pINS0_41future_deferred_continuation_shared_stateINS_6futureIiEEiZ4mainEUlT_E1_EEED2Ev
	.set	_ZN5boost6detail17sp_counted_impl_pINS0_41future_deferred_continuation_shared_stateINS_6futureIiEEiZ4mainEUlT_E1_EEED1Ev,_ZN5boost6detail17sp_counted_impl_pINS0_41future_deferred_continuation_shared_stateINS_6futureIiEEiZ4mainEUlT_E1_EEED2Ev
	.align 2
	.p2align 4,,15
	.type	_ZN5boost6detail17sp_counted_impl_pINS0_38future_async_continuation_shared_stateINS_6futureIiEEiZ4mainEUlT_E1_EEED2Ev, @function
_ZN5boost6detail17sp_counted_impl_pINS0_38future_async_continuation_shared_stateINS_6futureIiEEiZ4mainEUlT_E1_EEED2Ev:
.LFB14244:
	.cfi_startproc
	rep ret
	.cfi_endproc
.LFE14244:
	.size	_ZN5boost6detail17sp_counted_impl_pINS0_38future_async_continuation_shared_stateINS_6futureIiEEiZ4mainEUlT_E1_EEED2Ev, .-_ZN5boost6detail17sp_counted_impl_pINS0_38future_async_continuation_shared_stateINS_6futureIiEEiZ4mainEUlT_E1_EEED2Ev
	.set	_ZN5boost6detail17sp_counted_impl_pINS0_38future_async_continuation_shared_stateINS_6futureIiEEiZ4mainEUlT_E1_EEED1Ev,_ZN5boost6detail17sp_counted_impl_pINS0_38future_async_continuation_shared_stateINS_6futureIiEEiZ4mainEUlT_E1_EEED2Ev
	.align 2
	.p2align 4,,15
	.type	_ZN5boost6detail17sp_counted_impl_pINS0_41future_deferred_continuation_shared_stateINS_6futureIiEEiZ4mainEUlT_E0_EEED2Ev, @function
_ZN5boost6detail17sp_counted_impl_pINS0_41future_deferred_continuation_shared_stateINS_6futureIiEEiZ4mainEUlT_E0_EEED2Ev:
.LFB14248:
	.cfi_startproc
	rep ret
	.cfi_endproc
.LFE14248:
	.size	_ZN5boost6detail17sp_counted_impl_pINS0_41future_deferred_continuation_shared_stateINS_6futureIiEEiZ4mainEUlT_E0_EEED2Ev, .-_ZN5boost6detail17sp_counted_impl_pINS0_41future_deferred_continuation_shared_stateINS_6futureIiEEiZ4mainEUlT_E0_EEED2Ev
	.set	_ZN5boost6detail17sp_counted_impl_pINS0_41future_deferred_continuation_shared_stateINS_6futureIiEEiZ4mainEUlT_E0_EEED1Ev,_ZN5boost6detail17sp_counted_impl_pINS0_41future_deferred_continuation_shared_stateINS_6futureIiEEiZ4mainEUlT_E0_EEED2Ev
	.align 2
	.p2align 4,,15
	.type	_ZN5boost6detail17sp_counted_impl_pINS0_38future_async_continuation_shared_stateINS_6futureIiEEiZ4mainEUlT_E0_EEED2Ev, @function
_ZN5boost6detail17sp_counted_impl_pINS0_38future_async_continuation_shared_stateINS_6futureIiEEiZ4mainEUlT_E0_EEED2Ev:
.LFB14252:
	.cfi_startproc
	rep ret
	.cfi_endproc
.LFE14252:
	.size	_ZN5boost6detail17sp_counted_impl_pINS0_38future_async_continuation_shared_stateINS_6futureIiEEiZ4mainEUlT_E0_EEED2Ev, .-_ZN5boost6detail17sp_counted_impl_pINS0_38future_async_continuation_shared_stateINS_6futureIiEEiZ4mainEUlT_E0_EEED2Ev
	.set	_ZN5boost6detail17sp_counted_impl_pINS0_38future_async_continuation_shared_stateINS_6futureIiEEiZ4mainEUlT_E0_EEED1Ev,_ZN5boost6detail17sp_counted_impl_pINS0_38future_async_continuation_shared_stateINS_6futureIiEEiZ4mainEUlT_E0_EEED2Ev
	.align 2
	.p2align 4,,15
	.type	_ZN5boost6detail17sp_counted_impl_pINS0_17task_shared_stateIZ4mainEUlvE_iEEED2Ev, @function
_ZN5boost6detail17sp_counted_impl_pINS0_17task_shared_stateIZ4mainEUlvE_iEEED2Ev:
.LFB14256:
	.cfi_startproc
	rep ret
	.cfi_endproc
.LFE14256:
	.size	_ZN5boost6detail17sp_counted_impl_pINS0_17task_shared_stateIZ4mainEUlvE_iEEED2Ev, .-_ZN5boost6detail17sp_counted_impl_pINS0_17task_shared_stateIZ4mainEUlvE_iEEED2Ev
	.set	_ZN5boost6detail17sp_counted_impl_pINS0_17task_shared_stateIZ4mainEUlvE_iEEED1Ev,_ZN5boost6detail17sp_counted_impl_pINS0_17task_shared_stateIZ4mainEUlvE_iEEED2Ev
	.section	.text._ZN5boost6detail17sp_counted_impl_pINS_16exception_detail10clone_implINS2_14bad_exception_EEEED2Ev,"axG",@progbits,_ZN5boost6detail17sp_counted_impl_pINS_16exception_detail10clone_implINS2_14bad_exception_EEEED5Ev,comdat
	.align 2
	.p2align 4,,15
	.weak	_ZN5boost6detail17sp_counted_impl_pINS_16exception_detail10clone_implINS2_14bad_exception_EEEED2Ev
	.type	_ZN5boost6detail17sp_counted_impl_pINS_16exception_detail10clone_implINS2_14bad_exception_EEEED2Ev, @function
_ZN5boost6detail17sp_counted_impl_pINS_16exception_detail10clone_implINS2_14bad_exception_EEEED2Ev:
.LFB14264:
	.cfi_startproc
	rep ret
	.cfi_endproc
.LFE14264:
	.size	_ZN5boost6detail17sp_counted_impl_pINS_16exception_detail10clone_implINS2_14bad_exception_EEEED2Ev, .-_ZN5boost6detail17sp_counted_impl_pINS_16exception_detail10clone_implINS2_14bad_exception_EEEED2Ev
	.weak	_ZN5boost6detail17sp_counted_impl_pINS_16exception_detail10clone_implINS2_14bad_exception_EEEED1Ev
	.set	_ZN5boost6detail17sp_counted_impl_pINS_16exception_detail10clone_implINS2_14bad_exception_EEEED1Ev,_ZN5boost6detail17sp_counted_impl_pINS_16exception_detail10clone_implINS2_14bad_exception_EEEED2Ev
	.section	.text._ZN5boost6detail17sp_counted_impl_pINS_16exception_detail10clone_implINS2_10bad_alloc_EEEED2Ev,"axG",@progbits,_ZN5boost6detail17sp_counted_impl_pINS_16exception_detail10clone_implINS2_10bad_alloc_EEEED5Ev,comdat
	.align 2
	.p2align 4,,15
	.weak	_ZN5boost6detail17sp_counted_impl_pINS_16exception_detail10clone_implINS2_10bad_alloc_EEEED2Ev
	.type	_ZN5boost6detail17sp_counted_impl_pINS_16exception_detail10clone_implINS2_10bad_alloc_EEEED2Ev, @function
_ZN5boost6detail17sp_counted_impl_pINS_16exception_detail10clone_implINS2_10bad_alloc_EEEED2Ev:
.LFB14268:
	.cfi_startproc
	rep ret
	.cfi_endproc
.LFE14268:
	.size	_ZN5boost6detail17sp_counted_impl_pINS_16exception_detail10clone_implINS2_10bad_alloc_EEEED2Ev, .-_ZN5boost6detail17sp_counted_impl_pINS_16exception_detail10clone_implINS2_10bad_alloc_EEEED2Ev
	.weak	_ZN5boost6detail17sp_counted_impl_pINS_16exception_detail10clone_implINS2_10bad_alloc_EEEED1Ev
	.set	_ZN5boost6detail17sp_counted_impl_pINS_16exception_detail10clone_implINS2_10bad_alloc_EEEED1Ev,_ZN5boost6detail17sp_counted_impl_pINS_16exception_detail10clone_implINS2_10bad_alloc_EEEED2Ev
	.section	.text._ZN5boost6detail17sp_counted_impl_pIKNS_16exception_detail10clone_baseEED2Ev,"axG",@progbits,_ZN5boost6detail17sp_counted_impl_pIKNS_16exception_detail10clone_baseEED5Ev,comdat
	.align 2
	.p2align 4,,15
	.weak	_ZN5boost6detail17sp_counted_impl_pIKNS_16exception_detail10clone_baseEED2Ev
	.type	_ZN5boost6detail17sp_counted_impl_pIKNS_16exception_detail10clone_baseEED2Ev, @function
_ZN5boost6detail17sp_counted_impl_pIKNS_16exception_detail10clone_baseEED2Ev:
.LFB14280:
	.cfi_startproc
	rep ret
	.cfi_endproc
.LFE14280:
	.size	_ZN5boost6detail17sp_counted_impl_pIKNS_16exception_detail10clone_baseEED2Ev, .-_ZN5boost6detail17sp_counted_impl_pIKNS_16exception_detail10clone_baseEED2Ev
	.weak	_ZN5boost6detail17sp_counted_impl_pIKNS_16exception_detail10clone_baseEED1Ev
	.set	_ZN5boost6detail17sp_counted_impl_pIKNS_16exception_detail10clone_baseEED1Ev,_ZN5boost6detail17sp_counted_impl_pIKNS_16exception_detail10clone_baseEED2Ev
	.section	.text._ZN5boost6detail17sp_counted_impl_pINS0_11thread_dataINS_13packaged_taskIiEEEEE7disposeEv,"axG",@progbits,_ZN5boost6detail17sp_counted_impl_pINS0_11thread_dataINS_13packaged_taskIiEEEEE7disposeEv,comdat
	.align 2
	.p2align 4,,15
	.weak	_ZN5boost6detail17sp_counted_impl_pINS0_11thread_dataINS_13packaged_taskIiEEEEE7disposeEv
	.type	_ZN5boost6detail17sp_counted_impl_pINS0_11thread_dataINS_13packaged_taskIiEEEEE7disposeEv, @function
_ZN5boost6detail17sp_counted_impl_pINS0_11thread_dataINS_13packaged_taskIiEEEEE7disposeEv:
.LFB14328:
	.cfi_startproc
	movq	16(%rdi), %rdi
	testq	%rdi, %rdi
	je	.L24
	movq	(%rdi), %rax
	jmp	*8(%rax)
	.p2align 4,,10
	.p2align 3
.L24:
	rep ret
	.cfi_endproc
.LFE14328:
	.size	_ZN5boost6detail17sp_counted_impl_pINS0_11thread_dataINS_13packaged_taskIiEEEEE7disposeEv, .-_ZN5boost6detail17sp_counted_impl_pINS0_11thread_dataINS_13packaged_taskIiEEEEE7disposeEv
	.section	.text._ZN5boost6detail17sp_counted_impl_pINS0_11thread_dataINS_13packaged_taskIiEEEEE11get_deleterERKSt9type_info,"axG",@progbits,_ZN5boost6detail17sp_counted_impl_pINS0_11thread_dataINS_13packaged_taskIiEEEEE11get_deleterERKSt9type_info,comdat
	.align 2
	.p2align 4,,15
	.weak	_ZN5boost6detail17sp_counted_impl_pINS0_11thread_dataINS_13packaged_taskIiEEEEE11get_deleterERKSt9type_info
	.type	_ZN5boost6detail17sp_counted_impl_pINS0_11thread_dataINS_13packaged_taskIiEEEEE11get_deleterERKSt9type_info, @function
_ZN5boost6detail17sp_counted_impl_pINS0_11thread_dataINS_13packaged_taskIiEEEEE11get_deleterERKSt9type_info:
.LFB14329:
	.cfi_startproc
	xorl	%eax, %eax
	ret
	.cfi_endproc
.LFE14329:
	.size	_ZN5boost6detail17sp_counted_impl_pINS0_11thread_dataINS_13packaged_taskIiEEEEE11get_deleterERKSt9type_info, .-_ZN5boost6detail17sp_counted_impl_pINS0_11thread_dataINS_13packaged_taskIiEEEEE11get_deleterERKSt9type_info
	.section	.text._ZN5boost6detail17sp_counted_impl_pINS0_11thread_dataINS_13packaged_taskIiEEEEE19get_untyped_deleterEv,"axG",@progbits,_ZN5boost6detail17sp_counted_impl_pINS0_11thread_dataINS_13packaged_taskIiEEEEE19get_untyped_deleterEv,comdat
	.align 2
	.p2align 4,,15
	.weak	_ZN5boost6detail17sp_counted_impl_pINS0_11thread_dataINS_13packaged_taskIiEEEEE19get_untyped_deleterEv
	.type	_ZN5boost6detail17sp_counted_impl_pINS0_11thread_dataINS_13packaged_taskIiEEEEE19get_untyped_deleterEv, @function
_ZN5boost6detail17sp_counted_impl_pINS0_11thread_dataINS_13packaged_taskIiEEEEE19get_untyped_deleterEv:
.LFB14330:
	.cfi_startproc
	xorl	%eax, %eax
	ret
	.cfi_endproc
.LFE14330:
	.size	_ZN5boost6detail17sp_counted_impl_pINS0_11thread_dataINS_13packaged_taskIiEEEEE19get_untyped_deleterEv, .-_ZN5boost6detail17sp_counted_impl_pINS0_11thread_dataINS_13packaged_taskIiEEEEE19get_untyped_deleterEv
	.section	.text._ZN5boost6detail17sp_counted_impl_pINS_10error_infoINS_27tag_original_exception_typeEPKSt9type_infoEEE11get_deleterERS5_,"axG",@progbits,_ZN5boost6detail17sp_counted_impl_pINS_10error_infoINS_27tag_original_exception_typeEPKSt9type_infoEEE11get_deleterERS5_,comdat
	.align 2
	.p2align 4,,15
	.weak	_ZN5boost6detail17sp_counted_impl_pINS_10error_infoINS_27tag_original_exception_typeEPKSt9type_infoEEE11get_deleterERS5_
	.type	_ZN5boost6detail17sp_counted_impl_pINS_10error_infoINS_27tag_original_exception_typeEPKSt9type_infoEEE11get_deleterERS5_, @function
_ZN5boost6detail17sp_counted_impl_pINS_10error_infoINS_27tag_original_exception_typeEPKSt9type_infoEEE11get_deleterERS5_:
.LFB14332:
	.cfi_startproc
	xorl	%eax, %eax
	ret
	.cfi_endproc
.LFE14332:
	.size	_ZN5boost6detail17sp_counted_impl_pINS_10error_infoINS_27tag_original_exception_typeEPKSt9type_infoEEE11get_deleterERS5_, .-_ZN5boost6detail17sp_counted_impl_pINS_10error_infoINS_27tag_original_exception_typeEPKSt9type_infoEEE11get_deleterERS5_
	.section	.text._ZN5boost6detail17sp_counted_impl_pINS_10error_infoINS_27tag_original_exception_typeEPKSt9type_infoEEE19get_untyped_deleterEv,"axG",@progbits,_ZN5boost6detail17sp_counted_impl_pINS_10error_infoINS_27tag_original_exception_typeEPKSt9type_infoEEE19get_untyped_deleterEv,comdat
	.align 2
	.p2align 4,,15
	.weak	_ZN5boost6detail17sp_counted_impl_pINS_10error_infoINS_27tag_original_exception_typeEPKSt9type_infoEEE19get_untyped_deleterEv
	.type	_ZN5boost6detail17sp_counted_impl_pINS_10error_infoINS_27tag_original_exception_typeEPKSt9type_infoEEE19get_untyped_deleterEv, @function
_ZN5boost6detail17sp_counted_impl_pINS_10error_infoINS_27tag_original_exception_typeEPKSt9type_infoEEE19get_untyped_deleterEv:
.LFB14333:
	.cfi_startproc
	xorl	%eax, %eax
	ret
	.cfi_endproc
.LFE14333:
	.size	_ZN5boost6detail17sp_counted_impl_pINS_10error_infoINS_27tag_original_exception_typeEPKSt9type_infoEEE19get_untyped_deleterEv, .-_ZN5boost6detail17sp_counted_impl_pINS_10error_infoINS_27tag_original_exception_typeEPKSt9type_infoEEE19get_untyped_deleterEv
	.text
	.align 2
	.p2align 4,,15
	.type	_ZN5boost6detail17sp_counted_impl_pINS0_17task_shared_stateIZ4mainEUlvE_iEEE11get_deleterERKSt9type_info, @function
_ZN5boost6detail17sp_counted_impl_pINS0_17task_shared_stateIZ4mainEUlvE_iEEE11get_deleterERKSt9type_info:
.LFB14359:
	.cfi_startproc
	xorl	%eax, %eax
	ret
	.cfi_endproc
.LFE14359:
	.size	_ZN5boost6detail17sp_counted_impl_pINS0_17task_shared_stateIZ4mainEUlvE_iEEE11get_deleterERKSt9type_info, .-_ZN5boost6detail17sp_counted_impl_pINS0_17task_shared_stateIZ4mainEUlvE_iEEE11get_deleterERKSt9type_info
	.set	_ZN5boost6detail17sp_counted_impl_pINS0_11thread_dataINS_3_bi6bind_tIvPFvNS_10shared_ptrINS0_17shared_state_baseEEEENS3_5list1INS3_5valueINS5_INS0_38future_async_continuation_shared_stateINS_6futureIiEEiZ4mainEUlT_E0_EEEEEEEEEEEEE11get_deleterERKSt9type_info,_ZN5boost6detail17sp_counted_impl_pINS0_17task_shared_stateIZ4mainEUlvE_iEEE11get_deleterERKSt9type_info
	.set	_ZN5boost6detail17sp_counted_impl_pINS0_11thread_dataINS_3_bi6bind_tIvPFvNS_10shared_ptrINS0_17shared_state_baseEEEENS3_5list1INS3_5valueINS5_INS0_38future_async_continuation_shared_stateINS_6futureIiEEiZ4mainEUlT_E1_EEEEEEEEEEEEE11get_deleterERKSt9type_info,_ZN5boost6detail17sp_counted_impl_pINS0_17task_shared_stateIZ4mainEUlvE_iEEE11get_deleterERKSt9type_info
	.set	_ZN5boost6detail17sp_counted_impl_pINS0_11thread_dataINS_3_bi6bind_tIvPFvNS_10shared_ptrINS0_17shared_state_baseEEEENS3_5list1INS3_5valueINS5_INS0_38future_async_continuation_shared_stateINS_6futureIiEEiZ4mainEUlT_E2_EEEEEEEEEEEEE11get_deleterERKSt9type_info,_ZN5boost6detail17sp_counted_impl_pINS0_17task_shared_stateIZ4mainEUlvE_iEEE11get_deleterERKSt9type_info
	.set	_ZN5boost6detail17sp_counted_impl_pINS0_11thread_dataINS_3_bi6bind_tIvPFvNS_10shared_ptrINS0_17shared_state_baseEEEENS3_5list1INS3_5valueINS5_INS0_38future_async_continuation_shared_stateINS_6futureIiEEiZ4mainEUlT_E3_EEEEEEEEEEEEE11get_deleterERKSt9type_info,_ZN5boost6detail17sp_counted_impl_pINS0_17task_shared_stateIZ4mainEUlvE_iEEE11get_deleterERKSt9type_info
	.set	_ZN5boost6detail17sp_counted_impl_pINS0_41future_deferred_continuation_shared_stateINS_6futureIiEEiZ4mainEUlT_E3_EEE11get_deleterERKSt9type_info,_ZN5boost6detail17sp_counted_impl_pINS0_17task_shared_stateIZ4mainEUlvE_iEEE11get_deleterERKSt9type_info
	.set	_ZN5boost6detail17sp_counted_impl_pINS0_38future_async_continuation_shared_stateINS_6futureIiEEiZ4mainEUlT_E3_EEE11get_deleterERKSt9type_info,_ZN5boost6detail17sp_counted_impl_pINS0_17task_shared_stateIZ4mainEUlvE_iEEE11get_deleterERKSt9type_info
	.set	_ZN5boost6detail17sp_counted_impl_pINS0_41future_deferred_continuation_shared_stateINS_6futureIiEEiZ4mainEUlT_E2_EEE11get_deleterERKSt9type_info,_ZN5boost6detail17sp_counted_impl_pINS0_17task_shared_stateIZ4mainEUlvE_iEEE11get_deleterERKSt9type_info
	.set	_ZN5boost6detail17sp_counted_impl_pINS0_38future_async_continuation_shared_stateINS_6futureIiEEiZ4mainEUlT_E2_EEE11get_deleterERKSt9type_info,_ZN5boost6detail17sp_counted_impl_pINS0_17task_shared_stateIZ4mainEUlvE_iEEE11get_deleterERKSt9type_info
	.set	_ZN5boost6detail17sp_counted_impl_pINS0_41future_deferred_continuation_shared_stateINS_6futureIiEEiZ4mainEUlT_E1_EEE11get_deleterERKSt9type_info,_ZN5boost6detail17sp_counted_impl_pINS0_17task_shared_stateIZ4mainEUlvE_iEEE11get_deleterERKSt9type_info
	.set	_ZN5boost6detail17sp_counted_impl_pINS0_38future_async_continuation_shared_stateINS_6futureIiEEiZ4mainEUlT_E1_EEE11get_deleterERKSt9type_info,_ZN5boost6detail17sp_counted_impl_pINS0_17task_shared_stateIZ4mainEUlvE_iEEE11get_deleterERKSt9type_info
	.set	_ZN5boost6detail17sp_counted_impl_pINS0_41future_deferred_continuation_shared_stateINS_6futureIiEEiZ4mainEUlT_E0_EEE11get_deleterERKSt9type_info,_ZN5boost6detail17sp_counted_impl_pINS0_17task_shared_stateIZ4mainEUlvE_iEEE11get_deleterERKSt9type_info
	.set	_ZN5boost6detail17sp_counted_impl_pINS0_38future_async_continuation_shared_stateINS_6futureIiEEiZ4mainEUlT_E0_EEE11get_deleterERKSt9type_info,_ZN5boost6detail17sp_counted_impl_pINS0_17task_shared_stateIZ4mainEUlvE_iEEE11get_deleterERKSt9type_info
	.align 2
	.p2align 4,,15
	.type	_ZN5boost6detail17sp_counted_impl_pINS0_17task_shared_stateIZ4mainEUlvE_iEEE19get_untyped_deleterEv, @function
_ZN5boost6detail17sp_counted_impl_pINS0_17task_shared_stateIZ4mainEUlvE_iEEE19get_untyped_deleterEv:
.LFB14360:
	.cfi_startproc
	xorl	%eax, %eax
	ret
	.cfi_endproc
.LFE14360:
	.size	_ZN5boost6detail17sp_counted_impl_pINS0_17task_shared_stateIZ4mainEUlvE_iEEE19get_untyped_deleterEv, .-_ZN5boost6detail17sp_counted_impl_pINS0_17task_shared_stateIZ4mainEUlvE_iEEE19get_untyped_deleterEv
	.set	_ZN5boost6detail17sp_counted_impl_pINS0_11thread_dataINS_3_bi6bind_tIvPFvNS_10shared_ptrINS0_17shared_state_baseEEEENS3_5list1INS3_5valueINS5_INS0_38future_async_continuation_shared_stateINS_6futureIiEEiZ4mainEUlT_E0_EEEEEEEEEEEEE19get_untyped_deleterEv,_ZN5boost6detail17sp_counted_impl_pINS0_17task_shared_stateIZ4mainEUlvE_iEEE19get_untyped_deleterEv
	.set	_ZN5boost6detail17sp_counted_impl_pINS0_11thread_dataINS_3_bi6bind_tIvPFvNS_10shared_ptrINS0_17shared_state_baseEEEENS3_5list1INS3_5valueINS5_INS0_38future_async_continuation_shared_stateINS_6futureIiEEiZ4mainEUlT_E1_EEEEEEEEEEEEE19get_untyped_deleterEv,_ZN5boost6detail17sp_counted_impl_pINS0_17task_shared_stateIZ4mainEUlvE_iEEE19get_untyped_deleterEv
	.set	_ZN5boost6detail17sp_counted_impl_pINS0_11thread_dataINS_3_bi6bind_tIvPFvNS_10shared_ptrINS0_17shared_state_baseEEEENS3_5list1INS3_5valueINS5_INS0_38future_async_continuation_shared_stateINS_6futureIiEEiZ4mainEUlT_E2_EEEEEEEEEEEEE19get_untyped_deleterEv,_ZN5boost6detail17sp_counted_impl_pINS0_17task_shared_stateIZ4mainEUlvE_iEEE19get_untyped_deleterEv
	.set	_ZN5boost6detail17sp_counted_impl_pINS0_11thread_dataINS_3_bi6bind_tIvPFvNS_10shared_ptrINS0_17shared_state_baseEEEENS3_5list1INS3_5valueINS5_INS0_38future_async_continuation_shared_stateINS_6futureIiEEiZ4mainEUlT_E3_EEEEEEEEEEEEE19get_untyped_deleterEv,_ZN5boost6detail17sp_counted_impl_pINS0_17task_shared_stateIZ4mainEUlvE_iEEE19get_untyped_deleterEv
	.set	_ZN5boost6detail17sp_counted_impl_pINS0_41future_deferred_continuation_shared_stateINS_6futureIiEEiZ4mainEUlT_E3_EEE19get_untyped_deleterEv,_ZN5boost6detail17sp_counted_impl_pINS0_17task_shared_stateIZ4mainEUlvE_iEEE19get_untyped_deleterEv
	.set	_ZN5boost6detail17sp_counted_impl_pINS0_38future_async_continuation_shared_stateINS_6futureIiEEiZ4mainEUlT_E3_EEE19get_untyped_deleterEv,_ZN5boost6detail17sp_counted_impl_pINS0_17task_shared_stateIZ4mainEUlvE_iEEE19get_untyped_deleterEv
	.set	_ZN5boost6detail17sp_counted_impl_pINS0_41future_deferred_continuation_shared_stateINS_6futureIiEEiZ4mainEUlT_E2_EEE19get_untyped_deleterEv,_ZN5boost6detail17sp_counted_impl_pINS0_17task_shared_stateIZ4mainEUlvE_iEEE19get_untyped_deleterEv
	.set	_ZN5boost6detail17sp_counted_impl_pINS0_38future_async_continuation_shared_stateINS_6futureIiEEiZ4mainEUlT_E2_EEE19get_untyped_deleterEv,_ZN5boost6detail17sp_counted_impl_pINS0_17task_shared_stateIZ4mainEUlvE_iEEE19get_untyped_deleterEv
	.set	_ZN5boost6detail17sp_counted_impl_pINS0_41future_deferred_continuation_shared_stateINS_6futureIiEEiZ4mainEUlT_E1_EEE19get_untyped_deleterEv,_ZN5boost6detail17sp_counted_impl_pINS0_17task_shared_stateIZ4mainEUlvE_iEEE19get_untyped_deleterEv
	.set	_ZN5boost6detail17sp_counted_impl_pINS0_38future_async_continuation_shared_stateINS_6futureIiEEiZ4mainEUlT_E1_EEE19get_untyped_deleterEv,_ZN5boost6detail17sp_counted_impl_pINS0_17task_shared_stateIZ4mainEUlvE_iEEE19get_untyped_deleterEv
	.set	_ZN5boost6detail17sp_counted_impl_pINS0_41future_deferred_continuation_shared_stateINS_6futureIiEEiZ4mainEUlT_E0_EEE19get_untyped_deleterEv,_ZN5boost6detail17sp_counted_impl_pINS0_17task_shared_stateIZ4mainEUlvE_iEEE19get_untyped_deleterEv
	.set	_ZN5boost6detail17sp_counted_impl_pINS0_38future_async_continuation_shared_stateINS_6futureIiEEiZ4mainEUlT_E0_EEE19get_untyped_deleterEv,_ZN5boost6detail17sp_counted_impl_pINS0_17task_shared_stateIZ4mainEUlvE_iEEE19get_untyped_deleterEv
	.section	.text._ZN5boost6detail17sp_counted_impl_pINS_16exception_detail10clone_implINS2_14bad_exception_EEEE11get_deleterERKSt9type_info,"axG",@progbits,_ZN5boost6detail17sp_counted_impl_pINS_16exception_detail10clone_implINS2_14bad_exception_EEEE11get_deleterERKSt9type_info,comdat
	.align 2
	.p2align 4,,15
	.weak	_ZN5boost6detail17sp_counted_impl_pINS_16exception_detail10clone_implINS2_14bad_exception_EEEE11get_deleterERKSt9type_info
	.type	_ZN5boost6detail17sp_counted_impl_pINS_16exception_detail10clone_implINS2_14bad_exception_EEEE11get_deleterERKSt9type_info, @function
_ZN5boost6detail17sp_counted_impl_pINS_16exception_detail10clone_implINS2_14bad_exception_EEEE11get_deleterERKSt9type_info:
.LFB14371:
	.cfi_startproc
	xorl	%eax, %eax
	ret
	.cfi_endproc
.LFE14371:
	.size	_ZN5boost6detail17sp_counted_impl_pINS_16exception_detail10clone_implINS2_14bad_exception_EEEE11get_deleterERKSt9type_info, .-_ZN5boost6detail17sp_counted_impl_pINS_16exception_detail10clone_implINS2_14bad_exception_EEEE11get_deleterERKSt9type_info
	.section	.text._ZN5boost6detail17sp_counted_impl_pINS_16exception_detail10clone_implINS2_14bad_exception_EEEE19get_untyped_deleterEv,"axG",@progbits,_ZN5boost6detail17sp_counted_impl_pINS_16exception_detail10clone_implINS2_14bad_exception_EEEE19get_untyped_deleterEv,comdat
	.align 2
	.p2align 4,,15
	.weak	_ZN5boost6detail17sp_counted_impl_pINS_16exception_detail10clone_implINS2_14bad_exception_EEEE19get_untyped_deleterEv
	.type	_ZN5boost6detail17sp_counted_impl_pINS_16exception_detail10clone_implINS2_14bad_exception_EEEE19get_untyped_deleterEv, @function
_ZN5boost6detail17sp_counted_impl_pINS_16exception_detail10clone_implINS2_14bad_exception_EEEE19get_untyped_deleterEv:
.LFB14372:
	.cfi_startproc
	xorl	%eax, %eax
	ret
	.cfi_endproc
.LFE14372:
	.size	_ZN5boost6detail17sp_counted_impl_pINS_16exception_detail10clone_implINS2_14bad_exception_EEEE19get_untyped_deleterEv, .-_ZN5boost6detail17sp_counted_impl_pINS_16exception_detail10clone_implINS2_14bad_exception_EEEE19get_untyped_deleterEv
	.section	.text._ZN5boost6detail17sp_counted_impl_pINS_16exception_detail10clone_implINS2_10bad_alloc_EEEE11get_deleterERKSt9type_info,"axG",@progbits,_ZN5boost6detail17sp_counted_impl_pINS_16exception_detail10clone_implINS2_10bad_alloc_EEEE11get_deleterERKSt9type_info,comdat
	.align 2
	.p2align 4,,15
	.weak	_ZN5boost6detail17sp_counted_impl_pINS_16exception_detail10clone_implINS2_10bad_alloc_EEEE11get_deleterERKSt9type_info
	.type	_ZN5boost6detail17sp_counted_impl_pINS_16exception_detail10clone_implINS2_10bad_alloc_EEEE11get_deleterERKSt9type_info, @function
_ZN5boost6detail17sp_counted_impl_pINS_16exception_detail10clone_implINS2_10bad_alloc_EEEE11get_deleterERKSt9type_info:
.LFB14374:
	.cfi_startproc
	xorl	%eax, %eax
	ret
	.cfi_endproc
.LFE14374:
	.size	_ZN5boost6detail17sp_counted_impl_pINS_16exception_detail10clone_implINS2_10bad_alloc_EEEE11get_deleterERKSt9type_info, .-_ZN5boost6detail17sp_counted_impl_pINS_16exception_detail10clone_implINS2_10bad_alloc_EEEE11get_deleterERKSt9type_info
	.section	.text._ZN5boost6detail17sp_counted_impl_pINS_16exception_detail10clone_implINS2_10bad_alloc_EEEE19get_untyped_deleterEv,"axG",@progbits,_ZN5boost6detail17sp_counted_impl_pINS_16exception_detail10clone_implINS2_10bad_alloc_EEEE19get_untyped_deleterEv,comdat
	.align 2
	.p2align 4,,15
	.weak	_ZN5boost6detail17sp_counted_impl_pINS_16exception_detail10clone_implINS2_10bad_alloc_EEEE19get_untyped_deleterEv
	.type	_ZN5boost6detail17sp_counted_impl_pINS_16exception_detail10clone_implINS2_10bad_alloc_EEEE19get_untyped_deleterEv, @function
_ZN5boost6detail17sp_counted_impl_pINS_16exception_detail10clone_implINS2_10bad_alloc_EEEE19get_untyped_deleterEv:
.LFB14375:
	.cfi_startproc
	xorl	%eax, %eax
	ret
	.cfi_endproc
.LFE14375:
	.size	_ZN5boost6detail17sp_counted_impl_pINS_16exception_detail10clone_implINS2_10bad_alloc_EEEE19get_untyped_deleterEv, .-_ZN5boost6detail17sp_counted_impl_pINS_16exception_detail10clone_implINS2_10bad_alloc_EEEE19get_untyped_deleterEv
	.text
	.align 2
	.p2align 4,,15
	.type	_ZN5boost6detail41future_deferred_continuation_shared_stateINS_6futureIiEEiZ4mainEUlT_E0_E19launch_continuationEv, @function
_ZN5boost6detail41future_deferred_continuation_shared_stateINS_6futureIiEEiZ4mainEUlT_E0_E19launch_continuationEv:
.LFB14407:
	.cfi_startproc
	rep ret
	.cfi_endproc
.LFE14407:
	.size	_ZN5boost6detail41future_deferred_continuation_shared_stateINS_6futureIiEEiZ4mainEUlT_E0_E19launch_continuationEv, .-_ZN5boost6detail41future_deferred_continuation_shared_stateINS_6futureIiEEiZ4mainEUlT_E0_E19launch_continuationEv
	.set	_ZN5boost6detail41future_deferred_continuation_shared_stateINS_6futureIiEEiZ4mainEUlT_E3_E19launch_continuationEv,_ZN5boost6detail41future_deferred_continuation_shared_stateINS_6futureIiEEiZ4mainEUlT_E0_E19launch_continuationEv
	.set	_ZN5boost6detail41future_deferred_continuation_shared_stateINS_6futureIiEEiZ4mainEUlT_E2_E19launch_continuationEv,_ZN5boost6detail41future_deferred_continuation_shared_stateINS_6futureIiEEiZ4mainEUlT_E0_E19launch_continuationEv
	.set	_ZN5boost6detail41future_deferred_continuation_shared_stateINS_6futureIiEEiZ4mainEUlT_E1_E19launch_continuationEv,_ZN5boost6detail41future_deferred_continuation_shared_stateINS_6futureIiEEiZ4mainEUlT_E0_E19launch_continuationEv
	.section	.text._ZN5boost6detail17sp_counted_impl_pIKNS_16exception_detail10clone_baseEE7disposeEv,"axG",@progbits,_ZN5boost6detail17sp_counted_impl_pIKNS_16exception_detail10clone_baseEE7disposeEv,comdat
	.align 2
	.p2align 4,,15
	.weak	_ZN5boost6detail17sp_counted_impl_pIKNS_16exception_detail10clone_baseEE7disposeEv
	.type	_ZN5boost6detail17sp_counted_impl_pIKNS_16exception_detail10clone_baseEE7disposeEv, @function
_ZN5boost6detail17sp_counted_impl_pIKNS_16exception_detail10clone_baseEE7disposeEv:
.LFB14418:
	.cfi_startproc
	movq	16(%rdi), %rdi
	testq	%rdi, %rdi
	je	.L37
	movq	(%rdi), %rax
	jmp	*24(%rax)
	.p2align 4,,10
	.p2align 3
.L37:
	rep ret
	.cfi_endproc
.LFE14418:
	.size	_ZN5boost6detail17sp_counted_impl_pIKNS_16exception_detail10clone_baseEE7disposeEv, .-_ZN5boost6detail17sp_counted_impl_pIKNS_16exception_detail10clone_baseEE7disposeEv
	.section	.text._ZN5boost6detail17sp_counted_impl_pIKNS_16exception_detail10clone_baseEE11get_deleterERKSt9type_info,"axG",@progbits,_ZN5boost6detail17sp_counted_impl_pIKNS_16exception_detail10clone_baseEE11get_deleterERKSt9type_info,comdat
	.align 2
	.p2align 4,,15
	.weak	_ZN5boost6detail17sp_counted_impl_pIKNS_16exception_detail10clone_baseEE11get_deleterERKSt9type_info
	.type	_ZN5boost6detail17sp_counted_impl_pIKNS_16exception_detail10clone_baseEE11get_deleterERKSt9type_info, @function
_ZN5boost6detail17sp_counted_impl_pIKNS_16exception_detail10clone_baseEE11get_deleterERKSt9type_info:
.LFB14419:
	.cfi_startproc
	xorl	%eax, %eax
	ret
	.cfi_endproc
.LFE14419:
	.size	_ZN5boost6detail17sp_counted_impl_pIKNS_16exception_detail10clone_baseEE11get_deleterERKSt9type_info, .-_ZN5boost6detail17sp_counted_impl_pIKNS_16exception_detail10clone_baseEE11get_deleterERKSt9type_info
	.section	.text._ZN5boost6detail17sp_counted_impl_pIKNS_16exception_detail10clone_baseEE19get_untyped_deleterEv,"axG",@progbits,_ZN5boost6detail17sp_counted_impl_pIKNS_16exception_detail10clone_baseEE19get_untyped_deleterEv,comdat
	.align 2
	.p2align 4,,15
	.weak	_ZN5boost6detail17sp_counted_impl_pIKNS_16exception_detail10clone_baseEE19get_untyped_deleterEv
	.type	_ZN5boost6detail17sp_counted_impl_pIKNS_16exception_detail10clone_baseEE19get_untyped_deleterEv, @function
_ZN5boost6detail17sp_counted_impl_pIKNS_16exception_detail10clone_baseEE19get_untyped_deleterEv:
.LFB14420:
	.cfi_startproc
	xorl	%eax, %eax
	ret
	.cfi_endproc
.LFE14420:
	.size	_ZN5boost6detail17sp_counted_impl_pIKNS_16exception_detail10clone_baseEE19get_untyped_deleterEv, .-_ZN5boost6detail17sp_counted_impl_pIKNS_16exception_detail10clone_baseEE19get_untyped_deleterEv
	.text
	.align 2
	.p2align 4,,15
	.type	_ZN5boost6detail17sp_counted_impl_pINS0_11thread_dataINS_3_bi6bind_tIvPFvNS_10shared_ptrINS0_17shared_state_baseEEEENS3_5list1INS3_5valueINS5_INS0_38future_async_continuation_shared_stateINS_6futureIiEEiZ4mainEUlT_E0_EEEEEEEEEEEEED2Ev, @function
_ZN5boost6detail17sp_counted_impl_pINS0_11thread_dataINS_3_bi6bind_tIvPFvNS_10shared_ptrINS0_17shared_state_baseEEEENS3_5list1INS3_5valueINS5_INS0_38future_async_continuation_shared_stateINS_6futureIiEEiZ4mainEUlT_E0_EEEEEEEEEEEEED2Ev:
.LFB15079:
	.cfi_startproc
	rep ret
	.cfi_endproc
.LFE15079:
	.size	_ZN5boost6detail17sp_counted_impl_pINS0_11thread_dataINS_3_bi6bind_tIvPFvNS_10shared_ptrINS0_17shared_state_baseEEEENS3_5list1INS3_5valueINS5_INS0_38future_async_continuation_shared_stateINS_6futureIiEEiZ4mainEUlT_E0_EEEEEEEEEEEEED2Ev, .-_ZN5boost6detail17sp_counted_impl_pINS0_11thread_dataINS_3_bi6bind_tIvPFvNS_10shared_ptrINS0_17shared_state_baseEEEENS3_5list1INS3_5valueINS5_INS0_38future_async_continuation_shared_stateINS_6futureIiEEiZ4mainEUlT_E0_EEEEEEEEEEEEED2Ev
	.set	_ZN5boost6detail17sp_counted_impl_pINS0_11thread_dataINS_3_bi6bind_tIvPFvNS_10shared_ptrINS0_17shared_state_baseEEEENS3_5list1INS3_5valueINS5_INS0_38future_async_continuation_shared_stateINS_6futureIiEEiZ4mainEUlT_E0_EEEEEEEEEEEEED1Ev,_ZN5boost6detail17sp_counted_impl_pINS0_11thread_dataINS_3_bi6bind_tIvPFvNS_10shared_ptrINS0_17shared_state_baseEEEENS3_5list1INS3_5valueINS5_INS0_38future_async_continuation_shared_stateINS_6futureIiEEiZ4mainEUlT_E0_EEEEEEEEEEEEED2Ev
	.align 2
	.p2align 4,,15
	.type	_ZN5boost6detail17sp_counted_impl_pINS0_11thread_dataINS_3_bi6bind_tIvPFvNS_10shared_ptrINS0_17shared_state_baseEEEENS3_5list1INS3_5valueINS5_INS0_38future_async_continuation_shared_stateINS_6futureIiEEiZ4mainEUlT_E1_EEEEEEEEEEEEED2Ev, @function
_ZN5boost6detail17sp_counted_impl_pINS0_11thread_dataINS_3_bi6bind_tIvPFvNS_10shared_ptrINS0_17shared_state_baseEEEENS3_5list1INS3_5valueINS5_INS0_38future_async_continuation_shared_stateINS_6futureIiEEiZ4mainEUlT_E1_EEEEEEEEEEEEED2Ev:
.LFB15083:
	.cfi_startproc
	rep ret
	.cfi_endproc
.LFE15083:
	.size	_ZN5boost6detail17sp_counted_impl_pINS0_11thread_dataINS_3_bi6bind_tIvPFvNS_10shared_ptrINS0_17shared_state_baseEEEENS3_5list1INS3_5valueINS5_INS0_38future_async_continuation_shared_stateINS_6futureIiEEiZ4mainEUlT_E1_EEEEEEEEEEEEED2Ev, .-_ZN5boost6detail17sp_counted_impl_pINS0_11thread_dataINS_3_bi6bind_tIvPFvNS_10shared_ptrINS0_17shared_state_baseEEEENS3_5list1INS3_5valueINS5_INS0_38future_async_continuation_shared_stateINS_6futureIiEEiZ4mainEUlT_E1_EEEEEEEEEEEEED2Ev
	.set	_ZN5boost6detail17sp_counted_impl_pINS0_11thread_dataINS_3_bi6bind_tIvPFvNS_10shared_ptrINS0_17shared_state_baseEEEENS3_5list1INS3_5valueINS5_INS0_38future_async_continuation_shared_stateINS_6futureIiEEiZ4mainEUlT_E1_EEEEEEEEEEEEED1Ev,_ZN5boost6detail17sp_counted_impl_pINS0_11thread_dataINS_3_bi6bind_tIvPFvNS_10shared_ptrINS0_17shared_state_baseEEEENS3_5list1INS3_5valueINS5_INS0_38future_async_continuation_shared_stateINS_6futureIiEEiZ4mainEUlT_E1_EEEEEEEEEEEEED2Ev
	.align 2
	.p2align 4,,15
	.type	_ZN5boost6detail17sp_counted_impl_pINS0_11thread_dataINS_3_bi6bind_tIvPFvNS_10shared_ptrINS0_17shared_state_baseEEEENS3_5list1INS3_5valueINS5_INS0_38future_async_continuation_shared_stateINS_6futureIiEEiZ4mainEUlT_E2_EEEEEEEEEEEEED2Ev, @function
_ZN5boost6detail17sp_counted_impl_pINS0_11thread_dataINS_3_bi6bind_tIvPFvNS_10shared_ptrINS0_17shared_state_baseEEEENS3_5list1INS3_5valueINS5_INS0_38future_async_continuation_shared_stateINS_6futureIiEEiZ4mainEUlT_E2_EEEEEEEEEEEEED2Ev:
.LFB15087:
	.cfi_startproc
	rep ret
	.cfi_endproc
.LFE15087:
	.size	_ZN5boost6detail17sp_counted_impl_pINS0_11thread_dataINS_3_bi6bind_tIvPFvNS_10shared_ptrINS0_17shared_state_baseEEEENS3_5list1INS3_5valueINS5_INS0_38future_async_continuation_shared_stateINS_6futureIiEEiZ4mainEUlT_E2_EEEEEEEEEEEEED2Ev, .-_ZN5boost6detail17sp_counted_impl_pINS0_11thread_dataINS_3_bi6bind_tIvPFvNS_10shared_ptrINS0_17shared_state_baseEEEENS3_5list1INS3_5valueINS5_INS0_38future_async_continuation_shared_stateINS_6futureIiEEiZ4mainEUlT_E2_EEEEEEEEEEEEED2Ev
	.set	_ZN5boost6detail17sp_counted_impl_pINS0_11thread_dataINS_3_bi6bind_tIvPFvNS_10shared_ptrINS0_17shared_state_baseEEEENS3_5list1INS3_5valueINS5_INS0_38future_async_continuation_shared_stateINS_6futureIiEEiZ4mainEUlT_E2_EEEEEEEEEEEEED1Ev,_ZN5boost6detail17sp_counted_impl_pINS0_11thread_dataINS_3_bi6bind_tIvPFvNS_10shared_ptrINS0_17shared_state_baseEEEENS3_5list1INS3_5valueINS5_INS0_38future_async_continuation_shared_stateINS_6futureIiEEiZ4mainEUlT_E2_EEEEEEEEEEEEED2Ev
	.align 2
	.p2align 4,,15
	.type	_ZN5boost6detail17sp_counted_impl_pINS0_11thread_dataINS_3_bi6bind_tIvPFvNS_10shared_ptrINS0_17shared_state_baseEEEENS3_5list1INS3_5valueINS5_INS0_38future_async_continuation_shared_stateINS_6futureIiEEiZ4mainEUlT_E3_EEEEEEEEEEEEED2Ev, @function
_ZN5boost6detail17sp_counted_impl_pINS0_11thread_dataINS_3_bi6bind_tIvPFvNS_10shared_ptrINS0_17shared_state_baseEEEENS3_5list1INS3_5valueINS5_INS0_38future_async_continuation_shared_stateINS_6futureIiEEiZ4mainEUlT_E3_EEEEEEEEEEEEED2Ev:
.LFB15091:
	.cfi_startproc
	rep ret
	.cfi_endproc
.LFE15091:
	.size	_ZN5boost6detail17sp_counted_impl_pINS0_11thread_dataINS_3_bi6bind_tIvPFvNS_10shared_ptrINS0_17shared_state_baseEEEENS3_5list1INS3_5valueINS5_INS0_38future_async_continuation_shared_stateINS_6futureIiEEiZ4mainEUlT_E3_EEEEEEEEEEEEED2Ev, .-_ZN5boost6detail17sp_counted_impl_pINS0_11thread_dataINS_3_bi6bind_tIvPFvNS_10shared_ptrINS0_17shared_state_baseEEEENS3_5list1INS3_5valueINS5_INS0_38future_async_continuation_shared_stateINS_6futureIiEEiZ4mainEUlT_E3_EEEEEEEEEEEEED2Ev
	.set	_ZN5boost6detail17sp_counted_impl_pINS0_11thread_dataINS_3_bi6bind_tIvPFvNS_10shared_ptrINS0_17shared_state_baseEEEENS3_5list1INS3_5valueINS5_INS0_38future_async_continuation_shared_stateINS_6futureIiEEiZ4mainEUlT_E3_EEEEEEEEEEEEED1Ev,_ZN5boost6detail17sp_counted_impl_pINS0_11thread_dataINS_3_bi6bind_tIvPFvNS_10shared_ptrINS0_17shared_state_baseEEEENS3_5list1INS3_5valueINS5_INS0_38future_async_continuation_shared_stateINS_6futureIiEEiZ4mainEUlT_E3_EEEEEEEEEEEEED2Ev
	.section	.text._ZN5boost6detail17sp_counted_impl_pINS0_11thread_dataINS_13packaged_taskIiEEEEED0Ev,"axG",@progbits,_ZN5boost6detail17sp_counted_impl_pINS0_11thread_dataINS_13packaged_taskIiEEEEED5Ev,comdat
	.align 2
	.p2align 4,,15
	.weak	_ZN5boost6detail17sp_counted_impl_pINS0_11thread_dataINS_13packaged_taskIiEEEEED0Ev
	.type	_ZN5boost6detail17sp_counted_impl_pINS0_11thread_dataINS_13packaged_taskIiEEEEED0Ev, @function
_ZN5boost6detail17sp_counted_impl_pINS0_11thread_dataINS_13packaged_taskIiEEEEED0Ev:
.LFB14218:
	.cfi_startproc
	movl	$24, %esi
	jmp	_ZdlPvm
	.cfi_endproc
.LFE14218:
	.size	_ZN5boost6detail17sp_counted_impl_pINS0_11thread_dataINS_13packaged_taskIiEEEEED0Ev, .-_ZN5boost6detail17sp_counted_impl_pINS0_11thread_dataINS_13packaged_taskIiEEEEED0Ev
	.section	.text._ZN5boost6detail17sp_counted_impl_pINS_10error_infoINS_27tag_original_exception_typeEPKSt9type_infoEEED0Ev,"axG",@progbits,_ZN5boost6detail17sp_counted_impl_pINS_10error_infoINS_27tag_original_exception_typeEPKSt9type_infoEEED5Ev,comdat
	.align 2
	.p2align 4,,15
	.weak	_ZN5boost6detail17sp_counted_impl_pINS_10error_infoINS_27tag_original_exception_typeEPKSt9type_infoEEED0Ev
	.type	_ZN5boost6detail17sp_counted_impl_pINS_10error_infoINS_27tag_original_exception_typeEPKSt9type_infoEEED0Ev, @function
_ZN5boost6detail17sp_counted_impl_pINS_10error_infoINS_27tag_original_exception_typeEPKSt9type_infoEEED0Ev:
.LFB14222:
	.cfi_startproc
	movl	$24, %esi
	jmp	_ZdlPvm
	.cfi_endproc
.LFE14222:
	.size	_ZN5boost6detail17sp_counted_impl_pINS_10error_infoINS_27tag_original_exception_typeEPKSt9type_infoEEED0Ev, .-_ZN5boost6detail17sp_counted_impl_pINS_10error_infoINS_27tag_original_exception_typeEPKSt9type_infoEEED0Ev
	.section	.text._ZN5boost6detail17sp_counted_impl_pINS_16exception_detail10clone_implINS2_14bad_exception_EEEED0Ev,"axG",@progbits,_ZN5boost6detail17sp_counted_impl_pINS_16exception_detail10clone_implINS2_14bad_exception_EEEED5Ev,comdat
	.align 2
	.p2align 4,,15
	.weak	_ZN5boost6detail17sp_counted_impl_pINS_16exception_detail10clone_implINS2_14bad_exception_EEEED0Ev
	.type	_ZN5boost6detail17sp_counted_impl_pINS_16exception_detail10clone_implINS2_14bad_exception_EEEED0Ev, @function
_ZN5boost6detail17sp_counted_impl_pINS_16exception_detail10clone_implINS2_14bad_exception_EEEED0Ev:
.LFB14266:
	.cfi_startproc
	movl	$24, %esi
	jmp	_ZdlPvm
	.cfi_endproc
.LFE14266:
	.size	_ZN5boost6detail17sp_counted_impl_pINS_16exception_detail10clone_implINS2_14bad_exception_EEEED0Ev, .-_ZN5boost6detail17sp_counted_impl_pINS_16exception_detail10clone_implINS2_14bad_exception_EEEED0Ev
	.section	.text._ZN5boost6detail17sp_counted_impl_pINS_16exception_detail10clone_implINS2_10bad_alloc_EEEED0Ev,"axG",@progbits,_ZN5boost6detail17sp_counted_impl_pINS_16exception_detail10clone_implINS2_10bad_alloc_EEEED5Ev,comdat
	.align 2
	.p2align 4,,15
	.weak	_ZN5boost6detail17sp_counted_impl_pINS_16exception_detail10clone_implINS2_10bad_alloc_EEEED0Ev
	.type	_ZN5boost6detail17sp_counted_impl_pINS_16exception_detail10clone_implINS2_10bad_alloc_EEEED0Ev, @function
_ZN5boost6detail17sp_counted_impl_pINS_16exception_detail10clone_implINS2_10bad_alloc_EEEED0Ev:
.LFB14270:
	.cfi_startproc
	movl	$24, %esi
	jmp	_ZdlPvm
	.cfi_endproc
.LFE14270:
	.size	_ZN5boost6detail17sp_counted_impl_pINS_16exception_detail10clone_implINS2_10bad_alloc_EEEED0Ev, .-_ZN5boost6detail17sp_counted_impl_pINS_16exception_detail10clone_implINS2_10bad_alloc_EEEED0Ev
	.section	.text._ZN5boost6detail17sp_counted_impl_pIKNS_16exception_detail10clone_baseEED0Ev,"axG",@progbits,_ZN5boost6detail17sp_counted_impl_pIKNS_16exception_detail10clone_baseEED5Ev,comdat
	.align 2
	.p2align 4,,15
	.weak	_ZN5boost6detail17sp_counted_impl_pIKNS_16exception_detail10clone_baseEED0Ev
	.type	_ZN5boost6detail17sp_counted_impl_pIKNS_16exception_detail10clone_baseEED0Ev, @function
_ZN5boost6detail17sp_counted_impl_pIKNS_16exception_detail10clone_baseEED0Ev:
.LFB14282:
	.cfi_startproc
	movl	$24, %esi
	jmp	_ZdlPvm
	.cfi_endproc
.LFE14282:
	.size	_ZN5boost6detail17sp_counted_impl_pIKNS_16exception_detail10clone_baseEED0Ev, .-_ZN5boost6detail17sp_counted_impl_pIKNS_16exception_detail10clone_baseEED0Ev
	.text
	.align 2
	.p2align 4,,15
	.type	_ZN5boost6detail17sp_counted_impl_pINS0_17task_shared_stateIZ4mainEUlvE_iEEED0Ev, @function
_ZN5boost6detail17sp_counted_impl_pINS0_17task_shared_stateIZ4mainEUlvE_iEEED0Ev:
.LFB14258:
	.cfi_startproc
	movl	$24, %esi
	jmp	_ZdlPvm
	.cfi_endproc
.LFE14258:
	.size	_ZN5boost6detail17sp_counted_impl_pINS0_17task_shared_stateIZ4mainEUlvE_iEEED0Ev, .-_ZN5boost6detail17sp_counted_impl_pINS0_17task_shared_stateIZ4mainEUlvE_iEEED0Ev
	.align 2
	.p2align 4,,15
	.type	_ZN5boost6detail17sp_counted_impl_pINS0_41future_deferred_continuation_shared_stateINS_6futureIiEEiZ4mainEUlT_E0_EEED0Ev, @function
_ZN5boost6detail17sp_counted_impl_pINS0_41future_deferred_continuation_shared_stateINS_6futureIiEEiZ4mainEUlT_E0_EEED0Ev:
.LFB14250:
	.cfi_startproc
	movl	$24, %esi
	jmp	_ZdlPvm
	.cfi_endproc
.LFE14250:
	.size	_ZN5boost6detail17sp_counted_impl_pINS0_41future_deferred_continuation_shared_stateINS_6futureIiEEiZ4mainEUlT_E0_EEED0Ev, .-_ZN5boost6detail17sp_counted_impl_pINS0_41future_deferred_continuation_shared_stateINS_6futureIiEEiZ4mainEUlT_E0_EEED0Ev
	.align 2
	.p2align 4,,15
	.type	_ZN5boost6detail17sp_counted_impl_pINS0_11thread_dataINS_3_bi6bind_tIvPFvNS_10shared_ptrINS0_17shared_state_baseEEEENS3_5list1INS3_5valueINS5_INS0_38future_async_continuation_shared_stateINS_6futureIiEEiZ4mainEUlT_E0_EEEEEEEEEEEEED0Ev, @function
_ZN5boost6detail17sp_counted_impl_pINS0_11thread_dataINS_3_bi6bind_tIvPFvNS_10shared_ptrINS0_17shared_state_baseEEEENS3_5list1INS3_5valueINS5_INS0_38future_async_continuation_shared_stateINS_6futureIiEEiZ4mainEUlT_E0_EEEEEEEEEEEEED0Ev:
.LFB15081:
	.cfi_startproc
	movl	$24, %esi
	jmp	_ZdlPvm
	.cfi_endproc
.LFE15081:
	.size	_ZN5boost6detail17sp_counted_impl_pINS0_11thread_dataINS_3_bi6bind_tIvPFvNS_10shared_ptrINS0_17shared_state_baseEEEENS3_5list1INS3_5valueINS5_INS0_38future_async_continuation_shared_stateINS_6futureIiEEiZ4mainEUlT_E0_EEEEEEEEEEEEED0Ev, .-_ZN5boost6detail17sp_counted_impl_pINS0_11thread_dataINS_3_bi6bind_tIvPFvNS_10shared_ptrINS0_17shared_state_baseEEEENS3_5list1INS3_5valueINS5_INS0_38future_async_continuation_shared_stateINS_6futureIiEEiZ4mainEUlT_E0_EEEEEEEEEEEEED0Ev
	.align 2
	.p2align 4,,15
	.type	_ZN5boost6detail17sp_counted_impl_pINS0_38future_async_continuation_shared_stateINS_6futureIiEEiZ4mainEUlT_E0_EEED0Ev, @function
_ZN5boost6detail17sp_counted_impl_pINS0_38future_async_continuation_shared_stateINS_6futureIiEEiZ4mainEUlT_E0_EEED0Ev:
.LFB14254:
	.cfi_startproc
	movl	$24, %esi
	jmp	_ZdlPvm
	.cfi_endproc
.LFE14254:
	.size	_ZN5boost6detail17sp_counted_impl_pINS0_38future_async_continuation_shared_stateINS_6futureIiEEiZ4mainEUlT_E0_EEED0Ev, .-_ZN5boost6detail17sp_counted_impl_pINS0_38future_async_continuation_shared_stateINS_6futureIiEEiZ4mainEUlT_E0_EEED0Ev
	.align 2
	.p2align 4,,15
	.type	_ZN5boost6detail17sp_counted_impl_pINS0_41future_deferred_continuation_shared_stateINS_6futureIiEEiZ4mainEUlT_E1_EEED0Ev, @function
_ZN5boost6detail17sp_counted_impl_pINS0_41future_deferred_continuation_shared_stateINS_6futureIiEEiZ4mainEUlT_E1_EEED0Ev:
.LFB14242:
	.cfi_startproc
	movl	$24, %esi
	jmp	_ZdlPvm
	.cfi_endproc
.LFE14242:
	.size	_ZN5boost6detail17sp_counted_impl_pINS0_41future_deferred_continuation_shared_stateINS_6futureIiEEiZ4mainEUlT_E1_EEED0Ev, .-_ZN5boost6detail17sp_counted_impl_pINS0_41future_deferred_continuation_shared_stateINS_6futureIiEEiZ4mainEUlT_E1_EEED0Ev
	.align 2
	.p2align 4,,15
	.type	_ZN5boost6detail17sp_counted_impl_pINS0_11thread_dataINS_3_bi6bind_tIvPFvNS_10shared_ptrINS0_17shared_state_baseEEEENS3_5list1INS3_5valueINS5_INS0_38future_async_continuation_shared_stateINS_6futureIiEEiZ4mainEUlT_E1_EEEEEEEEEEEEED0Ev, @function
_ZN5boost6detail17sp_counted_impl_pINS0_11thread_dataINS_3_bi6bind_tIvPFvNS_10shared_ptrINS0_17shared_state_baseEEEENS3_5list1INS3_5valueINS5_INS0_38future_async_continuation_shared_stateINS_6futureIiEEiZ4mainEUlT_E1_EEEEEEEEEEEEED0Ev:
.LFB15085:
	.cfi_startproc
	movl	$24, %esi
	jmp	_ZdlPvm
	.cfi_endproc
.LFE15085:
	.size	_ZN5boost6detail17sp_counted_impl_pINS0_11thread_dataINS_3_bi6bind_tIvPFvNS_10shared_ptrINS0_17shared_state_baseEEEENS3_5list1INS3_5valueINS5_INS0_38future_async_continuation_shared_stateINS_6futureIiEEiZ4mainEUlT_E1_EEEEEEEEEEEEED0Ev, .-_ZN5boost6detail17sp_counted_impl_pINS0_11thread_dataINS_3_bi6bind_tIvPFvNS_10shared_ptrINS0_17shared_state_baseEEEENS3_5list1INS3_5valueINS5_INS0_38future_async_continuation_shared_stateINS_6futureIiEEiZ4mainEUlT_E1_EEEEEEEEEEEEED0Ev
	.align 2
	.p2align 4,,15
	.type	_ZN5boost6detail17sp_counted_impl_pINS0_38future_async_continuation_shared_stateINS_6futureIiEEiZ4mainEUlT_E1_EEED0Ev, @function
_ZN5boost6detail17sp_counted_impl_pINS0_38future_async_continuation_shared_stateINS_6futureIiEEiZ4mainEUlT_E1_EEED0Ev:
.LFB14246:
	.cfi_startproc
	movl	$24, %esi
	jmp	_ZdlPvm
	.cfi_endproc
.LFE14246:
	.size	_ZN5boost6detail17sp_counted_impl_pINS0_38future_async_continuation_shared_stateINS_6futureIiEEiZ4mainEUlT_E1_EEED0Ev, .-_ZN5boost6detail17sp_counted_impl_pINS0_38future_async_continuation_shared_stateINS_6futureIiEEiZ4mainEUlT_E1_EEED0Ev
	.align 2
	.p2align 4,,15
	.type	_ZN5boost6detail17sp_counted_impl_pINS0_41future_deferred_continuation_shared_stateINS_6futureIiEEiZ4mainEUlT_E2_EEED0Ev, @function
_ZN5boost6detail17sp_counted_impl_pINS0_41future_deferred_continuation_shared_stateINS_6futureIiEEiZ4mainEUlT_E2_EEED0Ev:
.LFB14234:
	.cfi_startproc
	movl	$24, %esi
	jmp	_ZdlPvm
	.cfi_endproc
.LFE14234:
	.size	_ZN5boost6detail17sp_counted_impl_pINS0_41future_deferred_continuation_shared_stateINS_6futureIiEEiZ4mainEUlT_E2_EEED0Ev, .-_ZN5boost6detail17sp_counted_impl_pINS0_41future_deferred_continuation_shared_stateINS_6futureIiEEiZ4mainEUlT_E2_EEED0Ev
	.align 2
	.p2align 4,,15
	.type	_ZN5boost6detail17sp_counted_impl_pINS0_11thread_dataINS_3_bi6bind_tIvPFvNS_10shared_ptrINS0_17shared_state_baseEEEENS3_5list1INS3_5valueINS5_INS0_38future_async_continuation_shared_stateINS_6futureIiEEiZ4mainEUlT_E2_EEEEEEEEEEEEED0Ev, @function
_ZN5boost6detail17sp_counted_impl_pINS0_11thread_dataINS_3_bi6bind_tIvPFvNS_10shared_ptrINS0_17shared_state_baseEEEENS3_5list1INS3_5valueINS5_INS0_38future_async_continuation_shared_stateINS_6futureIiEEiZ4mainEUlT_E2_EEEEEEEEEEEEED0Ev:
.LFB15089:
	.cfi_startproc
	movl	$24, %esi
	jmp	_ZdlPvm
	.cfi_endproc
.LFE15089:
	.size	_ZN5boost6detail17sp_counted_impl_pINS0_11thread_dataINS_3_bi6bind_tIvPFvNS_10shared_ptrINS0_17shared_state_baseEEEENS3_5list1INS3_5valueINS5_INS0_38future_async_continuation_shared_stateINS_6futureIiEEiZ4mainEUlT_E2_EEEEEEEEEEEEED0Ev, .-_ZN5boost6detail17sp_counted_impl_pINS0_11thread_dataINS_3_bi6bind_tIvPFvNS_10shared_ptrINS0_17shared_state_baseEEEENS3_5list1INS3_5valueINS5_INS0_38future_async_continuation_shared_stateINS_6futureIiEEiZ4mainEUlT_E2_EEEEEEEEEEEEED0Ev
	.align 2
	.p2align 4,,15
	.type	_ZN5boost6detail17sp_counted_impl_pINS0_38future_async_continuation_shared_stateINS_6futureIiEEiZ4mainEUlT_E2_EEED0Ev, @function
_ZN5boost6detail17sp_counted_impl_pINS0_38future_async_continuation_shared_stateINS_6futureIiEEiZ4mainEUlT_E2_EEED0Ev:
.LFB14238:
	.cfi_startproc
	movl	$24, %esi
	jmp	_ZdlPvm
	.cfi_endproc
.LFE14238:
	.size	_ZN5boost6detail17sp_counted_impl_pINS0_38future_async_continuation_shared_stateINS_6futureIiEEiZ4mainEUlT_E2_EEED0Ev, .-_ZN5boost6detail17sp_counted_impl_pINS0_38future_async_continuation_shared_stateINS_6futureIiEEiZ4mainEUlT_E2_EEED0Ev
	.align 2
	.p2align 4,,15
	.type	_ZN5boost6detail17sp_counted_impl_pINS0_41future_deferred_continuation_shared_stateINS_6futureIiEEiZ4mainEUlT_E3_EEED0Ev, @function
_ZN5boost6detail17sp_counted_impl_pINS0_41future_deferred_continuation_shared_stateINS_6futureIiEEiZ4mainEUlT_E3_EEED0Ev:
.LFB14226:
	.cfi_startproc
	movl	$24, %esi
	jmp	_ZdlPvm
	.cfi_endproc
.LFE14226:
	.size	_ZN5boost6detail17sp_counted_impl_pINS0_41future_deferred_continuation_shared_stateINS_6futureIiEEiZ4mainEUlT_E3_EEED0Ev, .-_ZN5boost6detail17sp_counted_impl_pINS0_41future_deferred_continuation_shared_stateINS_6futureIiEEiZ4mainEUlT_E3_EEED0Ev
	.align 2
	.p2align 4,,15
	.type	_ZN5boost6detail17sp_counted_impl_pINS0_11thread_dataINS_3_bi6bind_tIvPFvNS_10shared_ptrINS0_17shared_state_baseEEEENS3_5list1INS3_5valueINS5_INS0_38future_async_continuation_shared_stateINS_6futureIiEEiZ4mainEUlT_E3_EEEEEEEEEEEEED0Ev, @function
_ZN5boost6detail17sp_counted_impl_pINS0_11thread_dataINS_3_bi6bind_tIvPFvNS_10shared_ptrINS0_17shared_state_baseEEEENS3_5list1INS3_5valueINS5_INS0_38future_async_continuation_shared_stateINS_6futureIiEEiZ4mainEUlT_E3_EEEEEEEEEEEEED0Ev:
.LFB15093:
	.cfi_startproc
	movl	$24, %esi
	jmp	_ZdlPvm
	.cfi_endproc
.LFE15093:
	.size	_ZN5boost6detail17sp_counted_impl_pINS0_11thread_dataINS_3_bi6bind_tIvPFvNS_10shared_ptrINS0_17shared_state_baseEEEENS3_5list1INS3_5valueINS5_INS0_38future_async_continuation_shared_stateINS_6futureIiEEiZ4mainEUlT_E3_EEEEEEEEEEEEED0Ev, .-_ZN5boost6detail17sp_counted_impl_pINS0_11thread_dataINS_3_bi6bind_tIvPFvNS_10shared_ptrINS0_17shared_state_baseEEEENS3_5list1INS3_5valueINS5_INS0_38future_async_continuation_shared_stateINS_6futureIiEEiZ4mainEUlT_E3_EEEEEEEEEEEEED0Ev
	.align 2
	.p2align 4,,15
	.type	_ZN5boost6detail17sp_counted_impl_pINS0_38future_async_continuation_shared_stateINS_6futureIiEEiZ4mainEUlT_E3_EEED0Ev, @function
_ZN5boost6detail17sp_counted_impl_pINS0_38future_async_continuation_shared_stateINS_6futureIiEEiZ4mainEUlT_E3_EEED0Ev:
.LFB14230:
	.cfi_startproc
	movl	$24, %esi
	jmp	_ZdlPvm
	.cfi_endproc
.LFE14230:
	.size	_ZN5boost6detail17sp_counted_impl_pINS0_38future_async_continuation_shared_stateINS_6futureIiEEiZ4mainEUlT_E3_EEED0Ev, .-_ZN5boost6detail17sp_counted_impl_pINS0_38future_async_continuation_shared_stateINS_6futureIiEEiZ4mainEUlT_E3_EEED0Ev
	.section	.text._ZN5boost10error_infoINS_27tag_original_exception_typeEPKSt9type_infoED0Ev,"axG",@progbits,_ZN5boost10error_infoINS_27tag_original_exception_typeEPKSt9type_infoED5Ev,comdat
	.align 2
	.p2align 4,,15
	.weak	_ZN5boost10error_infoINS_27tag_original_exception_typeEPKSt9type_infoED0Ev
	.type	_ZN5boost10error_infoINS_27tag_original_exception_typeEPKSt9type_infoED0Ev, @function
_ZN5boost10error_infoINS_27tag_original_exception_typeEPKSt9type_infoED0Ev:
.LFB11911:
	.cfi_startproc
	movl	$16, %esi
	jmp	_ZdlPvm
	.cfi_endproc
.LFE11911:
	.size	_ZN5boost10error_infoINS_27tag_original_exception_typeEPKSt9type_infoED0Ev, .-_ZN5boost10error_infoINS_27tag_original_exception_typeEPKSt9type_infoED0Ev
	.section	.text._ZN5boost17bad_function_callD2Ev,"axG",@progbits,_ZN5boost17bad_function_callD5Ev,comdat
	.align 2
	.p2align 4,,15
	.weak	_ZN5boost17bad_function_callD2Ev
	.type	_ZN5boost17bad_function_callD2Ev, @function
_ZN5boost17bad_function_callD2Ev:
.LFB11431:
	.cfi_startproc
	movq	$_ZTVN5boost17bad_function_callE+16, (%rdi)
	jmp	_ZNSt13runtime_errorD2Ev
	.cfi_endproc
.LFE11431:
	.size	_ZN5boost17bad_function_callD2Ev, .-_ZN5boost17bad_function_callD2Ev
	.weak	_ZN5boost17bad_function_callD1Ev
	.set	_ZN5boost17bad_function_callD1Ev,_ZN5boost17bad_function_callD2Ev
	.section	.text._ZN5boost17bad_function_callD0Ev,"axG",@progbits,_ZN5boost17bad_function_callD5Ev,comdat
	.align 2
	.p2align 4,,15
	.weak	_ZN5boost17bad_function_callD0Ev
	.type	_ZN5boost17bad_function_callD0Ev, @function
_ZN5boost17bad_function_callD0Ev:
.LFB11433:
	.cfi_startproc
	pushq	%rbx
	.cfi_def_cfa_offset 16
	.cfi_offset 3, -16
	movq	%rdi, %rbx
	movq	$_ZTVN5boost17bad_function_callE+16, (%rdi)
	call	_ZNSt13runtime_errorD2Ev
	movq	%rbx, %rdi
	movl	$16, %esi
	popq	%rbx
	.cfi_def_cfa_offset 8
	jmp	_ZdlPvm
	.cfi_endproc
.LFE11433:
	.size	_ZN5boost17bad_function_callD0Ev, .-_ZN5boost17bad_function_callD0Ev
	.section	.text._ZN5boost16exception_detail19error_info_injectorINS_17bad_function_callEED2Ev,"axG",@progbits,_ZN5boost16exception_detail19error_info_injectorINS_17bad_function_callEED5Ev,comdat
	.align 2
	.p2align 4,,15
	.weak	_ZN5boost16exception_detail19error_info_injectorINS_17bad_function_callEED2Ev
	.type	_ZN5boost16exception_detail19error_info_injectorINS_17bad_function_callEED2Ev, @function
_ZN5boost16exception_detail19error_info_injectorINS_17bad_function_callEED2Ev:
.LFB12860:
	.cfi_startproc
	.cfi_personality 0x3,__gxx_personality_v0
	.cfi_lsda 0x3,.LLSDA12860
	pushq	%rbx
	.cfi_def_cfa_offset 16
	.cfi_offset 3, -16
	movq	%rdi, %rbx
	movq	$_ZTVN5boost16exception_detail19error_info_injectorINS_17bad_function_callEEE+16, (%rdi)
	movq	$_ZTVN5boost9exceptionE+16, 16(%rdi)
	movq	24(%rdi), %rdi
	testq	%rdi, %rdi
	je	.L68
	movq	(%rdi), %rax
	call	*32(%rax)
.L68:
	movq	$_ZTVN5boost17bad_function_callE+16, (%rbx)
	movq	%rbx, %rdi
	popq	%rbx
	.cfi_def_cfa_offset 8
	jmp	_ZNSt13runtime_errorD2Ev
	.cfi_endproc
.LFE12860:
	.globl	__gxx_personality_v0
	.section	.gcc_except_table._ZN5boost16exception_detail19error_info_injectorINS_17bad_function_callEED2Ev,"aG",@progbits,_ZN5boost16exception_detail19error_info_injectorINS_17bad_function_callEED5Ev,comdat
.LLSDA12860:
	.byte	0xff
	.byte	0xff
	.byte	0x1
	.uleb128 .LLSDACSE12860-.LLSDACSB12860
.LLSDACSB12860:
.LLSDACSE12860:
	.section	.text._ZN5boost16exception_detail19error_info_injectorINS_17bad_function_callEED2Ev,"axG",@progbits,_ZN5boost16exception_detail19error_info_injectorINS_17bad_function_callEED5Ev,comdat
	.size	_ZN5boost16exception_detail19error_info_injectorINS_17bad_function_callEED2Ev, .-_ZN5boost16exception_detail19error_info_injectorINS_17bad_function_callEED2Ev
	.weak	_ZN5boost16exception_detail19error_info_injectorINS_17bad_function_callEED1Ev
	.set	_ZN5boost16exception_detail19error_info_injectorINS_17bad_function_callEED1Ev,_ZN5boost16exception_detail19error_info_injectorINS_17bad_function_callEED2Ev
	.set	.LTHUNK164,_ZN5boost16exception_detail19error_info_injectorINS_17bad_function_callEED1Ev
	.p2align 4,,15
	.weak	_ZThn16_N5boost16exception_detail19error_info_injectorINS_17bad_function_callEED1Ev
	.type	_ZThn16_N5boost16exception_detail19error_info_injectorINS_17bad_function_callEED1Ev, @function
_ZThn16_N5boost16exception_detail19error_info_injectorINS_17bad_function_callEED1Ev:
.LFB15728:
	.cfi_startproc
	subq	$16, %rdi
	jmp	.LTHUNK164
	.cfi_endproc
.LFE15728:
	.size	_ZThn16_N5boost16exception_detail19error_info_injectorINS_17bad_function_callEED1Ev, .-_ZThn16_N5boost16exception_detail19error_info_injectorINS_17bad_function_callEED1Ev
	.section	.text._ZN5boost16exception_detail19error_info_injectorINS_17bad_function_callEED0Ev,"axG",@progbits,_ZN5boost16exception_detail19error_info_injectorINS_17bad_function_callEED5Ev,comdat
	.align 2
	.p2align 4,,15
	.weak	_ZN5boost16exception_detail19error_info_injectorINS_17bad_function_callEED0Ev
	.type	_ZN5boost16exception_detail19error_info_injectorINS_17bad_function_callEED0Ev, @function
_ZN5boost16exception_detail19error_info_injectorINS_17bad_function_callEED0Ev:
.LFB12862:
	.cfi_startproc
	pushq	%rbx
	.cfi_def_cfa_offset 16
	.cfi_offset 3, -16
	movq	%rdi, %rbx
	call	_ZN5boost16exception_detail19error_info_injectorINS_17bad_function_callEED1Ev
	movq	%rbx, %rdi
	movl	$56, %esi
	popq	%rbx
	.cfi_def_cfa_offset 8
	jmp	_ZdlPvm
	.cfi_endproc
.LFE12862:
	.size	_ZN5boost16exception_detail19error_info_injectorINS_17bad_function_callEED0Ev, .-_ZN5boost16exception_detail19error_info_injectorINS_17bad_function_callEED0Ev
	.section	.text._ZN5boost16exception_detail10clone_implINS0_19error_info_injectorINS_17bad_function_callEEEED1Ev,"axG",@progbits,_ZN5boost16exception_detail10clone_implINS0_19error_info_injectorINS_17bad_function_callEEEED1Ev,comdat
	.align 2
	.p2align 4,,15
	.weak	_ZN5boost16exception_detail10clone_implINS0_19error_info_injectorINS_17bad_function_callEEEED1Ev
	.type	_ZN5boost16exception_detail10clone_implINS0_19error_info_injectorINS_17bad_function_callEEEED1Ev, @function
_ZN5boost16exception_detail10clone_implINS0_19error_info_injectorINS_17bad_function_callEEEED1Ev:
.LFB12866:
	.cfi_startproc
	movq	$_ZTVN5boost16exception_detail10clone_implINS0_19error_info_injectorINS_17bad_function_callEEEEE+24, (%rdi)
	movq	$_ZTVN5boost16exception_detail10clone_implINS0_19error_info_injectorINS_17bad_function_callEEEEE+80, 16(%rdi)
	movq	$_ZTVN5boost16exception_detail10clone_implINS0_19error_info_injectorINS_17bad_function_callEEEEE+136, 56(%rdi)
	jmp	_ZN5boost16exception_detail19error_info_injectorINS_17bad_function_callEED2Ev
	.cfi_endproc
.LFE12866:
	.size	_ZN5boost16exception_detail10clone_implINS0_19error_info_injectorINS_17bad_function_callEEEED1Ev, .-_ZN5boost16exception_detail10clone_implINS0_19error_info_injectorINS_17bad_function_callEEEED1Ev
	.section	.text._ZN5boost16exception_detail10clone_implINS0_19error_info_injectorINS_17bad_function_callEEEED0Ev,"axG",@progbits,_ZN5boost16exception_detail10clone_implINS0_19error_info_injectorINS_17bad_function_callEEEED0Ev,comdat
	.align 2
	.p2align 4,,15
	.weak	_ZN5boost16exception_detail10clone_implINS0_19error_info_injectorINS_17bad_function_callEEEED0Ev
	.type	_ZN5boost16exception_detail10clone_implINS0_19error_info_injectorINS_17bad_function_callEEEED0Ev, @function
_ZN5boost16exception_detail10clone_implINS0_19error_info_injectorINS_17bad_function_callEEEED0Ev:
.LFB12867:
	.cfi_startproc
	pushq	%rbx
	.cfi_def_cfa_offset 16
	.cfi_offset 3, -16
	movq	%rdi, %rbx
	movq	$_ZTVN5boost16exception_detail10clone_implINS0_19error_info_injectorINS_17bad_function_callEEEEE+24, (%rdi)
	movq	$_ZTVN5boost16exception_detail10clone_implINS0_19error_info_injectorINS_17bad_function_callEEEEE+80, 16(%rdi)
	movq	$_ZTVN5boost16exception_detail10clone_implINS0_19error_info_injectorINS_17bad_function_callEEEEE+136, 56(%rdi)
	call	_ZN5boost16exception_detail19error_info_injectorINS_17bad_function_callEED2Ev
	movq	%rbx, %rdi
	movl	$64, %esi
	popq	%rbx
	.cfi_def_cfa_offset 8
	jmp	_ZdlPvm
	.cfi_endproc
.LFE12867:
	.size	_ZN5boost16exception_detail10clone_implINS0_19error_info_injectorINS_17bad_function_callEEEED0Ev, .-_ZN5boost16exception_detail10clone_implINS0_19error_info_injectorINS_17bad_function_callEEEED0Ev
	.section	.text._ZN5boost16exception_detail39current_exception_std_exception_wrapperISt13runtime_errorED2Ev,"axG",@progbits,_ZN5boost16exception_detail39current_exception_std_exception_wrapperISt13runtime_errorED5Ev,comdat
	.align 2
	.p2align 4,,15
	.weak	_ZN5boost16exception_detail39current_exception_std_exception_wrapperISt13runtime_errorED2Ev
	.type	_ZN5boost16exception_detail39current_exception_std_exception_wrapperISt13runtime_errorED2Ev, @function
_ZN5boost16exception_detail39current_exception_std_exception_wrapperISt13runtime_errorED2Ev:
.LFB12090:
	.cfi_startproc
	.cfi_personality 0x3,__gxx_personality_v0
	.cfi_lsda 0x3,.LLSDA12090
	pushq	%rbx
	.cfi_def_cfa_offset 16
	.cfi_offset 3, -16
	movq	%rdi, %rbx
	movq	$_ZTVN5boost16exception_detail39current_exception_std_exception_wrapperISt13runtime_errorEE+16, (%rdi)
	movq	$_ZTVN5boost9exceptionE+16, 16(%rdi)
	movq	24(%rdi), %rdi
	testq	%rdi, %rdi
	je	.L79
	movq	(%rdi), %rax
	call	*32(%rax)
.L79:
	movq	%rbx, %rdi
	popq	%rbx
	.cfi_def_cfa_offset 8
	jmp	_ZNSt13runtime_errorD2Ev
	.cfi_endproc
.LFE12090:
	.section	.gcc_except_table._ZN5boost16exception_detail39current_exception_std_exception_wrapperISt13runtime_errorED2Ev,"aG",@progbits,_ZN5boost16exception_detail39current_exception_std_exception_wrapperISt13runtime_errorED5Ev,comdat
.LLSDA12090:
	.byte	0xff
	.byte	0xff
	.byte	0x1
	.uleb128 .LLSDACSE12090-.LLSDACSB12090
.LLSDACSB12090:
.LLSDACSE12090:
	.section	.text._ZN5boost16exception_detail39current_exception_std_exception_wrapperISt13runtime_errorED2Ev,"axG",@progbits,_ZN5boost16exception_detail39current_exception_std_exception_wrapperISt13runtime_errorED5Ev,comdat
	.size	_ZN5boost16exception_detail39current_exception_std_exception_wrapperISt13runtime_errorED2Ev, .-_ZN5boost16exception_detail39current_exception_std_exception_wrapperISt13runtime_errorED2Ev
	.weak	_ZN5boost16exception_detail39current_exception_std_exception_wrapperISt13runtime_errorED1Ev
	.set	_ZN5boost16exception_detail39current_exception_std_exception_wrapperISt13runtime_errorED1Ev,_ZN5boost16exception_detail39current_exception_std_exception_wrapperISt13runtime_errorED2Ev
	.set	.LTHUNK78,_ZN5boost16exception_detail39current_exception_std_exception_wrapperISt13runtime_errorED1Ev
	.p2align 4,,15
	.weak	_ZThn16_N5boost16exception_detail39current_exception_std_exception_wrapperISt13runtime_errorED1Ev
	.type	_ZThn16_N5boost16exception_detail39current_exception_std_exception_wrapperISt13runtime_errorED1Ev, @function
_ZThn16_N5boost16exception_detail39current_exception_std_exception_wrapperISt13runtime_errorED1Ev:
.LFB15732:
	.cfi_startproc
	subq	$16, %rdi
	jmp	.LTHUNK78
	.cfi_endproc
.LFE15732:
	.size	_ZThn16_N5boost16exception_detail39current_exception_std_exception_wrapperISt13runtime_errorED1Ev, .-_ZThn16_N5boost16exception_detail39current_exception_std_exception_wrapperISt13runtime_errorED1Ev
	.section	.text._ZN5boost16exception_detail39current_exception_std_exception_wrapperISt13runtime_errorED0Ev,"axG",@progbits,_ZN5boost16exception_detail39current_exception_std_exception_wrapperISt13runtime_errorED5Ev,comdat
	.align 2
	.p2align 4,,15
	.weak	_ZN5boost16exception_detail39current_exception_std_exception_wrapperISt13runtime_errorED0Ev
	.type	_ZN5boost16exception_detail39current_exception_std_exception_wrapperISt13runtime_errorED0Ev, @function
_ZN5boost16exception_detail39current_exception_std_exception_wrapperISt13runtime_errorED0Ev:
.LFB12092:
	.cfi_startproc
	pushq	%rbx
	.cfi_def_cfa_offset 16
	.cfi_offset 3, -16
	movq	%rdi, %rbx
	call	_ZN5boost16exception_detail39current_exception_std_exception_wrapperISt13runtime_errorED1Ev
	movq	%rbx, %rdi
	movl	$56, %esi
	popq	%rbx
	.cfi_def_cfa_offset 8
	jmp	_ZdlPvm
	.cfi_endproc
.LFE12092:
	.size	_ZN5boost16exception_detail39current_exception_std_exception_wrapperISt13runtime_errorED0Ev, .-_ZN5boost16exception_detail39current_exception_std_exception_wrapperISt13runtime_errorED0Ev
	.section	.text._ZN5boost16exception_detail10clone_implINS0_39current_exception_std_exception_wrapperISt13runtime_errorEEED1Ev,"axG",@progbits,_ZN5boost16exception_detail10clone_implINS0_39current_exception_std_exception_wrapperISt13runtime_errorEEED1Ev,comdat
	.align 2
	.p2align 4,,15
	.weak	_ZN5boost16exception_detail10clone_implINS0_39current_exception_std_exception_wrapperISt13runtime_errorEEED1Ev
	.type	_ZN5boost16exception_detail10clone_implINS0_39current_exception_std_exception_wrapperISt13runtime_errorEEED1Ev, @function
_ZN5boost16exception_detail10clone_implINS0_39current_exception_std_exception_wrapperISt13runtime_errorEEED1Ev:
.LFB12769:
	.cfi_startproc
	movq	$_ZTVN5boost16exception_detail10clone_implINS0_39current_exception_std_exception_wrapperISt13runtime_errorEEEE+24, (%rdi)
	movq	$_ZTVN5boost16exception_detail10clone_implINS0_39current_exception_std_exception_wrapperISt13runtime_errorEEEE+80, 16(%rdi)
	movq	$_ZTVN5boost16exception_detail10clone_implINS0_39current_exception_std_exception_wrapperISt13runtime_errorEEEE+136, 56(%rdi)
	jmp	_ZN5boost16exception_detail39current_exception_std_exception_wrapperISt13runtime_errorED2Ev
	.cfi_endproc
.LFE12769:
	.size	_ZN5boost16exception_detail10clone_implINS0_39current_exception_std_exception_wrapperISt13runtime_errorEEED1Ev, .-_ZN5boost16exception_detail10clone_implINS0_39current_exception_std_exception_wrapperISt13runtime_errorEEED1Ev
	.section	.text._ZN5boost16exception_detail10clone_implINS0_39current_exception_std_exception_wrapperISt13runtime_errorEEED0Ev,"axG",@progbits,_ZN5boost16exception_detail10clone_implINS0_39current_exception_std_exception_wrapperISt13runtime_errorEEED0Ev,comdat
	.align 2
	.p2align 4,,15
	.weak	_ZN5boost16exception_detail10clone_implINS0_39current_exception_std_exception_wrapperISt13runtime_errorEEED0Ev
	.type	_ZN5boost16exception_detail10clone_implINS0_39current_exception_std_exception_wrapperISt13runtime_errorEEED0Ev, @function
_ZN5boost16exception_detail10clone_implINS0_39current_exception_std_exception_wrapperISt13runtime_errorEEED0Ev:
.LFB12770:
	.cfi_startproc
	pushq	%rbx
	.cfi_def_cfa_offset 16
	.cfi_offset 3, -16
	movq	%rdi, %rbx
	movq	$_ZTVN5boost16exception_detail10clone_implINS0_39current_exception_std_exception_wrapperISt13runtime_errorEEEE+24, (%rdi)
	movq	$_ZTVN5boost16exception_detail10clone_implINS0_39current_exception_std_exception_wrapperISt13runtime_errorEEEE+80, 16(%rdi)
	movq	$_ZTVN5boost16exception_detail10clone_implINS0_39current_exception_std_exception_wrapperISt13runtime_errorEEEE+136, 56(%rdi)
	call	_ZN5boost16exception_detail39current_exception_std_exception_wrapperISt13runtime_errorED2Ev
	movq	%rbx, %rdi
	movl	$64, %esi
	popq	%rbx
	.cfi_def_cfa_offset 8
	jmp	_ZdlPvm
	.cfi_endproc
.LFE12770:
	.size	_ZN5boost16exception_detail10clone_implINS0_39current_exception_std_exception_wrapperISt13runtime_errorEEED0Ev, .-_ZN5boost16exception_detail10clone_implINS0_39current_exception_std_exception_wrapperISt13runtime_errorEEED0Ev
	.section	.text._ZN5boost6system12system_errorD2Ev,"axG",@progbits,_ZN5boost6system12system_errorD5Ev,comdat
	.align 2
	.p2align 4,,15
	.weak	_ZN5boost6system12system_errorD2Ev
	.type	_ZN5boost6system12system_errorD2Ev, @function
_ZN5boost6system12system_errorD2Ev:
.LFB6097:
	.cfi_startproc
	pushq	%rbx
	.cfi_def_cfa_offset 16
	.cfi_offset 3, -16
	movq	%rdi, %rbx
	movq	$_ZTVN5boost6system12system_errorE+16, (%rdi)
	movq	32(%rdi), %rdi
	leaq	48(%rbx), %rax
	cmpq	%rax, %rdi
	je	.L90
	call	_ZdlPv
.L90:
	movq	%rbx, %rdi
	popq	%rbx
	.cfi_def_cfa_offset 8
	jmp	_ZNSt13runtime_errorD2Ev
	.cfi_endproc
.LFE6097:
	.size	_ZN5boost6system12system_errorD2Ev, .-_ZN5boost6system12system_errorD2Ev
	.weak	_ZN5boost6system12system_errorD1Ev
	.set	_ZN5boost6system12system_errorD1Ev,_ZN5boost6system12system_errorD2Ev
	.section	.text._ZN5boost6system12system_errorD0Ev,"axG",@progbits,_ZN5boost6system12system_errorD5Ev,comdat
	.align 2
	.p2align 4,,15
	.weak	_ZN5boost6system12system_errorD0Ev
	.type	_ZN5boost6system12system_errorD0Ev, @function
_ZN5boost6system12system_errorD0Ev:
.LFB6099:
	.cfi_startproc
	pushq	%rbx
	.cfi_def_cfa_offset 16
	.cfi_offset 3, -16
	movq	%rdi, %rbx
	call	_ZN5boost6system12system_errorD1Ev
	movq	%rbx, %rdi
	movl	$64, %esi
	popq	%rbx
	.cfi_def_cfa_offset 8
	jmp	_ZdlPvm
	.cfi_endproc
.LFE6099:
	.size	_ZN5boost6system12system_errorD0Ev, .-_ZN5boost6system12system_errorD0Ev
	.section	.text._ZN5boost16thread_exceptionD2Ev,"axG",@progbits,_ZN5boost16thread_exceptionD5Ev,comdat
	.align 2
	.p2align 4,,15
	.weak	_ZN5boost16thread_exceptionD2Ev
	.type	_ZN5boost16thread_exceptionD2Ev, @function
_ZN5boost16thread_exceptionD2Ev:
.LFB6115:
	.cfi_startproc
	movq	$_ZTVN5boost16thread_exceptionE+16, (%rdi)
	jmp	_ZN5boost6system12system_errorD2Ev
	.cfi_endproc
.LFE6115:
	.size	_ZN5boost16thread_exceptionD2Ev, .-_ZN5boost16thread_exceptionD2Ev
	.weak	_ZN5boost16thread_exceptionD1Ev
	.set	_ZN5boost16thread_exceptionD1Ev,_ZN5boost16thread_exceptionD2Ev
	.section	.text._ZN5boost16thread_exceptionD0Ev,"axG",@progbits,_ZN5boost16thread_exceptionD5Ev,comdat
	.align 2
	.p2align 4,,15
	.weak	_ZN5boost16thread_exceptionD0Ev
	.type	_ZN5boost16thread_exceptionD0Ev, @function
_ZN5boost16thread_exceptionD0Ev:
.LFB6117:
	.cfi_startproc
	pushq	%rbx
	.cfi_def_cfa_offset 16
	.cfi_offset 3, -16
	movq	%rdi, %rbx
	movq	$_ZTVN5boost16thread_exceptionE+16, (%rdi)
	call	_ZN5boost6system12system_errorD2Ev
	movq	%rbx, %rdi
	movl	$64, %esi
	popq	%rbx
	.cfi_def_cfa_offset 8
	jmp	_ZdlPvm
	.cfi_endproc
.LFE6117:
	.size	_ZN5boost16thread_exceptionD0Ev, .-_ZN5boost16thread_exceptionD0Ev
	.section	.text._ZN5boost10lock_errorD2Ev,"axG",@progbits,_ZN5boost10lock_errorD5Ev,comdat
	.align 2
	.p2align 4,,15
	.weak	_ZN5boost10lock_errorD2Ev
	.type	_ZN5boost10lock_errorD2Ev, @function
_ZN5boost10lock_errorD2Ev:
.LFB6144:
	.cfi_startproc
	movq	$_ZTVN5boost16thread_exceptionE+16, (%rdi)
	jmp	_ZN5boost6system12system_errorD2Ev
	.cfi_endproc
.LFE6144:
	.size	_ZN5boost10lock_errorD2Ev, .-_ZN5boost10lock_errorD2Ev
	.weak	_ZN5boost10lock_errorD1Ev
	.set	_ZN5boost10lock_errorD1Ev,_ZN5boost10lock_errorD2Ev
	.section	.text._ZN5boost10lock_errorD0Ev,"axG",@progbits,_ZN5boost10lock_errorD5Ev,comdat
	.align 2
	.p2align 4,,15
	.weak	_ZN5boost10lock_errorD0Ev
	.type	_ZN5boost10lock_errorD0Ev, @function
_ZN5boost10lock_errorD0Ev:
.LFB6146:
	.cfi_startproc
	pushq	%rbx
	.cfi_def_cfa_offset 16
	.cfi_offset 3, -16
	movq	%rdi, %rbx
	movq	$_ZTVN5boost16thread_exceptionE+16, (%rdi)
	call	_ZN5boost6system12system_errorD2Ev
	movq	%rbx, %rdi
	movl	$64, %esi
	popq	%rbx
	.cfi_def_cfa_offset 8
	jmp	_ZdlPvm
	.cfi_endproc
.LFE6146:
	.size	_ZN5boost10lock_errorD0Ev, .-_ZN5boost10lock_errorD0Ev
	.section	.text._ZN5boost16exception_detail19error_info_injectorINS_10lock_errorEED2Ev,"axG",@progbits,_ZN5boost16exception_detail19error_info_injectorINS_10lock_errorEED5Ev,comdat
	.align 2
	.p2align 4,,15
	.weak	_ZN5boost16exception_detail19error_info_injectorINS_10lock_errorEED2Ev
	.type	_ZN5boost16exception_detail19error_info_injectorINS_10lock_errorEED2Ev, @function
_ZN5boost16exception_detail19error_info_injectorINS_10lock_errorEED2Ev:
.LFB11767:
	.cfi_startproc
	.cfi_personality 0x3,__gxx_personality_v0
	.cfi_lsda 0x3,.LLSDA11767
	pushq	%rbx
	.cfi_def_cfa_offset 16
	.cfi_offset 3, -16
	movq	%rdi, %rbx
	movq	$_ZTVN5boost16exception_detail19error_info_injectorINS_10lock_errorEEE+16, (%rdi)
	movq	$_ZTVN5boost9exceptionE+16, 64(%rdi)
	movq	72(%rdi), %rdi
	testq	%rdi, %rdi
	je	.L101
	movq	(%rdi), %rax
	call	*32(%rax)
.L101:
	movq	$_ZTVN5boost16thread_exceptionE+16, (%rbx)
	movq	%rbx, %rdi
	popq	%rbx
	.cfi_def_cfa_offset 8
	jmp	_ZN5boost6system12system_errorD2Ev
	.cfi_endproc
.LFE11767:
	.section	.gcc_except_table._ZN5boost16exception_detail19error_info_injectorINS_10lock_errorEED2Ev,"aG",@progbits,_ZN5boost16exception_detail19error_info_injectorINS_10lock_errorEED5Ev,comdat
.LLSDA11767:
	.byte	0xff
	.byte	0xff
	.byte	0x1
	.uleb128 .LLSDACSE11767-.LLSDACSB11767
.LLSDACSB11767:
.LLSDACSE11767:
	.section	.text._ZN5boost16exception_detail19error_info_injectorINS_10lock_errorEED2Ev,"axG",@progbits,_ZN5boost16exception_detail19error_info_injectorINS_10lock_errorEED5Ev,comdat
	.size	_ZN5boost16exception_detail19error_info_injectorINS_10lock_errorEED2Ev, .-_ZN5boost16exception_detail19error_info_injectorINS_10lock_errorEED2Ev
	.weak	_ZN5boost16exception_detail19error_info_injectorINS_10lock_errorEED1Ev
	.set	_ZN5boost16exception_detail19error_info_injectorINS_10lock_errorEED1Ev,_ZN5boost16exception_detail19error_info_injectorINS_10lock_errorEED2Ev
	.set	.LTHUNK36,_ZN5boost16exception_detail19error_info_injectorINS_10lock_errorEED1Ev
	.p2align 4,,15
	.weak	_ZThn64_N5boost16exception_detail19error_info_injectorINS_10lock_errorEED1Ev
	.type	_ZThn64_N5boost16exception_detail19error_info_injectorINS_10lock_errorEED1Ev, @function
_ZThn64_N5boost16exception_detail19error_info_injectorINS_10lock_errorEED1Ev:
.LFB15737:
	.cfi_startproc
	subq	$64, %rdi
	jmp	.LTHUNK36
	.cfi_endproc
.LFE15737:
	.size	_ZThn64_N5boost16exception_detail19error_info_injectorINS_10lock_errorEED1Ev, .-_ZThn64_N5boost16exception_detail19error_info_injectorINS_10lock_errorEED1Ev
	.section	.text._ZN5boost16exception_detail19error_info_injectorINS_10lock_errorEED0Ev,"axG",@progbits,_ZN5boost16exception_detail19error_info_injectorINS_10lock_errorEED5Ev,comdat
	.align 2
	.p2align 4,,15
	.weak	_ZN5boost16exception_detail19error_info_injectorINS_10lock_errorEED0Ev
	.type	_ZN5boost16exception_detail19error_info_injectorINS_10lock_errorEED0Ev, @function
_ZN5boost16exception_detail19error_info_injectorINS_10lock_errorEED0Ev:
.LFB11769:
	.cfi_startproc
	pushq	%rbx
	.cfi_def_cfa_offset 16
	.cfi_offset 3, -16
	movq	%rdi, %rbx
	call	_ZN5boost16exception_detail19error_info_injectorINS_10lock_errorEED1Ev
	movq	%rbx, %rdi
	movl	$104, %esi
	popq	%rbx
	.cfi_def_cfa_offset 8
	jmp	_ZdlPvm
	.cfi_endproc
.LFE11769:
	.size	_ZN5boost16exception_detail19error_info_injectorINS_10lock_errorEED0Ev, .-_ZN5boost16exception_detail19error_info_injectorINS_10lock_errorEED0Ev
	.section	.text._ZN5boost16exception_detail10clone_implINS0_19error_info_injectorINS_10lock_errorEEEED1Ev,"axG",@progbits,_ZN5boost16exception_detail10clone_implINS0_19error_info_injectorINS_10lock_errorEEEED1Ev,comdat
	.align 2
	.p2align 4,,15
	.weak	_ZN5boost16exception_detail10clone_implINS0_19error_info_injectorINS_10lock_errorEEEED1Ev
	.type	_ZN5boost16exception_detail10clone_implINS0_19error_info_injectorINS_10lock_errorEEEED1Ev, @function
_ZN5boost16exception_detail10clone_implINS0_19error_info_injectorINS_10lock_errorEEEED1Ev:
.LFB11773:
	.cfi_startproc
	movq	$_ZTVN5boost16exception_detail10clone_implINS0_19error_info_injectorINS_10lock_errorEEEEE+24, (%rdi)
	movq	$_ZTVN5boost16exception_detail10clone_implINS0_19error_info_injectorINS_10lock_errorEEEEE+80, 64(%rdi)
	movq	$_ZTVN5boost16exception_detail10clone_implINS0_19error_info_injectorINS_10lock_errorEEEEE+136, 104(%rdi)
	jmp	_ZN5boost16exception_detail19error_info_injectorINS_10lock_errorEED2Ev
	.cfi_endproc
.LFE11773:
	.size	_ZN5boost16exception_detail10clone_implINS0_19error_info_injectorINS_10lock_errorEEEED1Ev, .-_ZN5boost16exception_detail10clone_implINS0_19error_info_injectorINS_10lock_errorEEEED1Ev
	.section	.text._ZN5boost16exception_detail10clone_implINS0_19error_info_injectorINS_10lock_errorEEEED0Ev,"axG",@progbits,_ZN5boost16exception_detail10clone_implINS0_19error_info_injectorINS_10lock_errorEEEED0Ev,comdat
	.align 2
	.p2align 4,,15
	.weak	_ZN5boost16exception_detail10clone_implINS0_19error_info_injectorINS_10lock_errorEEEED0Ev
	.type	_ZN5boost16exception_detail10clone_implINS0_19error_info_injectorINS_10lock_errorEEEED0Ev, @function
_ZN5boost16exception_detail10clone_implINS0_19error_info_injectorINS_10lock_errorEEEED0Ev:
.LFB11774:
	.cfi_startproc
	pushq	%rbx
	.cfi_def_cfa_offset 16
	.cfi_offset 3, -16
	movq	%rdi, %rbx
	movq	$_ZTVN5boost16exception_detail10clone_implINS0_19error_info_injectorINS_10lock_errorEEEEE+24, (%rdi)
	movq	$_ZTVN5boost16exception_detail10clone_implINS0_19error_info_injectorINS_10lock_errorEEEEE+80, 64(%rdi)
	movq	$_ZTVN5boost16exception_detail10clone_implINS0_19error_info_injectorINS_10lock_errorEEEEE+136, 104(%rdi)
	call	_ZN5boost16exception_detail19error_info_injectorINS_10lock_errorEED2Ev
	movq	%rbx, %rdi
	movl	$112, %esi
	popq	%rbx
	.cfi_def_cfa_offset 8
	jmp	_ZdlPvm
	.cfi_endproc
.LFE11774:
	.size	_ZN5boost16exception_detail10clone_implINS0_19error_info_injectorINS_10lock_errorEEEED0Ev, .-_ZN5boost16exception_detail10clone_implINS0_19error_info_injectorINS_10lock_errorEEEED0Ev
	.section	.text._ZN5boost21thread_resource_errorD2Ev,"axG",@progbits,_ZN5boost21thread_resource_errorD5Ev,comdat
	.align 2
	.p2align 4,,15
	.weak	_ZN5boost21thread_resource_errorD2Ev
	.type	_ZN5boost21thread_resource_errorD2Ev, @function
_ZN5boost21thread_resource_errorD2Ev:
.LFB6160:
	.cfi_startproc
	movq	$_ZTVN5boost16thread_exceptionE+16, (%rdi)
	jmp	_ZN5boost6system12system_errorD2Ev
	.cfi_endproc
.LFE6160:
	.size	_ZN5boost21thread_resource_errorD2Ev, .-_ZN5boost21thread_resource_errorD2Ev
	.weak	_ZN5boost21thread_resource_errorD1Ev
	.set	_ZN5boost21thread_resource_errorD1Ev,_ZN5boost21thread_resource_errorD2Ev
	.section	.text._ZN5boost21thread_resource_errorD0Ev,"axG",@progbits,_ZN5boost21thread_resource_errorD5Ev,comdat
	.align 2
	.p2align 4,,15
	.weak	_ZN5boost21thread_resource_errorD0Ev
	.type	_ZN5boost21thread_resource_errorD0Ev, @function
_ZN5boost21thread_resource_errorD0Ev:
.LFB6162:
	.cfi_startproc
	pushq	%rbx
	.cfi_def_cfa_offset 16
	.cfi_offset 3, -16
	movq	%rdi, %rbx
	movq	$_ZTVN5boost16thread_exceptionE+16, (%rdi)
	call	_ZN5boost6system12system_errorD2Ev
	movq	%rbx, %rdi
	movl	$64, %esi
	popq	%rbx
	.cfi_def_cfa_offset 8
	jmp	_ZdlPvm
	.cfi_endproc
.LFE6162:
	.size	_ZN5boost21thread_resource_errorD0Ev, .-_ZN5boost21thread_resource_errorD0Ev
	.section	.text._ZN5boost16exception_detail19error_info_injectorINS_21thread_resource_errorEED2Ev,"axG",@progbits,_ZN5boost16exception_detail19error_info_injectorINS_21thread_resource_errorEED5Ev,comdat
	.align 2
	.p2align 4,,15
	.weak	_ZN5boost16exception_detail19error_info_injectorINS_21thread_resource_errorEED2Ev
	.type	_ZN5boost16exception_detail19error_info_injectorINS_21thread_resource_errorEED2Ev, @function
_ZN5boost16exception_detail19error_info_injectorINS_21thread_resource_errorEED2Ev:
.LFB11757:
	.cfi_startproc
	.cfi_personality 0x3,__gxx_personality_v0
	.cfi_lsda 0x3,.LLSDA11757
	pushq	%rbx
	.cfi_def_cfa_offset 16
	.cfi_offset 3, -16
	movq	%rdi, %rbx
	movq	$_ZTVN5boost16exception_detail19error_info_injectorINS_21thread_resource_errorEEE+16, (%rdi)
	movq	$_ZTVN5boost9exceptionE+16, 64(%rdi)
	movq	72(%rdi), %rdi
	testq	%rdi, %rdi
	je	.L115
	movq	(%rdi), %rax
	call	*32(%rax)
.L115:
	movq	$_ZTVN5boost16thread_exceptionE+16, (%rbx)
	movq	%rbx, %rdi
	popq	%rbx
	.cfi_def_cfa_offset 8
	jmp	_ZN5boost6system12system_errorD2Ev
	.cfi_endproc
.LFE11757:
	.section	.gcc_except_table._ZN5boost16exception_detail19error_info_injectorINS_21thread_resource_errorEED2Ev,"aG",@progbits,_ZN5boost16exception_detail19error_info_injectorINS_21thread_resource_errorEED5Ev,comdat
.LLSDA11757:
	.byte	0xff
	.byte	0xff
	.byte	0x1
	.uleb128 .LLSDACSE11757-.LLSDACSB11757
.LLSDACSB11757:
.LLSDACSE11757:
	.section	.text._ZN5boost16exception_detail19error_info_injectorINS_21thread_resource_errorEED2Ev,"axG",@progbits,_ZN5boost16exception_detail19error_info_injectorINS_21thread_resource_errorEED5Ev,comdat
	.size	_ZN5boost16exception_detail19error_info_injectorINS_21thread_resource_errorEED2Ev, .-_ZN5boost16exception_detail19error_info_injectorINS_21thread_resource_errorEED2Ev
	.weak	_ZN5boost16exception_detail19error_info_injectorINS_21thread_resource_errorEED1Ev
	.set	_ZN5boost16exception_detail19error_info_injectorINS_21thread_resource_errorEED1Ev,_ZN5boost16exception_detail19error_info_injectorINS_21thread_resource_errorEED2Ev
	.set	.LTHUNK30,_ZN5boost16exception_detail19error_info_injectorINS_21thread_resource_errorEED1Ev
	.p2align 4,,15
	.weak	_ZThn64_N5boost16exception_detail19error_info_injectorINS_21thread_resource_errorEED1Ev
	.type	_ZThn64_N5boost16exception_detail19error_info_injectorINS_21thread_resource_errorEED1Ev, @function
_ZThn64_N5boost16exception_detail19error_info_injectorINS_21thread_resource_errorEED1Ev:
.LFB15741:
	.cfi_startproc
	subq	$64, %rdi
	jmp	.LTHUNK30
	.cfi_endproc
.LFE15741:
	.size	_ZThn64_N5boost16exception_detail19error_info_injectorINS_21thread_resource_errorEED1Ev, .-_ZThn64_N5boost16exception_detail19error_info_injectorINS_21thread_resource_errorEED1Ev
	.section	.text._ZN5boost16exception_detail19error_info_injectorINS_21thread_resource_errorEED0Ev,"axG",@progbits,_ZN5boost16exception_detail19error_info_injectorINS_21thread_resource_errorEED5Ev,comdat
	.align 2
	.p2align 4,,15
	.weak	_ZN5boost16exception_detail19error_info_injectorINS_21thread_resource_errorEED0Ev
	.type	_ZN5boost16exception_detail19error_info_injectorINS_21thread_resource_errorEED0Ev, @function
_ZN5boost16exception_detail19error_info_injectorINS_21thread_resource_errorEED0Ev:
.LFB11759:
	.cfi_startproc
	pushq	%rbx
	.cfi_def_cfa_offset 16
	.cfi_offset 3, -16
	movq	%rdi, %rbx
	call	_ZN5boost16exception_detail19error_info_injectorINS_21thread_resource_errorEED1Ev
	movq	%rbx, %rdi
	movl	$104, %esi
	popq	%rbx
	.cfi_def_cfa_offset 8
	jmp	_ZdlPvm
	.cfi_endproc
.LFE11759:
	.size	_ZN5boost16exception_detail19error_info_injectorINS_21thread_resource_errorEED0Ev, .-_ZN5boost16exception_detail19error_info_injectorINS_21thread_resource_errorEED0Ev
	.section	.text._ZN5boost16exception_detail10clone_implINS0_19error_info_injectorINS_21thread_resource_errorEEEED1Ev,"axG",@progbits,_ZN5boost16exception_detail10clone_implINS0_19error_info_injectorINS_21thread_resource_errorEEEED1Ev,comdat
	.align 2
	.p2align 4,,15
	.weak	_ZN5boost16exception_detail10clone_implINS0_19error_info_injectorINS_21thread_resource_errorEEEED1Ev
	.type	_ZN5boost16exception_detail10clone_implINS0_19error_info_injectorINS_21thread_resource_errorEEEED1Ev, @function
_ZN5boost16exception_detail10clone_implINS0_19error_info_injectorINS_21thread_resource_errorEEEED1Ev:
.LFB11763:
	.cfi_startproc
	movq	$_ZTVN5boost16exception_detail10clone_implINS0_19error_info_injectorINS_21thread_resource_errorEEEEE+24, (%rdi)
	movq	$_ZTVN5boost16exception_detail10clone_implINS0_19error_info_injectorINS_21thread_resource_errorEEEEE+80, 64(%rdi)
	movq	$_ZTVN5boost16exception_detail10clone_implINS0_19error_info_injectorINS_21thread_resource_errorEEEEE+136, 104(%rdi)
	jmp	_ZN5boost16exception_detail19error_info_injectorINS_21thread_resource_errorEED2Ev
	.cfi_endproc
.LFE11763:
	.size	_ZN5boost16exception_detail10clone_implINS0_19error_info_injectorINS_21thread_resource_errorEEEED1Ev, .-_ZN5boost16exception_detail10clone_implINS0_19error_info_injectorINS_21thread_resource_errorEEEED1Ev
	.section	.text._ZN5boost16exception_detail10clone_implINS0_19error_info_injectorINS_21thread_resource_errorEEEED0Ev,"axG",@progbits,_ZN5boost16exception_detail10clone_implINS0_19error_info_injectorINS_21thread_resource_errorEEEED0Ev,comdat
	.align 2
	.p2align 4,,15
	.weak	_ZN5boost16exception_detail10clone_implINS0_19error_info_injectorINS_21thread_resource_errorEEEED0Ev
	.type	_ZN5boost16exception_detail10clone_implINS0_19error_info_injectorINS_21thread_resource_errorEEEED0Ev, @function
_ZN5boost16exception_detail10clone_implINS0_19error_info_injectorINS_21thread_resource_errorEEEED0Ev:
.LFB11764:
	.cfi_startproc
	pushq	%rbx
	.cfi_def_cfa_offset 16
	.cfi_offset 3, -16
	movq	%rdi, %rbx
	movq	$_ZTVN5boost16exception_detail10clone_implINS0_19error_info_injectorINS_21thread_resource_errorEEEEE+24, (%rdi)
	movq	$_ZTVN5boost16exception_detail10clone_implINS0_19error_info_injectorINS_21thread_resource_errorEEEEE+80, 64(%rdi)
	movq	$_ZTVN5boost16exception_detail10clone_implINS0_19error_info_injectorINS_21thread_resource_errorEEEEE+136, 104(%rdi)
	call	_ZN5boost16exception_detail19error_info_injectorINS_21thread_resource_errorEED2Ev
	movq	%rbx, %rdi
	movl	$112, %esi
	popq	%rbx
	.cfi_def_cfa_offset 8
	jmp	_ZdlPvm
	.cfi_endproc
.LFE11764:
	.size	_ZN5boost16exception_detail10clone_implINS0_19error_info_injectorINS_21thread_resource_errorEEEED0Ev, .-_ZN5boost16exception_detail10clone_implINS0_19error_info_injectorINS_21thread_resource_errorEEEED0Ev
	.section	.text._ZN5boost15condition_errorD0Ev,"axG",@progbits,_ZN5boost15condition_errorD5Ev,comdat
	.align 2
	.p2align 4,,15
	.weak	_ZN5boost15condition_errorD0Ev
	.type	_ZN5boost15condition_errorD0Ev, @function
_ZN5boost15condition_errorD0Ev:
.LFB11818:
	.cfi_startproc
	pushq	%rbx
	.cfi_def_cfa_offset 16
	.cfi_offset 3, -16
	movq	%rdi, %rbx
	movq	$_ZTVN5boost15condition_errorE+16, (%rdi)
	call	_ZN5boost6system12system_errorD2Ev
	movq	%rbx, %rdi
	movl	$64, %esi
	popq	%rbx
	.cfi_def_cfa_offset 8
	jmp	_ZdlPvm
	.cfi_endproc
.LFE11818:
	.size	_ZN5boost15condition_errorD0Ev, .-_ZN5boost15condition_errorD0Ev
	.section	.text._ZN5boost16exception_detail19error_info_injectorINS_15condition_errorEED2Ev,"axG",@progbits,_ZN5boost16exception_detail19error_info_injectorINS_15condition_errorEED5Ev,comdat
	.align 2
	.p2align 4,,15
	.weak	_ZN5boost16exception_detail19error_info_injectorINS_15condition_errorEED2Ev
	.type	_ZN5boost16exception_detail19error_info_injectorINS_15condition_errorEED2Ev, @function
_ZN5boost16exception_detail19error_info_injectorINS_15condition_errorEED2Ev:
.LFB11819:
	.cfi_startproc
	.cfi_personality 0x3,__gxx_personality_v0
	.cfi_lsda 0x3,.LLSDA11819
	pushq	%rbx
	.cfi_def_cfa_offset 16
	.cfi_offset 3, -16
	movq	%rdi, %rbx
	movq	$_ZTVN5boost16exception_detail19error_info_injectorINS_15condition_errorEEE+16, (%rdi)
	movq	$_ZTVN5boost9exceptionE+16, 64(%rdi)
	movq	72(%rdi), %rdi
	testq	%rdi, %rdi
	je	.L128
	movq	(%rdi), %rax
	call	*32(%rax)
.L128:
	movq	$_ZTVN5boost15condition_errorE+16, (%rbx)
	movq	%rbx, %rdi
	popq	%rbx
	.cfi_def_cfa_offset 8
	jmp	_ZN5boost6system12system_errorD2Ev
	.cfi_endproc
.LFE11819:
	.section	.gcc_except_table._ZN5boost16exception_detail19error_info_injectorINS_15condition_errorEED2Ev,"aG",@progbits,_ZN5boost16exception_detail19error_info_injectorINS_15condition_errorEED5Ev,comdat
.LLSDA11819:
	.byte	0xff
	.byte	0xff
	.byte	0x1
	.uleb128 .LLSDACSE11819-.LLSDACSB11819
.LLSDACSB11819:
.LLSDACSE11819:
	.section	.text._ZN5boost16exception_detail19error_info_injectorINS_15condition_errorEED2Ev,"axG",@progbits,_ZN5boost16exception_detail19error_info_injectorINS_15condition_errorEED5Ev,comdat
	.size	_ZN5boost16exception_detail19error_info_injectorINS_15condition_errorEED2Ev, .-_ZN5boost16exception_detail19error_info_injectorINS_15condition_errorEED2Ev
	.weak	_ZN5boost16exception_detail19error_info_injectorINS_15condition_errorEED1Ev
	.set	_ZN5boost16exception_detail19error_info_injectorINS_15condition_errorEED1Ev,_ZN5boost16exception_detail19error_info_injectorINS_15condition_errorEED2Ev
	.set	.LTHUNK42,_ZN5boost16exception_detail19error_info_injectorINS_15condition_errorEED1Ev
	.p2align 4,,15
	.weak	_ZThn64_N5boost16exception_detail19error_info_injectorINS_15condition_errorEED1Ev
	.type	_ZThn64_N5boost16exception_detail19error_info_injectorINS_15condition_errorEED1Ev, @function
_ZThn64_N5boost16exception_detail19error_info_injectorINS_15condition_errorEED1Ev:
.LFB15745:
	.cfi_startproc
	subq	$64, %rdi
	jmp	.LTHUNK42
	.cfi_endproc
.LFE15745:
	.size	_ZThn64_N5boost16exception_detail19error_info_injectorINS_15condition_errorEED1Ev, .-_ZThn64_N5boost16exception_detail19error_info_injectorINS_15condition_errorEED1Ev
	.section	.text._ZN5boost16exception_detail19error_info_injectorINS_15condition_errorEED0Ev,"axG",@progbits,_ZN5boost16exception_detail19error_info_injectorINS_15condition_errorEED5Ev,comdat
	.align 2
	.p2align 4,,15
	.weak	_ZN5boost16exception_detail19error_info_injectorINS_15condition_errorEED0Ev
	.type	_ZN5boost16exception_detail19error_info_injectorINS_15condition_errorEED0Ev, @function
_ZN5boost16exception_detail19error_info_injectorINS_15condition_errorEED0Ev:
.LFB11821:
	.cfi_startproc
	pushq	%rbx
	.cfi_def_cfa_offset 16
	.cfi_offset 3, -16
	movq	%rdi, %rbx
	call	_ZN5boost16exception_detail19error_info_injectorINS_15condition_errorEED1Ev
	movq	%rbx, %rdi
	movl	$104, %esi
	popq	%rbx
	.cfi_def_cfa_offset 8
	jmp	_ZdlPvm
	.cfi_endproc
.LFE11821:
	.size	_ZN5boost16exception_detail19error_info_injectorINS_15condition_errorEED0Ev, .-_ZN5boost16exception_detail19error_info_injectorINS_15condition_errorEED0Ev
	.section	.text._ZN5boost16exception_detail10clone_implINS0_19error_info_injectorINS_15condition_errorEEEED1Ev,"axG",@progbits,_ZN5boost16exception_detail10clone_implINS0_19error_info_injectorINS_15condition_errorEEEED1Ev,comdat
	.align 2
	.p2align 4,,15
	.weak	_ZN5boost16exception_detail10clone_implINS0_19error_info_injectorINS_15condition_errorEEEED1Ev
	.type	_ZN5boost16exception_detail10clone_implINS0_19error_info_injectorINS_15condition_errorEEEED1Ev, @function
_ZN5boost16exception_detail10clone_implINS0_19error_info_injectorINS_15condition_errorEEEED1Ev:
.LFB11825:
	.cfi_startproc
	movq	$_ZTVN5boost16exception_detail10clone_implINS0_19error_info_injectorINS_15condition_errorEEEEE+24, (%rdi)
	movq	$_ZTVN5boost16exception_detail10clone_implINS0_19error_info_injectorINS_15condition_errorEEEEE+80, 64(%rdi)
	movq	$_ZTVN5boost16exception_detail10clone_implINS0_19error_info_injectorINS_15condition_errorEEEEE+136, 104(%rdi)
	jmp	_ZN5boost16exception_detail19error_info_injectorINS_15condition_errorEED2Ev
	.cfi_endproc
.LFE11825:
	.size	_ZN5boost16exception_detail10clone_implINS0_19error_info_injectorINS_15condition_errorEEEED1Ev, .-_ZN5boost16exception_detail10clone_implINS0_19error_info_injectorINS_15condition_errorEEEED1Ev
	.section	.text._ZN5boost16exception_detail10clone_implINS0_19error_info_injectorINS_15condition_errorEEEED0Ev,"axG",@progbits,_ZN5boost16exception_detail10clone_implINS0_19error_info_injectorINS_15condition_errorEEEED0Ev,comdat
	.align 2
	.p2align 4,,15
	.weak	_ZN5boost16exception_detail10clone_implINS0_19error_info_injectorINS_15condition_errorEEEED0Ev
	.type	_ZN5boost16exception_detail10clone_implINS0_19error_info_injectorINS_15condition_errorEEEED0Ev, @function
_ZN5boost16exception_detail10clone_implINS0_19error_info_injectorINS_15condition_errorEEEED0Ev:
.LFB11826:
	.cfi_startproc
	pushq	%rbx
	.cfi_def_cfa_offset 16
	.cfi_offset 3, -16
	movq	%rdi, %rbx
	movq	$_ZTVN5boost16exception_detail10clone_implINS0_19error_info_injectorINS_15condition_errorEEEEE+24, (%rdi)
	movq	$_ZTVN5boost16exception_detail10clone_implINS0_19error_info_injectorINS_15condition_errorEEEEE+80, 64(%rdi)
	movq	$_ZTVN5boost16exception_detail10clone_implINS0_19error_info_injectorINS_15condition_errorEEEEE+136, 104(%rdi)
	call	_ZN5boost16exception_detail19error_info_injectorINS_15condition_errorEED2Ev
	movq	%rbx, %rdi
	movl	$112, %esi
	popq	%rbx
	.cfi_def_cfa_offset 8
	jmp	_ZdlPvm
	.cfi_endproc
.LFE11826:
	.size	_ZN5boost16exception_detail10clone_implINS0_19error_info_injectorINS_15condition_errorEEEED0Ev, .-_ZN5boost16exception_detail10clone_implINS0_19error_info_injectorINS_15condition_errorEEEED0Ev
	.section	.text._ZNK5boost16exception_detail10clone_implINS0_14bad_exception_EE7rethrowEv,"axG",@progbits,_ZNK5boost16exception_detail10clone_implINS0_14bad_exception_EE7rethrowEv,comdat
	.align 2
	.p2align 4,,15
	.weak	_ZNK5boost16exception_detail10clone_implINS0_14bad_exception_EE7rethrowEv
	.type	_ZNK5boost16exception_detail10clone_implINS0_14bad_exception_EE7rethrowEv, @function
_ZNK5boost16exception_detail10clone_implINS0_14bad_exception_EE7rethrowEv:
.LFB14523:
	.cfi_startproc
	.cfi_personality 0x3,__gxx_personality_v0
	.cfi_lsda 0x3,.LLSDA14523
	pushq	%rbp
	.cfi_def_cfa_offset 16
	.cfi_offset 6, -16
	pushq	%rbx
	.cfi_def_cfa_offset 24
	.cfi_offset 3, -24
	movq	%rdi, %rbp
	movl	$56, %edi
	subq	$8, %rsp
	.cfi_def_cfa_offset 32
	call	__cxa_allocate_exception
	movq	8(%rbp), %rdi
	movq	%rax, %rbx
	movq	$_ZTVN5boost16exception_detail10clone_baseE+16, 48(%rax)
	movq	$_ZTVN5boost9exceptionE+16, (%rax)
	testq	%rdi, %rdi
	movq	%rdi, 8(%rax)
	je	.L140
	movq	(%rdi), %rax
.LEHB0:
	call	*24(%rax)
.LEHE0:
.L140:
	movq	16(%rbp), %rax
	movl	$_ZN5boost16exception_detail10clone_implINS0_14bad_exception_EED1Ev, %edx
	movl	$_ZTIN5boost16exception_detail10clone_implINS0_14bad_exception_EEE, %esi
	movq	%rbx, %rdi
	movq	$_ZTVN5boost16exception_detail10clone_implINS0_14bad_exception_EEE+24, (%rbx)
	movq	$_ZTVN5boost16exception_detail10clone_implINS0_14bad_exception_EEE+72, 40(%rbx)
	movq	$_ZTVN5boost16exception_detail10clone_implINS0_14bad_exception_EEE+136, 48(%rbx)
	movq	%rax, 16(%rbx)
	movq	24(%rbp), %rax
	movq	%rax, 24(%rbx)
	movl	32(%rbp), %eax
	movl	%eax, 32(%rbx)
.LEHB1:
	call	__cxa_throw
.L142:
	movq	%rax, %rbp
	movq	%rbx, %rdi
	call	__cxa_free_exception
	movq	%rbp, %rdi
	call	_Unwind_Resume
.LEHE1:
	.cfi_endproc
.LFE14523:
	.section	.gcc_except_table._ZNK5boost16exception_detail10clone_implINS0_14bad_exception_EE7rethrowEv,"aG",@progbits,_ZNK5boost16exception_detail10clone_implINS0_14bad_exception_EE7rethrowEv,comdat
.LLSDA14523:
	.byte	0xff
	.byte	0xff
	.byte	0x1
	.uleb128 .LLSDACSE14523-.LLSDACSB14523
.LLSDACSB14523:
	.uleb128 .LEHB0-.LFB14523
	.uleb128 .LEHE0-.LEHB0
	.uleb128 .L142-.LFB14523
	.uleb128 0
	.uleb128 .LEHB1-.LFB14523
	.uleb128 .LEHE1-.LEHB1
	.uleb128 0
	.uleb128 0
.LLSDACSE14523:
	.section	.text._ZNK5boost16exception_detail10clone_implINS0_14bad_exception_EE7rethrowEv,"axG",@progbits,_ZNK5boost16exception_detail10clone_implINS0_14bad_exception_EE7rethrowEv,comdat
	.size	_ZNK5boost16exception_detail10clone_implINS0_14bad_exception_EE7rethrowEv, .-_ZNK5boost16exception_detail10clone_implINS0_14bad_exception_EE7rethrowEv
	.set	.LTHUNK257,_ZNK5boost16exception_detail10clone_implINS0_14bad_exception_EE7rethrowEv
	.p2align 4,,15
	.weak	_ZTv0_n32_NK5boost16exception_detail10clone_implINS0_14bad_exception_EE7rethrowEv
	.type	_ZTv0_n32_NK5boost16exception_detail10clone_implINS0_14bad_exception_EE7rethrowEv, @function
_ZTv0_n32_NK5boost16exception_detail10clone_implINS0_14bad_exception_EE7rethrowEv:
.LFB15749:
	.cfi_startproc
	movq	(%rdi), %r10
	addq	-32(%r10), %rdi
	jmp	.LTHUNK257
	.cfi_endproc
.LFE15749:
	.size	_ZTv0_n32_NK5boost16exception_detail10clone_implINS0_14bad_exception_EE7rethrowEv, .-_ZTv0_n32_NK5boost16exception_detail10clone_implINS0_14bad_exception_EE7rethrowEv
	.section	.text._ZNK5boost16exception_detail10clone_implINS0_10bad_alloc_EE7rethrowEv,"axG",@progbits,_ZNK5boost16exception_detail10clone_implINS0_10bad_alloc_EE7rethrowEv,comdat
	.align 2
	.p2align 4,,15
	.weak	_ZNK5boost16exception_detail10clone_implINS0_10bad_alloc_EE7rethrowEv
	.type	_ZNK5boost16exception_detail10clone_implINS0_10bad_alloc_EE7rethrowEv, @function
_ZNK5boost16exception_detail10clone_implINS0_10bad_alloc_EE7rethrowEv:
.LFB14525:
	.cfi_startproc
	.cfi_personality 0x3,__gxx_personality_v0
	.cfi_lsda 0x3,.LLSDA14525
	pushq	%rbp
	.cfi_def_cfa_offset 16
	.cfi_offset 6, -16
	pushq	%rbx
	.cfi_def_cfa_offset 24
	.cfi_offset 3, -24
	movq	%rdi, %rbp
	movl	$56, %edi
	subq	$8, %rsp
	.cfi_def_cfa_offset 32
	call	__cxa_allocate_exception
	movq	8(%rbp), %rdi
	movq	%rax, %rbx
	movq	$_ZTVN5boost16exception_detail10clone_baseE+16, 48(%rax)
	movq	$_ZTVN5boost9exceptionE+16, (%rax)
	testq	%rdi, %rdi
	movq	%rdi, 8(%rax)
	je	.L146
	movq	(%rdi), %rax
.LEHB2:
	call	*24(%rax)
.LEHE2:
.L146:
	movq	16(%rbp), %rax
	movl	$_ZN5boost16exception_detail10clone_implINS0_10bad_alloc_EED1Ev, %edx
	movl	$_ZTIN5boost16exception_detail10clone_implINS0_10bad_alloc_EEE, %esi
	movq	%rbx, %rdi
	movq	$_ZTVN5boost16exception_detail10clone_implINS0_10bad_alloc_EEE+24, (%rbx)
	movq	$_ZTVN5boost16exception_detail10clone_implINS0_10bad_alloc_EEE+72, 40(%rbx)
	movq	$_ZTVN5boost16exception_detail10clone_implINS0_10bad_alloc_EEE+136, 48(%rbx)
	movq	%rax, 16(%rbx)
	movq	24(%rbp), %rax
	movq	%rax, 24(%rbx)
	movl	32(%rbp), %eax
	movl	%eax, 32(%rbx)
.LEHB3:
	call	__cxa_throw
.L148:
	movq	%rax, %rbp
	movq	%rbx, %rdi
	call	__cxa_free_exception
	movq	%rbp, %rdi
	call	_Unwind_Resume
.LEHE3:
	.cfi_endproc
.LFE14525:
	.section	.gcc_except_table._ZNK5boost16exception_detail10clone_implINS0_10bad_alloc_EE7rethrowEv,"aG",@progbits,_ZNK5boost16exception_detail10clone_implINS0_10bad_alloc_EE7rethrowEv,comdat
.LLSDA14525:
	.byte	0xff
	.byte	0xff
	.byte	0x1
	.uleb128 .LLSDACSE14525-.LLSDACSB14525
.LLSDACSB14525:
	.uleb128 .LEHB2-.LFB14525
	.uleb128 .LEHE2-.LEHB2
	.uleb128 .L148-.LFB14525
	.uleb128 0
	.uleb128 .LEHB3-.LFB14525
	.uleb128 .LEHE3-.LEHB3
	.uleb128 0
	.uleb128 0
.LLSDACSE14525:
	.section	.text._ZNK5boost16exception_detail10clone_implINS0_10bad_alloc_EE7rethrowEv,"axG",@progbits,_ZNK5boost16exception_detail10clone_implINS0_10bad_alloc_EE7rethrowEv,comdat
	.size	_ZNK5boost16exception_detail10clone_implINS0_10bad_alloc_EE7rethrowEv, .-_ZNK5boost16exception_detail10clone_implINS0_10bad_alloc_EE7rethrowEv
	.set	.LTHUNK259,_ZNK5boost16exception_detail10clone_implINS0_10bad_alloc_EE7rethrowEv
	.p2align 4,,15
	.weak	_ZTv0_n32_NK5boost16exception_detail10clone_implINS0_10bad_alloc_EE7rethrowEv
	.type	_ZTv0_n32_NK5boost16exception_detail10clone_implINS0_10bad_alloc_EE7rethrowEv, @function
_ZTv0_n32_NK5boost16exception_detail10clone_implINS0_10bad_alloc_EE7rethrowEv:
.LFB15750:
	.cfi_startproc
	movq	(%rdi), %r10
	addq	-32(%r10), %rdi
	jmp	.LTHUNK259
	.cfi_endproc
.LFE15750:
	.size	_ZTv0_n32_NK5boost16exception_detail10clone_implINS0_10bad_alloc_EE7rethrowEv, .-_ZTv0_n32_NK5boost16exception_detail10clone_implINS0_10bad_alloc_EE7rethrowEv
	.section	.text._ZNK5boost16exception_detail10clone_implINS_17unknown_exceptionEE7rethrowEv,"axG",@progbits,_ZNK5boost16exception_detail10clone_implINS_17unknown_exceptionEE7rethrowEv,comdat
	.align 2
	.p2align 4,,15
	.weak	_ZNK5boost16exception_detail10clone_implINS_17unknown_exceptionEE7rethrowEv
	.type	_ZNK5boost16exception_detail10clone_implINS_17unknown_exceptionEE7rethrowEv, @function
_ZNK5boost16exception_detail10clone_implINS_17unknown_exceptionEE7rethrowEv:
.LFB14527:
	.cfi_startproc
	.cfi_personality 0x3,__gxx_personality_v0
	.cfi_lsda 0x3,.LLSDA14527
	pushq	%rbp
	.cfi_def_cfa_offset 16
	.cfi_offset 6, -16
	pushq	%rbx
	.cfi_def_cfa_offset 24
	.cfi_offset 3, -24
	movq	%rdi, %rbp
	movl	$56, %edi
	subq	$8, %rsp
	.cfi_def_cfa_offset 32
	call	__cxa_allocate_exception
	movq	8(%rbp), %rdi
	movq	%rax, %rbx
	movq	$_ZTVN5boost16exception_detail10clone_baseE+16, 48(%rax)
	movq	$_ZTVN5boost9exceptionE+16, (%rax)
	testq	%rdi, %rdi
	movq	%rdi, 8(%rax)
	je	.L152
	movq	(%rdi), %rax
.LEHB4:
	call	*24(%rax)
.LEHE4:
.L152:
	movq	16(%rbp), %rax
	movl	$_ZN5boost16exception_detail10clone_implINS_17unknown_exceptionEED1Ev, %edx
	movl	$_ZTIN5boost16exception_detail10clone_implINS_17unknown_exceptionEEE, %esi
	movq	%rbx, %rdi
	movq	$_ZTVN5boost16exception_detail10clone_implINS_17unknown_exceptionEEE+24, (%rbx)
	movq	$_ZTVN5boost16exception_detail10clone_implINS_17unknown_exceptionEEE+72, 40(%rbx)
	movq	$_ZTVN5boost16exception_detail10clone_implINS_17unknown_exceptionEEE+136, 48(%rbx)
	movq	%rax, 16(%rbx)
	movq	24(%rbp), %rax
	movq	%rax, 24(%rbx)
	movl	32(%rbp), %eax
	movl	%eax, 32(%rbx)
.LEHB5:
	call	__cxa_throw
.L154:
	movq	%rax, %rbp
	movq	%rbx, %rdi
	call	__cxa_free_exception
	movq	%rbp, %rdi
	call	_Unwind_Resume
.LEHE5:
	.cfi_endproc
.LFE14527:
	.section	.gcc_except_table._ZNK5boost16exception_detail10clone_implINS_17unknown_exceptionEE7rethrowEv,"aG",@progbits,_ZNK5boost16exception_detail10clone_implINS_17unknown_exceptionEE7rethrowEv,comdat
.LLSDA14527:
	.byte	0xff
	.byte	0xff
	.byte	0x1
	.uleb128 .LLSDACSE14527-.LLSDACSB14527
.LLSDACSB14527:
	.uleb128 .LEHB4-.LFB14527
	.uleb128 .LEHE4-.LEHB4
	.uleb128 .L154-.LFB14527
	.uleb128 0
	.uleb128 .LEHB5-.LFB14527
	.uleb128 .LEHE5-.LEHB5
	.uleb128 0
	.uleb128 0
.LLSDACSE14527:
	.section	.text._ZNK5boost16exception_detail10clone_implINS_17unknown_exceptionEE7rethrowEv,"axG",@progbits,_ZNK5boost16exception_detail10clone_implINS_17unknown_exceptionEE7rethrowEv,comdat
	.size	_ZNK5boost16exception_detail10clone_implINS_17unknown_exceptionEE7rethrowEv, .-_ZNK5boost16exception_detail10clone_implINS_17unknown_exceptionEE7rethrowEv
	.set	.LTHUNK261,_ZNK5boost16exception_detail10clone_implINS_17unknown_exceptionEE7rethrowEv
	.p2align 4,,15
	.weak	_ZTv0_n32_NK5boost16exception_detail10clone_implINS_17unknown_exceptionEE7rethrowEv
	.type	_ZTv0_n32_NK5boost16exception_detail10clone_implINS_17unknown_exceptionEE7rethrowEv, @function
_ZTv0_n32_NK5boost16exception_detail10clone_implINS_17unknown_exceptionEE7rethrowEv:
.LFB15751:
	.cfi_startproc
	movq	(%rdi), %r10
	addq	-32(%r10), %rdi
	jmp	.LTHUNK261
	.cfi_endproc
.LFE15751:
	.size	_ZTv0_n32_NK5boost16exception_detail10clone_implINS_17unknown_exceptionEE7rethrowEv, .-_ZTv0_n32_NK5boost16exception_detail10clone_implINS_17unknown_exceptionEE7rethrowEv
	.section	.text._ZN5boost12future_errorD2Ev,"axG",@progbits,_ZN5boost12future_errorD5Ev,comdat
	.align 2
	.p2align 4,,15
	.weak	_ZN5boost12future_errorD2Ev
	.type	_ZN5boost12future_errorD2Ev, @function
_ZN5boost12future_errorD2Ev:
.LFB7040:
	.cfi_startproc
	movq	$_ZTVN5boost12future_errorE+16, (%rdi)
	jmp	_ZNSt11logic_errorD2Ev
	.cfi_endproc
.LFE7040:
	.size	_ZN5boost12future_errorD2Ev, .-_ZN5boost12future_errorD2Ev
	.weak	_ZN5boost12future_errorD1Ev
	.set	_ZN5boost12future_errorD1Ev,_ZN5boost12future_errorD2Ev
	.section	.text._ZN5boost12future_errorD0Ev,"axG",@progbits,_ZN5boost12future_errorD5Ev,comdat
	.align 2
	.p2align 4,,15
	.weak	_ZN5boost12future_errorD0Ev
	.type	_ZN5boost12future_errorD0Ev, @function
_ZN5boost12future_errorD0Ev:
.LFB7042:
	.cfi_startproc
	pushq	%rbx
	.cfi_def_cfa_offset 16
	.cfi_offset 3, -16
	movq	%rdi, %rbx
	movq	$_ZTVN5boost12future_errorE+16, (%rdi)
	call	_ZNSt11logic_errorD2Ev
	movq	%rbx, %rdi
	movl	$32, %esi
	popq	%rbx
	.cfi_def_cfa_offset 8
	jmp	_ZdlPvm
	.cfi_endproc
.LFE7042:
	.size	_ZN5boost12future_errorD0Ev, .-_ZN5boost12future_errorD0Ev
	.section	.text._ZN5boost10task_movedD2Ev,"axG",@progbits,_ZN5boost10task_movedD5Ev,comdat
	.align 2
	.p2align 4,,15
	.weak	_ZN5boost10task_movedD2Ev
	.type	_ZN5boost10task_movedD2Ev, @function
_ZN5boost10task_movedD2Ev:
.LFB12960:
	.cfi_startproc
	movq	$_ZTVN5boost12future_errorE+16, (%rdi)
	jmp	_ZNSt11logic_errorD2Ev
	.cfi_endproc
.LFE12960:
	.size	_ZN5boost10task_movedD2Ev, .-_ZN5boost10task_movedD2Ev
	.weak	_ZN5boost10task_movedD1Ev
	.set	_ZN5boost10task_movedD1Ev,_ZN5boost10task_movedD2Ev
	.section	.text._ZN5boost10task_movedD0Ev,"axG",@progbits,_ZN5boost10task_movedD5Ev,comdat
	.align 2
	.p2align 4,,15
	.weak	_ZN5boost10task_movedD0Ev
	.type	_ZN5boost10task_movedD0Ev, @function
_ZN5boost10task_movedD0Ev:
.LFB12962:
	.cfi_startproc
	pushq	%rbx
	.cfi_def_cfa_offset 16
	.cfi_offset 3, -16
	movq	%rdi, %rbx
	movq	$_ZTVN5boost12future_errorE+16, (%rdi)
	call	_ZNSt11logic_errorD2Ev
	movq	%rbx, %rdi
	movl	$32, %esi
	popq	%rbx
	.cfi_def_cfa_offset 8
	jmp	_ZdlPvm
	.cfi_endproc
.LFE12962:
	.size	_ZN5boost10task_movedD0Ev, .-_ZN5boost10task_movedD0Ev
	.section	.text._ZN5boost20task_already_startedD2Ev,"axG",@progbits,_ZN5boost20task_already_startedD5Ev,comdat
	.align 2
	.p2align 4,,15
	.weak	_ZN5boost20task_already_startedD2Ev
	.type	_ZN5boost20task_already_startedD2Ev, @function
_ZN5boost20task_already_startedD2Ev:
.LFB14292:
	.cfi_startproc
	movq	$_ZTVN5boost12future_errorE+16, (%rdi)
	jmp	_ZNSt11logic_errorD2Ev
	.cfi_endproc
.LFE14292:
	.size	_ZN5boost20task_already_startedD2Ev, .-_ZN5boost20task_already_startedD2Ev
	.weak	_ZN5boost20task_already_startedD1Ev
	.set	_ZN5boost20task_already_startedD1Ev,_ZN5boost20task_already_startedD2Ev
	.section	.text._ZN5boost20task_already_startedD0Ev,"axG",@progbits,_ZN5boost20task_already_startedD5Ev,comdat
	.align 2
	.p2align 4,,15
	.weak	_ZN5boost20task_already_startedD0Ev
	.type	_ZN5boost20task_already_startedD0Ev, @function
_ZN5boost20task_already_startedD0Ev:
.LFB14294:
	.cfi_startproc
	pushq	%rbx
	.cfi_def_cfa_offset 16
	.cfi_offset 3, -16
	movq	%rdi, %rbx
	movq	$_ZTVN5boost12future_errorE+16, (%rdi)
	call	_ZNSt11logic_errorD2Ev
	movq	%rbx, %rdi
	movl	$32, %esi
	popq	%rbx
	.cfi_def_cfa_offset 8
	jmp	_ZdlPvm
	.cfi_endproc
.LFE14294:
	.size	_ZN5boost20task_already_startedD0Ev, .-_ZN5boost20task_already_startedD0Ev
	.section	.text._ZN5boost20future_uninitializedD2Ev,"axG",@progbits,_ZN5boost20future_uninitializedD5Ev,comdat
	.align 2
	.p2align 4,,15
	.weak	_ZN5boost20future_uninitializedD2Ev
	.type	_ZN5boost20future_uninitializedD2Ev, @function
_ZN5boost20future_uninitializedD2Ev:
.LFB11503:
	.cfi_startproc
	movq	$_ZTVN5boost12future_errorE+16, (%rdi)
	jmp	_ZNSt11logic_errorD2Ev
	.cfi_endproc
.LFE11503:
	.size	_ZN5boost20future_uninitializedD2Ev, .-_ZN5boost20future_uninitializedD2Ev
	.weak	_ZN5boost20future_uninitializedD1Ev
	.set	_ZN5boost20future_uninitializedD1Ev,_ZN5boost20future_uninitializedD2Ev
	.section	.text._ZN5boost20future_uninitializedD0Ev,"axG",@progbits,_ZN5boost20future_uninitializedD5Ev,comdat
	.align 2
	.p2align 4,,15
	.weak	_ZN5boost20future_uninitializedD0Ev
	.type	_ZN5boost20future_uninitializedD0Ev, @function
_ZN5boost20future_uninitializedD0Ev:
.LFB11505:
	.cfi_startproc
	pushq	%rbx
	.cfi_def_cfa_offset 16
	.cfi_offset 3, -16
	movq	%rdi, %rbx
	movq	$_ZTVN5boost12future_errorE+16, (%rdi)
	call	_ZNSt11logic_errorD2Ev
	movq	%rbx, %rdi
	movl	$32, %esi
	popq	%rbx
	.cfi_def_cfa_offset 8
	jmp	_ZdlPvm
	.cfi_endproc
.LFE11505:
	.size	_ZN5boost20future_uninitializedD0Ev, .-_ZN5boost20future_uninitializedD0Ev
	.section	.text._ZN5boost24future_already_retrievedD2Ev,"axG",@progbits,_ZN5boost24future_already_retrievedD5Ev,comdat
	.align 2
	.p2align 4,,15
	.weak	_ZN5boost24future_already_retrievedD2Ev
	.type	_ZN5boost24future_already_retrievedD2Ev, @function
_ZN5boost24future_already_retrievedD2Ev:
.LFB12326:
	.cfi_startproc
	movq	$_ZTVN5boost12future_errorE+16, (%rdi)
	jmp	_ZNSt11logic_errorD2Ev
	.cfi_endproc
.LFE12326:
	.size	_ZN5boost24future_already_retrievedD2Ev, .-_ZN5boost24future_already_retrievedD2Ev
	.weak	_ZN5boost24future_already_retrievedD1Ev
	.set	_ZN5boost24future_already_retrievedD1Ev,_ZN5boost24future_already_retrievedD2Ev
	.section	.text._ZN5boost24future_already_retrievedD0Ev,"axG",@progbits,_ZN5boost24future_already_retrievedD5Ev,comdat
	.align 2
	.p2align 4,,15
	.weak	_ZN5boost24future_already_retrievedD0Ev
	.type	_ZN5boost24future_already_retrievedD0Ev, @function
_ZN5boost24future_already_retrievedD0Ev:
.LFB12328:
	.cfi_startproc
	pushq	%rbx
	.cfi_def_cfa_offset 16
	.cfi_offset 3, -16
	movq	%rdi, %rbx
	movq	$_ZTVN5boost12future_errorE+16, (%rdi)
	call	_ZNSt11logic_errorD2Ev
	movq	%rbx, %rdi
	movl	$32, %esi
	popq	%rbx
	.cfi_def_cfa_offset 8
	jmp	_ZdlPvm
	.cfi_endproc
.LFE12328:
	.size	_ZN5boost24future_already_retrievedD0Ev, .-_ZN5boost24future_already_retrievedD0Ev
	.section	.text._ZN5boost14broken_promiseD2Ev,"axG",@progbits,_ZN5boost14broken_promiseD5Ev,comdat
	.align 2
	.p2align 4,,15
	.weak	_ZN5boost14broken_promiseD2Ev
	.type	_ZN5boost14broken_promiseD2Ev, @function
_ZN5boost14broken_promiseD2Ev:
.LFB12301:
	.cfi_startproc
	movq	$_ZTVN5boost12future_errorE+16, (%rdi)
	jmp	_ZNSt11logic_errorD2Ev
	.cfi_endproc
.LFE12301:
	.size	_ZN5boost14broken_promiseD2Ev, .-_ZN5boost14broken_promiseD2Ev
	.weak	_ZN5boost14broken_promiseD1Ev
	.set	_ZN5boost14broken_promiseD1Ev,_ZN5boost14broken_promiseD2Ev
	.section	.text._ZN5boost14broken_promiseD0Ev,"axG",@progbits,_ZN5boost14broken_promiseD5Ev,comdat
	.align 2
	.p2align 4,,15
	.weak	_ZN5boost14broken_promiseD0Ev
	.type	_ZN5boost14broken_promiseD0Ev, @function
_ZN5boost14broken_promiseD0Ev:
.LFB12303:
	.cfi_startproc
	pushq	%rbx
	.cfi_def_cfa_offset 16
	.cfi_offset 3, -16
	movq	%rdi, %rbx
	movq	$_ZTVN5boost12future_errorE+16, (%rdi)
	call	_ZNSt11logic_errorD2Ev
	movq	%rbx, %rdi
	movl	$32, %esi
	popq	%rbx
	.cfi_def_cfa_offset 8
	jmp	_ZdlPvm
	.cfi_endproc
.LFE12303:
	.size	_ZN5boost14broken_promiseD0Ev, .-_ZN5boost14broken_promiseD0Ev
	.section	.text._ZN5boost25promise_already_satisfiedD2Ev,"axG",@progbits,_ZN5boost25promise_already_satisfiedD5Ev,comdat
	.align 2
	.p2align 4,,15
	.weak	_ZN5boost25promise_already_satisfiedD2Ev
	.type	_ZN5boost25promise_already_satisfiedD2Ev, @function
_ZN5boost25promise_already_satisfiedD2Ev:
.LFB12247:
	.cfi_startproc
	movq	$_ZTVN5boost12future_errorE+16, (%rdi)
	jmp	_ZNSt11logic_errorD2Ev
	.cfi_endproc
.LFE12247:
	.size	_ZN5boost25promise_already_satisfiedD2Ev, .-_ZN5boost25promise_already_satisfiedD2Ev
	.weak	_ZN5boost25promise_already_satisfiedD1Ev
	.set	_ZN5boost25promise_already_satisfiedD1Ev,_ZN5boost25promise_already_satisfiedD2Ev
	.section	.text._ZN5boost25promise_already_satisfiedD0Ev,"axG",@progbits,_ZN5boost25promise_already_satisfiedD5Ev,comdat
	.align 2
	.p2align 4,,15
	.weak	_ZN5boost25promise_already_satisfiedD0Ev
	.type	_ZN5boost25promise_already_satisfiedD0Ev, @function
_ZN5boost25promise_already_satisfiedD0Ev:
.LFB12249:
	.cfi_startproc
	pushq	%rbx
	.cfi_def_cfa_offset 16
	.cfi_offset 3, -16
	movq	%rdi, %rbx
	movq	$_ZTVN5boost12future_errorE+16, (%rdi)
	call	_ZNSt11logic_errorD2Ev
	movq	%rbx, %rdi
	movl	$32, %esi
	popq	%rbx
	.cfi_def_cfa_offset 8
	jmp	_ZdlPvm
	.cfi_endproc
.LFE12249:
	.size	_ZN5boost25promise_already_satisfiedD0Ev, .-_ZN5boost25promise_already_satisfiedD0Ev
	.section	.text._ZN5boost16exception_detail10clone_implINS_14broken_promiseEED1Ev,"axG",@progbits,_ZN5boost16exception_detail10clone_implINS_14broken_promiseEED1Ev,comdat
	.align 2
	.p2align 4,,15
	.weak	_ZN5boost16exception_detail10clone_implINS_14broken_promiseEED1Ev
	.type	_ZN5boost16exception_detail10clone_implINS_14broken_promiseEED1Ev, @function
_ZN5boost16exception_detail10clone_implINS_14broken_promiseEED1Ev:
.LFB12305:
	.cfi_startproc
	movq	$_ZTVN5boost16exception_detail10clone_implINS_14broken_promiseEEE+104, 32(%rdi)
	movq	$_ZTVN5boost12future_errorE+16, (%rdi)
	jmp	_ZNSt11logic_errorD2Ev
	.cfi_endproc
.LFE12305:
	.size	_ZN5boost16exception_detail10clone_implINS_14broken_promiseEED1Ev, .-_ZN5boost16exception_detail10clone_implINS_14broken_promiseEED1Ev
	.section	.text._ZN5boost16exception_detail10clone_implINS_14broken_promiseEED0Ev,"axG",@progbits,_ZN5boost16exception_detail10clone_implINS_14broken_promiseEED0Ev,comdat
	.align 2
	.p2align 4,,15
	.weak	_ZN5boost16exception_detail10clone_implINS_14broken_promiseEED0Ev
	.type	_ZN5boost16exception_detail10clone_implINS_14broken_promiseEED0Ev, @function
_ZN5boost16exception_detail10clone_implINS_14broken_promiseEED0Ev:
.LFB12306:
	.cfi_startproc
	pushq	%rbx
	.cfi_def_cfa_offset 16
	.cfi_offset 3, -16
	movq	%rdi, %rbx
	movq	$_ZTVN5boost16exception_detail10clone_implINS_14broken_promiseEEE+104, 32(%rdi)
	movq	$_ZTVN5boost12future_errorE+16, (%rdi)
	call	_ZNSt11logic_errorD2Ev
	movq	%rbx, %rdi
	movl	$40, %esi
	popq	%rbx
	.cfi_def_cfa_offset 8
	jmp	_ZdlPvm
	.cfi_endproc
.LFE12306:
	.size	_ZN5boost16exception_detail10clone_implINS_14broken_promiseEED0Ev, .-_ZN5boost16exception_detail10clone_implINS_14broken_promiseEED0Ev
	.section	.text._ZN5boost16exception_detail19error_info_injectorINS_10task_movedEED2Ev,"axG",@progbits,_ZN5boost16exception_detail19error_info_injectorINS_10task_movedEED5Ev,comdat
	.align 2
	.p2align 4,,15
	.weak	_ZN5boost16exception_detail19error_info_injectorINS_10task_movedEED2Ev
	.type	_ZN5boost16exception_detail19error_info_injectorINS_10task_movedEED2Ev, @function
_ZN5boost16exception_detail19error_info_injectorINS_10task_movedEED2Ev:
.LFB13721:
	.cfi_startproc
	.cfi_personality 0x3,__gxx_personality_v0
	.cfi_lsda 0x3,.LLSDA13721
	pushq	%rbx
	.cfi_def_cfa_offset 16
	.cfi_offset 3, -16
	movq	%rdi, %rbx
	movq	$_ZTVN5boost16exception_detail19error_info_injectorINS_10task_movedEEE+16, (%rdi)
	movq	$_ZTVN5boost9exceptionE+16, 32(%rdi)
	movq	40(%rdi), %rdi
	testq	%rdi, %rdi
	je	.L181
	movq	(%rdi), %rax
	call	*32(%rax)
.L181:
	movq	$_ZTVN5boost12future_errorE+16, (%rbx)
	movq	%rbx, %rdi
	popq	%rbx
	.cfi_def_cfa_offset 8
	jmp	_ZNSt11logic_errorD2Ev
	.cfi_endproc
.LFE13721:
	.section	.gcc_except_table._ZN5boost16exception_detail19error_info_injectorINS_10task_movedEED2Ev,"aG",@progbits,_ZN5boost16exception_detail19error_info_injectorINS_10task_movedEED5Ev,comdat
.LLSDA13721:
	.byte	0xff
	.byte	0xff
	.byte	0x1
	.uleb128 .LLSDACSE13721-.LLSDACSB13721
.LLSDACSB13721:
.LLSDACSE13721:
	.section	.text._ZN5boost16exception_detail19error_info_injectorINS_10task_movedEED2Ev,"axG",@progbits,_ZN5boost16exception_detail19error_info_injectorINS_10task_movedEED5Ev,comdat
	.size	_ZN5boost16exception_detail19error_info_injectorINS_10task_movedEED2Ev, .-_ZN5boost16exception_detail19error_info_injectorINS_10task_movedEED2Ev
	.weak	_ZN5boost16exception_detail19error_info_injectorINS_10task_movedEED1Ev
	.set	_ZN5boost16exception_detail19error_info_injectorINS_10task_movedEED1Ev,_ZN5boost16exception_detail19error_info_injectorINS_10task_movedEED2Ev
	.set	.LTHUNK200,_ZN5boost16exception_detail19error_info_injectorINS_10task_movedEED1Ev
	.p2align 4,,15
	.weak	_ZThn32_N5boost16exception_detail19error_info_injectorINS_10task_movedEED1Ev
	.type	_ZThn32_N5boost16exception_detail19error_info_injectorINS_10task_movedEED1Ev, @function
_ZThn32_N5boost16exception_detail19error_info_injectorINS_10task_movedEED1Ev:
.LFB15754:
	.cfi_startproc
	subq	$32, %rdi
	jmp	.LTHUNK200
	.cfi_endproc
.LFE15754:
	.size	_ZThn32_N5boost16exception_detail19error_info_injectorINS_10task_movedEED1Ev, .-_ZThn32_N5boost16exception_detail19error_info_injectorINS_10task_movedEED1Ev
	.section	.text._ZN5boost16exception_detail19error_info_injectorINS_10task_movedEED0Ev,"axG",@progbits,_ZN5boost16exception_detail19error_info_injectorINS_10task_movedEED5Ev,comdat
	.align 2
	.p2align 4,,15
	.weak	_ZN5boost16exception_detail19error_info_injectorINS_10task_movedEED0Ev
	.type	_ZN5boost16exception_detail19error_info_injectorINS_10task_movedEED0Ev, @function
_ZN5boost16exception_detail19error_info_injectorINS_10task_movedEED0Ev:
.LFB13723:
	.cfi_startproc
	pushq	%rbx
	.cfi_def_cfa_offset 16
	.cfi_offset 3, -16
	movq	%rdi, %rbx
	call	_ZN5boost16exception_detail19error_info_injectorINS_10task_movedEED1Ev
	movq	%rbx, %rdi
	movl	$72, %esi
	popq	%rbx
	.cfi_def_cfa_offset 8
	jmp	_ZdlPvm
	.cfi_endproc
.LFE13723:
	.size	_ZN5boost16exception_detail19error_info_injectorINS_10task_movedEED0Ev, .-_ZN5boost16exception_detail19error_info_injectorINS_10task_movedEED0Ev
	.section	.text._ZN5boost16exception_detail10clone_implINS0_19error_info_injectorINS_10task_movedEEEED1Ev,"axG",@progbits,_ZN5boost16exception_detail10clone_implINS0_19error_info_injectorINS_10task_movedEEEED1Ev,comdat
	.align 2
	.p2align 4,,15
	.weak	_ZN5boost16exception_detail10clone_implINS0_19error_info_injectorINS_10task_movedEEEED1Ev
	.type	_ZN5boost16exception_detail10clone_implINS0_19error_info_injectorINS_10task_movedEEEED1Ev, @function
_ZN5boost16exception_detail10clone_implINS0_19error_info_injectorINS_10task_movedEEEED1Ev:
.LFB13727:
	.cfi_startproc
	movq	$_ZTVN5boost16exception_detail10clone_implINS0_19error_info_injectorINS_10task_movedEEEEE+24, (%rdi)
	movq	$_ZTVN5boost16exception_detail10clone_implINS0_19error_info_injectorINS_10task_movedEEEEE+80, 32(%rdi)
	movq	$_ZTVN5boost16exception_detail10clone_implINS0_19error_info_injectorINS_10task_movedEEEEE+136, 72(%rdi)
	jmp	_ZN5boost16exception_detail19error_info_injectorINS_10task_movedEED2Ev
	.cfi_endproc
.LFE13727:
	.size	_ZN5boost16exception_detail10clone_implINS0_19error_info_injectorINS_10task_movedEEEED1Ev, .-_ZN5boost16exception_detail10clone_implINS0_19error_info_injectorINS_10task_movedEEEED1Ev
	.section	.text._ZN5boost16exception_detail10clone_implINS0_19error_info_injectorINS_10task_movedEEEED0Ev,"axG",@progbits,_ZN5boost16exception_detail10clone_implINS0_19error_info_injectorINS_10task_movedEEEED0Ev,comdat
	.align 2
	.p2align 4,,15
	.weak	_ZN5boost16exception_detail10clone_implINS0_19error_info_injectorINS_10task_movedEEEED0Ev
	.type	_ZN5boost16exception_detail10clone_implINS0_19error_info_injectorINS_10task_movedEEEED0Ev, @function
_ZN5boost16exception_detail10clone_implINS0_19error_info_injectorINS_10task_movedEEEED0Ev:
.LFB13728:
	.cfi_startproc
	pushq	%rbx
	.cfi_def_cfa_offset 16
	.cfi_offset 3, -16
	movq	%rdi, %rbx
	movq	$_ZTVN5boost16exception_detail10clone_implINS0_19error_info_injectorINS_10task_movedEEEEE+24, (%rdi)
	movq	$_ZTVN5boost16exception_detail10clone_implINS0_19error_info_injectorINS_10task_movedEEEEE+80, 32(%rdi)
	movq	$_ZTVN5boost16exception_detail10clone_implINS0_19error_info_injectorINS_10task_movedEEEEE+136, 72(%rdi)
	call	_ZN5boost16exception_detail19error_info_injectorINS_10task_movedEED2Ev
	movq	%rbx, %rdi
	movl	$80, %esi
	popq	%rbx
	.cfi_def_cfa_offset 8
	jmp	_ZdlPvm
	.cfi_endproc
.LFE13728:
	.size	_ZN5boost16exception_detail10clone_implINS0_19error_info_injectorINS_10task_movedEEEED0Ev, .-_ZN5boost16exception_detail10clone_implINS0_19error_info_injectorINS_10task_movedEEEED0Ev
	.section	.text._ZN5boost16exception_detail19error_info_injectorINS_20task_already_startedEED2Ev,"axG",@progbits,_ZN5boost16exception_detail19error_info_injectorINS_20task_already_startedEED5Ev,comdat
	.align 2
	.p2align 4,,15
	.weak	_ZN5boost16exception_detail19error_info_injectorINS_20task_already_startedEED2Ev
	.type	_ZN5boost16exception_detail19error_info_injectorINS_20task_already_startedEED2Ev, @function
_ZN5boost16exception_detail19error_info_injectorINS_20task_already_startedEED2Ev:
.LFB14905:
	.cfi_startproc
	.cfi_personality 0x3,__gxx_personality_v0
	.cfi_lsda 0x3,.LLSDA14905
	pushq	%rbx
	.cfi_def_cfa_offset 16
	.cfi_offset 3, -16
	movq	%rdi, %rbx
	movq	$_ZTVN5boost16exception_detail19error_info_injectorINS_20task_already_startedEEE+16, (%rdi)
	movq	$_ZTVN5boost9exceptionE+16, 32(%rdi)
	movq	40(%rdi), %rdi
	testq	%rdi, %rdi
	je	.L192
	movq	(%rdi), %rax
	call	*32(%rax)
.L192:
	movq	$_ZTVN5boost12future_errorE+16, (%rbx)
	movq	%rbx, %rdi
	popq	%rbx
	.cfi_def_cfa_offset 8
	jmp	_ZNSt11logic_errorD2Ev
	.cfi_endproc
.LFE14905:
	.section	.gcc_except_table._ZN5boost16exception_detail19error_info_injectorINS_20task_already_startedEED2Ev,"aG",@progbits,_ZN5boost16exception_detail19error_info_injectorINS_20task_already_startedEED5Ev,comdat
.LLSDA14905:
	.byte	0xff
	.byte	0xff
	.byte	0x1
	.uleb128 .LLSDACSE14905-.LLSDACSB14905
.LLSDACSB14905:
.LLSDACSE14905:
	.section	.text._ZN5boost16exception_detail19error_info_injectorINS_20task_already_startedEED2Ev,"axG",@progbits,_ZN5boost16exception_detail19error_info_injectorINS_20task_already_startedEED5Ev,comdat
	.size	_ZN5boost16exception_detail19error_info_injectorINS_20task_already_startedEED2Ev, .-_ZN5boost16exception_detail19error_info_injectorINS_20task_already_startedEED2Ev
	.weak	_ZN5boost16exception_detail19error_info_injectorINS_20task_already_startedEED1Ev
	.set	_ZN5boost16exception_detail19error_info_injectorINS_20task_already_startedEED1Ev,_ZN5boost16exception_detail19error_info_injectorINS_20task_already_startedEED2Ev
	.set	.LTHUNK276,_ZN5boost16exception_detail19error_info_injectorINS_20task_already_startedEED1Ev
	.p2align 4,,15
	.weak	_ZThn32_N5boost16exception_detail19error_info_injectorINS_20task_already_startedEED1Ev
	.type	_ZThn32_N5boost16exception_detail19error_info_injectorINS_20task_already_startedEED1Ev, @function
_ZThn32_N5boost16exception_detail19error_info_injectorINS_20task_already_startedEED1Ev:
.LFB15758:
	.cfi_startproc
	subq	$32, %rdi
	jmp	.LTHUNK276
	.cfi_endproc
.LFE15758:
	.size	_ZThn32_N5boost16exception_detail19error_info_injectorINS_20task_already_startedEED1Ev, .-_ZThn32_N5boost16exception_detail19error_info_injectorINS_20task_already_startedEED1Ev
	.section	.text._ZN5boost16exception_detail19error_info_injectorINS_20task_already_startedEED0Ev,"axG",@progbits,_ZN5boost16exception_detail19error_info_injectorINS_20task_already_startedEED5Ev,comdat
	.align 2
	.p2align 4,,15
	.weak	_ZN5boost16exception_detail19error_info_injectorINS_20task_already_startedEED0Ev
	.type	_ZN5boost16exception_detail19error_info_injectorINS_20task_already_startedEED0Ev, @function
_ZN5boost16exception_detail19error_info_injectorINS_20task_already_startedEED0Ev:
.LFB14907:
	.cfi_startproc
	pushq	%rbx
	.cfi_def_cfa_offset 16
	.cfi_offset 3, -16
	movq	%rdi, %rbx
	call	_ZN5boost16exception_detail19error_info_injectorINS_20task_already_startedEED1Ev
	movq	%rbx, %rdi
	movl	$72, %esi
	popq	%rbx
	.cfi_def_cfa_offset 8
	jmp	_ZdlPvm
	.cfi_endproc
.LFE14907:
	.size	_ZN5boost16exception_detail19error_info_injectorINS_20task_already_startedEED0Ev, .-_ZN5boost16exception_detail19error_info_injectorINS_20task_already_startedEED0Ev
	.section	.text._ZN5boost16exception_detail10clone_implINS0_19error_info_injectorINS_20task_already_startedEEEED1Ev,"axG",@progbits,_ZN5boost16exception_detail10clone_implINS0_19error_info_injectorINS_20task_already_startedEEEED1Ev,comdat
	.align 2
	.p2align 4,,15
	.weak	_ZN5boost16exception_detail10clone_implINS0_19error_info_injectorINS_20task_already_startedEEEED1Ev
	.type	_ZN5boost16exception_detail10clone_implINS0_19error_info_injectorINS_20task_already_startedEEEED1Ev, @function
_ZN5boost16exception_detail10clone_implINS0_19error_info_injectorINS_20task_already_startedEEEED1Ev:
.LFB14911:
	.cfi_startproc
	movq	$_ZTVN5boost16exception_detail10clone_implINS0_19error_info_injectorINS_20task_already_startedEEEEE+24, (%rdi)
	movq	$_ZTVN5boost16exception_detail10clone_implINS0_19error_info_injectorINS_20task_already_startedEEEEE+80, 32(%rdi)
	movq	$_ZTVN5boost16exception_detail10clone_implINS0_19error_info_injectorINS_20task_already_startedEEEEE+136, 72(%rdi)
	jmp	_ZN5boost16exception_detail19error_info_injectorINS_20task_already_startedEED2Ev
	.cfi_endproc
.LFE14911:
	.size	_ZN5boost16exception_detail10clone_implINS0_19error_info_injectorINS_20task_already_startedEEEED1Ev, .-_ZN5boost16exception_detail10clone_implINS0_19error_info_injectorINS_20task_already_startedEEEED1Ev
	.section	.text._ZN5boost16exception_detail10clone_implINS0_19error_info_injectorINS_20task_already_startedEEEED0Ev,"axG",@progbits,_ZN5boost16exception_detail10clone_implINS0_19error_info_injectorINS_20task_already_startedEEEED0Ev,comdat
	.align 2
	.p2align 4,,15
	.weak	_ZN5boost16exception_detail10clone_implINS0_19error_info_injectorINS_20task_already_startedEEEED0Ev
	.type	_ZN5boost16exception_detail10clone_implINS0_19error_info_injectorINS_20task_already_startedEEEED0Ev, @function
_ZN5boost16exception_detail10clone_implINS0_19error_info_injectorINS_20task_already_startedEEEED0Ev:
.LFB14912:
	.cfi_startproc
	pushq	%rbx
	.cfi_def_cfa_offset 16
	.cfi_offset 3, -16
	movq	%rdi, %rbx
	movq	$_ZTVN5boost16exception_detail10clone_implINS0_19error_info_injectorINS_20task_already_startedEEEEE+24, (%rdi)
	movq	$_ZTVN5boost16exception_detail10clone_implINS0_19error_info_injectorINS_20task_already_startedEEEEE+80, 32(%rdi)
	movq	$_ZTVN5boost16exception_detail10clone_implINS0_19error_info_injectorINS_20task_already_startedEEEEE+136, 72(%rdi)
	call	_ZN5boost16exception_detail19error_info_injectorINS_20task_already_startedEED2Ev
	movq	%rbx, %rdi
	movl	$80, %esi
	popq	%rbx
	.cfi_def_cfa_offset 8
	jmp	_ZdlPvm
	.cfi_endproc
.LFE14912:
	.size	_ZN5boost16exception_detail10clone_implINS0_19error_info_injectorINS_20task_already_startedEEEED0Ev, .-_ZN5boost16exception_detail10clone_implINS0_19error_info_injectorINS_20task_already_startedEEEED0Ev
	.section	.text._ZN5boost16exception_detail19error_info_injectorINS_20future_uninitializedEED2Ev,"axG",@progbits,_ZN5boost16exception_detail19error_info_injectorINS_20future_uninitializedEED5Ev,comdat
	.align 2
	.p2align 4,,15
	.weak	_ZN5boost16exception_detail19error_info_injectorINS_20future_uninitializedEED2Ev
	.type	_ZN5boost16exception_detail19error_info_injectorINS_20future_uninitializedEED2Ev, @function
_ZN5boost16exception_detail19error_info_injectorINS_20future_uninitializedEED2Ev:
.LFB12975:
	.cfi_startproc
	.cfi_personality 0x3,__gxx_personality_v0
	.cfi_lsda 0x3,.LLSDA12975
	pushq	%rbx
	.cfi_def_cfa_offset 16
	.cfi_offset 3, -16
	movq	%rdi, %rbx
	movq	$_ZTVN5boost16exception_detail19error_info_injectorINS_20future_uninitializedEEE+16, (%rdi)
	movq	$_ZTVN5boost9exceptionE+16, 32(%rdi)
	movq	40(%rdi), %rdi
	testq	%rdi, %rdi
	je	.L203
	movq	(%rdi), %rax
	call	*32(%rax)
.L203:
	movq	$_ZTVN5boost12future_errorE+16, (%rbx)
	movq	%rbx, %rdi
	popq	%rbx
	.cfi_def_cfa_offset 8
	jmp	_ZNSt11logic_errorD2Ev
	.cfi_endproc
.LFE12975:
	.section	.gcc_except_table._ZN5boost16exception_detail19error_info_injectorINS_20future_uninitializedEED2Ev,"aG",@progbits,_ZN5boost16exception_detail19error_info_injectorINS_20future_uninitializedEED5Ev,comdat
.LLSDA12975:
	.byte	0xff
	.byte	0xff
	.byte	0x1
	.uleb128 .LLSDACSE12975-.LLSDACSB12975
.LLSDACSB12975:
.LLSDACSE12975:
	.section	.text._ZN5boost16exception_detail19error_info_injectorINS_20future_uninitializedEED2Ev,"axG",@progbits,_ZN5boost16exception_detail19error_info_injectorINS_20future_uninitializedEED5Ev,comdat
	.size	_ZN5boost16exception_detail19error_info_injectorINS_20future_uninitializedEED2Ev, .-_ZN5boost16exception_detail19error_info_injectorINS_20future_uninitializedEED2Ev
	.weak	_ZN5boost16exception_detail19error_info_injectorINS_20future_uninitializedEED1Ev
	.set	_ZN5boost16exception_detail19error_info_injectorINS_20future_uninitializedEED1Ev,_ZN5boost16exception_detail19error_info_injectorINS_20future_uninitializedEED2Ev
	.set	.LTHUNK170,_ZN5boost16exception_detail19error_info_injectorINS_20future_uninitializedEED1Ev
	.p2align 4,,15
	.weak	_ZThn32_N5boost16exception_detail19error_info_injectorINS_20future_uninitializedEED1Ev
	.type	_ZThn32_N5boost16exception_detail19error_info_injectorINS_20future_uninitializedEED1Ev, @function
_ZThn32_N5boost16exception_detail19error_info_injectorINS_20future_uninitializedEED1Ev:
.LFB15762:
	.cfi_startproc
	subq	$32, %rdi
	jmp	.LTHUNK170
	.cfi_endproc
.LFE15762:
	.size	_ZThn32_N5boost16exception_detail19error_info_injectorINS_20future_uninitializedEED1Ev, .-_ZThn32_N5boost16exception_detail19error_info_injectorINS_20future_uninitializedEED1Ev
	.section	.text._ZN5boost16exception_detail19error_info_injectorINS_20future_uninitializedEED0Ev,"axG",@progbits,_ZN5boost16exception_detail19error_info_injectorINS_20future_uninitializedEED5Ev,comdat
	.align 2
	.p2align 4,,15
	.weak	_ZN5boost16exception_detail19error_info_injectorINS_20future_uninitializedEED0Ev
	.type	_ZN5boost16exception_detail19error_info_injectorINS_20future_uninitializedEED0Ev, @function
_ZN5boost16exception_detail19error_info_injectorINS_20future_uninitializedEED0Ev:
.LFB12977:
	.cfi_startproc
	pushq	%rbx
	.cfi_def_cfa_offset 16
	.cfi_offset 3, -16
	movq	%rdi, %rbx
	call	_ZN5boost16exception_detail19error_info_injectorINS_20future_uninitializedEED1Ev
	movq	%rbx, %rdi
	movl	$72, %esi
	popq	%rbx
	.cfi_def_cfa_offset 8
	jmp	_ZdlPvm
	.cfi_endproc
.LFE12977:
	.size	_ZN5boost16exception_detail19error_info_injectorINS_20future_uninitializedEED0Ev, .-_ZN5boost16exception_detail19error_info_injectorINS_20future_uninitializedEED0Ev
	.section	.text._ZN5boost16exception_detail10clone_implINS0_19error_info_injectorINS_20future_uninitializedEEEED1Ev,"axG",@progbits,_ZN5boost16exception_detail10clone_implINS0_19error_info_injectorINS_20future_uninitializedEEEED1Ev,comdat
	.align 2
	.p2align 4,,15
	.weak	_ZN5boost16exception_detail10clone_implINS0_19error_info_injectorINS_20future_uninitializedEEEED1Ev
	.type	_ZN5boost16exception_detail10clone_implINS0_19error_info_injectorINS_20future_uninitializedEEEED1Ev, @function
_ZN5boost16exception_detail10clone_implINS0_19error_info_injectorINS_20future_uninitializedEEEED1Ev:
.LFB12981:
	.cfi_startproc
	movq	$_ZTVN5boost16exception_detail10clone_implINS0_19error_info_injectorINS_20future_uninitializedEEEEE+24, (%rdi)
	movq	$_ZTVN5boost16exception_detail10clone_implINS0_19error_info_injectorINS_20future_uninitializedEEEEE+80, 32(%rdi)
	movq	$_ZTVN5boost16exception_detail10clone_implINS0_19error_info_injectorINS_20future_uninitializedEEEEE+136, 72(%rdi)
	jmp	_ZN5boost16exception_detail19error_info_injectorINS_20future_uninitializedEED2Ev
	.cfi_endproc
.LFE12981:
	.size	_ZN5boost16exception_detail10clone_implINS0_19error_info_injectorINS_20future_uninitializedEEEED1Ev, .-_ZN5boost16exception_detail10clone_implINS0_19error_info_injectorINS_20future_uninitializedEEEED1Ev
	.section	.text._ZN5boost16exception_detail10clone_implINS0_19error_info_injectorINS_20future_uninitializedEEEED0Ev,"axG",@progbits,_ZN5boost16exception_detail10clone_implINS0_19error_info_injectorINS_20future_uninitializedEEEED0Ev,comdat
	.align 2
	.p2align 4,,15
	.weak	_ZN5boost16exception_detail10clone_implINS0_19error_info_injectorINS_20future_uninitializedEEEED0Ev
	.type	_ZN5boost16exception_detail10clone_implINS0_19error_info_injectorINS_20future_uninitializedEEEED0Ev, @function
_ZN5boost16exception_detail10clone_implINS0_19error_info_injectorINS_20future_uninitializedEEEED0Ev:
.LFB12982:
	.cfi_startproc
	pushq	%rbx
	.cfi_def_cfa_offset 16
	.cfi_offset 3, -16
	movq	%rdi, %rbx
	movq	$_ZTVN5boost16exception_detail10clone_implINS0_19error_info_injectorINS_20future_uninitializedEEEEE+24, (%rdi)
	movq	$_ZTVN5boost16exception_detail10clone_implINS0_19error_info_injectorINS_20future_uninitializedEEEEE+80, 32(%rdi)
	movq	$_ZTVN5boost16exception_detail10clone_implINS0_19error_info_injectorINS_20future_uninitializedEEEEE+136, 72(%rdi)
	call	_ZN5boost16exception_detail19error_info_injectorINS_20future_uninitializedEED2Ev
	movq	%rbx, %rdi
	movl	$80, %esi
	popq	%rbx
	.cfi_def_cfa_offset 8
	jmp	_ZdlPvm
	.cfi_endproc
.LFE12982:
	.size	_ZN5boost16exception_detail10clone_implINS0_19error_info_injectorINS_20future_uninitializedEEEED0Ev, .-_ZN5boost16exception_detail10clone_implINS0_19error_info_injectorINS_20future_uninitializedEEEED0Ev
	.section	.text._ZN5boost16exception_detail39current_exception_std_exception_wrapperISt11logic_errorED2Ev,"axG",@progbits,_ZN5boost16exception_detail39current_exception_std_exception_wrapperISt11logic_errorED5Ev,comdat
	.align 2
	.p2align 4,,15
	.weak	_ZN5boost16exception_detail39current_exception_std_exception_wrapperISt11logic_errorED2Ev
	.type	_ZN5boost16exception_detail39current_exception_std_exception_wrapperISt11logic_errorED2Ev, @function
_ZN5boost16exception_detail39current_exception_std_exception_wrapperISt11logic_errorED2Ev:
.LFB12015:
	.cfi_startproc
	.cfi_personality 0x3,__gxx_personality_v0
	.cfi_lsda 0x3,.LLSDA12015
	pushq	%rbx
	.cfi_def_cfa_offset 16
	.cfi_offset 3, -16
	movq	%rdi, %rbx
	movq	$_ZTVN5boost16exception_detail39current_exception_std_exception_wrapperISt11logic_errorEE+16, (%rdi)
	movq	$_ZTVN5boost9exceptionE+16, 16(%rdi)
	movq	24(%rdi), %rdi
	testq	%rdi, %rdi
	je	.L214
	movq	(%rdi), %rax
	call	*32(%rax)
.L214:
	movq	%rbx, %rdi
	popq	%rbx
	.cfi_def_cfa_offset 8
	jmp	_ZNSt11logic_errorD2Ev
	.cfi_endproc
.LFE12015:
	.section	.gcc_except_table._ZN5boost16exception_detail39current_exception_std_exception_wrapperISt11logic_errorED2Ev,"aG",@progbits,_ZN5boost16exception_detail39current_exception_std_exception_wrapperISt11logic_errorED5Ev,comdat
.LLSDA12015:
	.byte	0xff
	.byte	0xff
	.byte	0x1
	.uleb128 .LLSDACSE12015-.LLSDACSB12015
.LLSDACSB12015:
.LLSDACSE12015:
	.section	.text._ZN5boost16exception_detail39current_exception_std_exception_wrapperISt11logic_errorED2Ev,"axG",@progbits,_ZN5boost16exception_detail39current_exception_std_exception_wrapperISt11logic_errorED5Ev,comdat
	.size	_ZN5boost16exception_detail39current_exception_std_exception_wrapperISt11logic_errorED2Ev, .-_ZN5boost16exception_detail39current_exception_std_exception_wrapperISt11logic_errorED2Ev
	.weak	_ZN5boost16exception_detail39current_exception_std_exception_wrapperISt11logic_errorED1Ev
	.set	_ZN5boost16exception_detail39current_exception_std_exception_wrapperISt11logic_errorED1Ev,_ZN5boost16exception_detail39current_exception_std_exception_wrapperISt11logic_errorED2Ev
	.set	.LTHUNK68,_ZN5boost16exception_detail39current_exception_std_exception_wrapperISt11logic_errorED1Ev
	.p2align 4,,15
	.weak	_ZThn16_N5boost16exception_detail39current_exception_std_exception_wrapperISt11logic_errorED1Ev
	.type	_ZThn16_N5boost16exception_detail39current_exception_std_exception_wrapperISt11logic_errorED1Ev, @function
_ZThn16_N5boost16exception_detail39current_exception_std_exception_wrapperISt11logic_errorED1Ev:
.LFB15766:
	.cfi_startproc
	subq	$16, %rdi
	jmp	.LTHUNK68
	.cfi_endproc
.LFE15766:
	.size	_ZThn16_N5boost16exception_detail39current_exception_std_exception_wrapperISt11logic_errorED1Ev, .-_ZThn16_N5boost16exception_detail39current_exception_std_exception_wrapperISt11logic_errorED1Ev
	.section	.text._ZN5boost16exception_detail39current_exception_std_exception_wrapperISt11logic_errorED0Ev,"axG",@progbits,_ZN5boost16exception_detail39current_exception_std_exception_wrapperISt11logic_errorED5Ev,comdat
	.align 2
	.p2align 4,,15
	.weak	_ZN5boost16exception_detail39current_exception_std_exception_wrapperISt11logic_errorED0Ev
	.type	_ZN5boost16exception_detail39current_exception_std_exception_wrapperISt11logic_errorED0Ev, @function
_ZN5boost16exception_detail39current_exception_std_exception_wrapperISt11logic_errorED0Ev:
.LFB12017:
	.cfi_startproc
	pushq	%rbx
	.cfi_def_cfa_offset 16
	.cfi_offset 3, -16
	movq	%rdi, %rbx
	call	_ZN5boost16exception_detail39current_exception_std_exception_wrapperISt11logic_errorED1Ev
	movq	%rbx, %rdi
	movl	$56, %esi
	popq	%rbx
	.cfi_def_cfa_offset 8
	jmp	_ZdlPvm
	.cfi_endproc
.LFE12017:
	.size	_ZN5boost16exception_detail39current_exception_std_exception_wrapperISt11logic_errorED0Ev, .-_ZN5boost16exception_detail39current_exception_std_exception_wrapperISt11logic_errorED0Ev
	.section	.text._ZN5boost16exception_detail10clone_implINS0_39current_exception_std_exception_wrapperISt11logic_errorEEED1Ev,"axG",@progbits,_ZN5boost16exception_detail10clone_implINS0_39current_exception_std_exception_wrapperISt11logic_errorEEED1Ev,comdat
	.align 2
	.p2align 4,,15
	.weak	_ZN5boost16exception_detail10clone_implINS0_39current_exception_std_exception_wrapperISt11logic_errorEEED1Ev
	.type	_ZN5boost16exception_detail10clone_implINS0_39current_exception_std_exception_wrapperISt11logic_errorEEED1Ev, @function
_ZN5boost16exception_detail10clone_implINS0_39current_exception_std_exception_wrapperISt11logic_errorEEED1Ev:
.LFB12739:
	.cfi_startproc
	movq	$_ZTVN5boost16exception_detail10clone_implINS0_39current_exception_std_exception_wrapperISt11logic_errorEEEE+24, (%rdi)
	movq	$_ZTVN5boost16exception_detail10clone_implINS0_39current_exception_std_exception_wrapperISt11logic_errorEEEE+80, 16(%rdi)
	movq	$_ZTVN5boost16exception_detail10clone_implINS0_39current_exception_std_exception_wrapperISt11logic_errorEEEE+136, 56(%rdi)
	jmp	_ZN5boost16exception_detail39current_exception_std_exception_wrapperISt11logic_errorED2Ev
	.cfi_endproc
.LFE12739:
	.size	_ZN5boost16exception_detail10clone_implINS0_39current_exception_std_exception_wrapperISt11logic_errorEEED1Ev, .-_ZN5boost16exception_detail10clone_implINS0_39current_exception_std_exception_wrapperISt11logic_errorEEED1Ev
	.section	.text._ZN5boost16exception_detail10clone_implINS0_39current_exception_std_exception_wrapperISt11logic_errorEEED0Ev,"axG",@progbits,_ZN5boost16exception_detail10clone_implINS0_39current_exception_std_exception_wrapperISt11logic_errorEEED0Ev,comdat
	.align 2
	.p2align 4,,15
	.weak	_ZN5boost16exception_detail10clone_implINS0_39current_exception_std_exception_wrapperISt11logic_errorEEED0Ev
	.type	_ZN5boost16exception_detail10clone_implINS0_39current_exception_std_exception_wrapperISt11logic_errorEEED0Ev, @function
_ZN5boost16exception_detail10clone_implINS0_39current_exception_std_exception_wrapperISt11logic_errorEEED0Ev:
.LFB12740:
	.cfi_startproc
	pushq	%rbx
	.cfi_def_cfa_offset 16
	.cfi_offset 3, -16
	movq	%rdi, %rbx
	movq	$_ZTVN5boost16exception_detail10clone_implINS0_39current_exception_std_exception_wrapperISt11logic_errorEEEE+24, (%rdi)
	movq	$_ZTVN5boost16exception_detail10clone_implINS0_39current_exception_std_exception_wrapperISt11logic_errorEEEE+80, 16(%rdi)
	movq	$_ZTVN5boost16exception_detail10clone_implINS0_39current_exception_std_exception_wrapperISt11logic_errorEEEE+136, 56(%rdi)
	call	_ZN5boost16exception_detail39current_exception_std_exception_wrapperISt11logic_errorED2Ev
	movq	%rbx, %rdi
	movl	$64, %esi
	popq	%rbx
	.cfi_def_cfa_offset 8
	jmp	_ZdlPvm
	.cfi_endproc
.LFE12740:
	.size	_ZN5boost16exception_detail10clone_implINS0_39current_exception_std_exception_wrapperISt11logic_errorEEED0Ev, .-_ZN5boost16exception_detail10clone_implINS0_39current_exception_std_exception_wrapperISt11logic_errorEEED0Ev
	.section	.text._ZN5boost16exception_detail19error_info_injectorINS_24future_already_retrievedEED2Ev,"axG",@progbits,_ZN5boost16exception_detail19error_info_injectorINS_24future_already_retrievedEED5Ev,comdat
	.align 2
	.p2align 4,,15
	.weak	_ZN5boost16exception_detail19error_info_injectorINS_24future_already_retrievedEED2Ev
	.type	_ZN5boost16exception_detail19error_info_injectorINS_24future_already_retrievedEED2Ev, @function
_ZN5boost16exception_detail19error_info_injectorINS_24future_already_retrievedEED2Ev:
.LFB12329:
	.cfi_startproc
	.cfi_personality 0x3,__gxx_personality_v0
	.cfi_lsda 0x3,.LLSDA12329
	pushq	%rbx
	.cfi_def_cfa_offset 16
	.cfi_offset 3, -16
	movq	%rdi, %rbx
	movq	$_ZTVN5boost16exception_detail19error_info_injectorINS_24future_already_retrievedEEE+16, (%rdi)
	movq	$_ZTVN5boost9exceptionE+16, 32(%rdi)
	movq	40(%rdi), %rdi
	testq	%rdi, %rdi
	je	.L225
	movq	(%rdi), %rax
	call	*32(%rax)
.L225:
	movq	$_ZTVN5boost12future_errorE+16, (%rbx)
	movq	%rbx, %rdi
	popq	%rbx
	.cfi_def_cfa_offset 8
	jmp	_ZNSt11logic_errorD2Ev
	.cfi_endproc
.LFE12329:
	.section	.gcc_except_table._ZN5boost16exception_detail19error_info_injectorINS_24future_already_retrievedEED2Ev,"aG",@progbits,_ZN5boost16exception_detail19error_info_injectorINS_24future_already_retrievedEED5Ev,comdat
.LLSDA12329:
	.byte	0xff
	.byte	0xff
	.byte	0x1
	.uleb128 .LLSDACSE12329-.LLSDACSB12329
.LLSDACSB12329:
.LLSDACSE12329:
	.section	.text._ZN5boost16exception_detail19error_info_injectorINS_24future_already_retrievedEED2Ev,"axG",@progbits,_ZN5boost16exception_detail19error_info_injectorINS_24future_already_retrievedEED5Ev,comdat
	.size	_ZN5boost16exception_detail19error_info_injectorINS_24future_already_retrievedEED2Ev, .-_ZN5boost16exception_detail19error_info_injectorINS_24future_already_retrievedEED2Ev
	.weak	_ZN5boost16exception_detail19error_info_injectorINS_24future_already_retrievedEED1Ev
	.set	_ZN5boost16exception_detail19error_info_injectorINS_24future_already_retrievedEED1Ev,_ZN5boost16exception_detail19error_info_injectorINS_24future_already_retrievedEED2Ev
	.set	.LTHUNK102,_ZN5boost16exception_detail19error_info_injectorINS_24future_already_retrievedEED1Ev
	.p2align 4,,15
	.weak	_ZThn32_N5boost16exception_detail19error_info_injectorINS_24future_already_retrievedEED1Ev
	.type	_ZThn32_N5boost16exception_detail19error_info_injectorINS_24future_already_retrievedEED1Ev, @function
_ZThn32_N5boost16exception_detail19error_info_injectorINS_24future_already_retrievedEED1Ev:
.LFB15770:
	.cfi_startproc
	subq	$32, %rdi
	jmp	.LTHUNK102
	.cfi_endproc
.LFE15770:
	.size	_ZThn32_N5boost16exception_detail19error_info_injectorINS_24future_already_retrievedEED1Ev, .-_ZThn32_N5boost16exception_detail19error_info_injectorINS_24future_already_retrievedEED1Ev
	.section	.text._ZN5boost16exception_detail19error_info_injectorINS_24future_already_retrievedEED0Ev,"axG",@progbits,_ZN5boost16exception_detail19error_info_injectorINS_24future_already_retrievedEED5Ev,comdat
	.align 2
	.p2align 4,,15
	.weak	_ZN5boost16exception_detail19error_info_injectorINS_24future_already_retrievedEED0Ev
	.type	_ZN5boost16exception_detail19error_info_injectorINS_24future_already_retrievedEED0Ev, @function
_ZN5boost16exception_detail19error_info_injectorINS_24future_already_retrievedEED0Ev:
.LFB12331:
	.cfi_startproc
	pushq	%rbx
	.cfi_def_cfa_offset 16
	.cfi_offset 3, -16
	movq	%rdi, %rbx
	call	_ZN5boost16exception_detail19error_info_injectorINS_24future_already_retrievedEED1Ev
	movq	%rbx, %rdi
	movl	$72, %esi
	popq	%rbx
	.cfi_def_cfa_offset 8
	jmp	_ZdlPvm
	.cfi_endproc
.LFE12331:
	.size	_ZN5boost16exception_detail19error_info_injectorINS_24future_already_retrievedEED0Ev, .-_ZN5boost16exception_detail19error_info_injectorINS_24future_already_retrievedEED0Ev
	.section	.text._ZN5boost16exception_detail10clone_implINS0_19error_info_injectorINS_24future_already_retrievedEEEED1Ev,"axG",@progbits,_ZN5boost16exception_detail10clone_implINS0_19error_info_injectorINS_24future_already_retrievedEEEED1Ev,comdat
	.align 2
	.p2align 4,,15
	.weak	_ZN5boost16exception_detail10clone_implINS0_19error_info_injectorINS_24future_already_retrievedEEEED1Ev
	.type	_ZN5boost16exception_detail10clone_implINS0_19error_info_injectorINS_24future_already_retrievedEEEED1Ev, @function
_ZN5boost16exception_detail10clone_implINS0_19error_info_injectorINS_24future_already_retrievedEEEED1Ev:
.LFB12335:
	.cfi_startproc
	movq	$_ZTVN5boost16exception_detail10clone_implINS0_19error_info_injectorINS_24future_already_retrievedEEEEE+24, (%rdi)
	movq	$_ZTVN5boost16exception_detail10clone_implINS0_19error_info_injectorINS_24future_already_retrievedEEEEE+80, 32(%rdi)
	movq	$_ZTVN5boost16exception_detail10clone_implINS0_19error_info_injectorINS_24future_already_retrievedEEEEE+136, 72(%rdi)
	jmp	_ZN5boost16exception_detail19error_info_injectorINS_24future_already_retrievedEED2Ev
	.cfi_endproc
.LFE12335:
	.size	_ZN5boost16exception_detail10clone_implINS0_19error_info_injectorINS_24future_already_retrievedEEEED1Ev, .-_ZN5boost16exception_detail10clone_implINS0_19error_info_injectorINS_24future_already_retrievedEEEED1Ev
	.section	.text._ZN5boost16exception_detail10clone_implINS0_19error_info_injectorINS_24future_already_retrievedEEEED0Ev,"axG",@progbits,_ZN5boost16exception_detail10clone_implINS0_19error_info_injectorINS_24future_already_retrievedEEEED0Ev,comdat
	.align 2
	.p2align 4,,15
	.weak	_ZN5boost16exception_detail10clone_implINS0_19error_info_injectorINS_24future_already_retrievedEEEED0Ev
	.type	_ZN5boost16exception_detail10clone_implINS0_19error_info_injectorINS_24future_already_retrievedEEEED0Ev, @function
_ZN5boost16exception_detail10clone_implINS0_19error_info_injectorINS_24future_already_retrievedEEEED0Ev:
.LFB12336:
	.cfi_startproc
	pushq	%rbx
	.cfi_def_cfa_offset 16
	.cfi_offset 3, -16
	movq	%rdi, %rbx
	movq	$_ZTVN5boost16exception_detail10clone_implINS0_19error_info_injectorINS_24future_already_retrievedEEEEE+24, (%rdi)
	movq	$_ZTVN5boost16exception_detail10clone_implINS0_19error_info_injectorINS_24future_already_retrievedEEEEE+80, 32(%rdi)
	movq	$_ZTVN5boost16exception_detail10clone_implINS0_19error_info_injectorINS_24future_already_retrievedEEEEE+136, 72(%rdi)
	call	_ZN5boost16exception_detail19error_info_injectorINS_24future_already_retrievedEED2Ev
	movq	%rbx, %rdi
	movl	$80, %esi
	popq	%rbx
	.cfi_def_cfa_offset 8
	jmp	_ZdlPvm
	.cfi_endproc
.LFE12336:
	.size	_ZN5boost16exception_detail10clone_implINS0_19error_info_injectorINS_24future_already_retrievedEEEED0Ev, .-_ZN5boost16exception_detail10clone_implINS0_19error_info_injectorINS_24future_already_retrievedEEEED0Ev
	.section	.text._ZN5boost16exception_detail19error_info_injectorINS_25promise_already_satisfiedEED2Ev,"axG",@progbits,_ZN5boost16exception_detail19error_info_injectorINS_25promise_already_satisfiedEED5Ev,comdat
	.align 2
	.p2align 4,,15
	.weak	_ZN5boost16exception_detail19error_info_injectorINS_25promise_already_satisfiedEED2Ev
	.type	_ZN5boost16exception_detail19error_info_injectorINS_25promise_already_satisfiedEED2Ev, @function
_ZN5boost16exception_detail19error_info_injectorINS_25promise_already_satisfiedEED2Ev:
.LFB12250:
	.cfi_startproc
	.cfi_personality 0x3,__gxx_personality_v0
	.cfi_lsda 0x3,.LLSDA12250
	pushq	%rbx
	.cfi_def_cfa_offset 16
	.cfi_offset 3, -16
	movq	%rdi, %rbx
	movq	$_ZTVN5boost16exception_detail19error_info_injectorINS_25promise_already_satisfiedEEE+16, (%rdi)
	movq	$_ZTVN5boost9exceptionE+16, 32(%rdi)
	movq	40(%rdi), %rdi
	testq	%rdi, %rdi
	je	.L236
	movq	(%rdi), %rax
	call	*32(%rax)
.L236:
	movq	$_ZTVN5boost12future_errorE+16, (%rbx)
	movq	%rbx, %rdi
	popq	%rbx
	.cfi_def_cfa_offset 8
	jmp	_ZNSt11logic_errorD2Ev
	.cfi_endproc
.LFE12250:
	.section	.gcc_except_table._ZN5boost16exception_detail19error_info_injectorINS_25promise_already_satisfiedEED2Ev,"aG",@progbits,_ZN5boost16exception_detail19error_info_injectorINS_25promise_already_satisfiedEED5Ev,comdat
.LLSDA12250:
	.byte	0xff
	.byte	0xff
	.byte	0x1
	.uleb128 .LLSDACSE12250-.LLSDACSB12250
.LLSDACSB12250:
.LLSDACSE12250:
	.section	.text._ZN5boost16exception_detail19error_info_injectorINS_25promise_already_satisfiedEED2Ev,"axG",@progbits,_ZN5boost16exception_detail19error_info_injectorINS_25promise_already_satisfiedEED5Ev,comdat
	.size	_ZN5boost16exception_detail19error_info_injectorINS_25promise_already_satisfiedEED2Ev, .-_ZN5boost16exception_detail19error_info_injectorINS_25promise_already_satisfiedEED2Ev
	.weak	_ZN5boost16exception_detail19error_info_injectorINS_25promise_already_satisfiedEED1Ev
	.set	_ZN5boost16exception_detail19error_info_injectorINS_25promise_already_satisfiedEED1Ev,_ZN5boost16exception_detail19error_info_injectorINS_25promise_already_satisfiedEED2Ev
	.set	.LTHUNK88,_ZN5boost16exception_detail19error_info_injectorINS_25promise_already_satisfiedEED1Ev
	.p2align 4,,15
	.weak	_ZThn32_N5boost16exception_detail19error_info_injectorINS_25promise_already_satisfiedEED1Ev
	.type	_ZThn32_N5boost16exception_detail19error_info_injectorINS_25promise_already_satisfiedEED1Ev, @function
_ZThn32_N5boost16exception_detail19error_info_injectorINS_25promise_already_satisfiedEED1Ev:
.LFB15774:
	.cfi_startproc
	subq	$32, %rdi
	jmp	.LTHUNK88
	.cfi_endproc
.LFE15774:
	.size	_ZThn32_N5boost16exception_detail19error_info_injectorINS_25promise_already_satisfiedEED1Ev, .-_ZThn32_N5boost16exception_detail19error_info_injectorINS_25promise_already_satisfiedEED1Ev
	.section	.text._ZN5boost16exception_detail19error_info_injectorINS_25promise_already_satisfiedEED0Ev,"axG",@progbits,_ZN5boost16exception_detail19error_info_injectorINS_25promise_already_satisfiedEED5Ev,comdat
	.align 2
	.p2align 4,,15
	.weak	_ZN5boost16exception_detail19error_info_injectorINS_25promise_already_satisfiedEED0Ev
	.type	_ZN5boost16exception_detail19error_info_injectorINS_25promise_already_satisfiedEED0Ev, @function
_ZN5boost16exception_detail19error_info_injectorINS_25promise_already_satisfiedEED0Ev:
.LFB12252:
	.cfi_startproc
	pushq	%rbx
	.cfi_def_cfa_offset 16
	.cfi_offset 3, -16
	movq	%rdi, %rbx
	call	_ZN5boost16exception_detail19error_info_injectorINS_25promise_already_satisfiedEED1Ev
	movq	%rbx, %rdi
	movl	$72, %esi
	popq	%rbx
	.cfi_def_cfa_offset 8
	jmp	_ZdlPvm
	.cfi_endproc
.LFE12252:
	.size	_ZN5boost16exception_detail19error_info_injectorINS_25promise_already_satisfiedEED0Ev, .-_ZN5boost16exception_detail19error_info_injectorINS_25promise_already_satisfiedEED0Ev
	.section	.text._ZN5boost16exception_detail10clone_implINS0_19error_info_injectorINS_25promise_already_satisfiedEEEED1Ev,"axG",@progbits,_ZN5boost16exception_detail10clone_implINS0_19error_info_injectorINS_25promise_already_satisfiedEEEED1Ev,comdat
	.align 2
	.p2align 4,,15
	.weak	_ZN5boost16exception_detail10clone_implINS0_19error_info_injectorINS_25promise_already_satisfiedEEEED1Ev
	.type	_ZN5boost16exception_detail10clone_implINS0_19error_info_injectorINS_25promise_already_satisfiedEEEED1Ev, @function
_ZN5boost16exception_detail10clone_implINS0_19error_info_injectorINS_25promise_already_satisfiedEEEED1Ev:
.LFB12256:
	.cfi_startproc
	movq	$_ZTVN5boost16exception_detail10clone_implINS0_19error_info_injectorINS_25promise_already_satisfiedEEEEE+24, (%rdi)
	movq	$_ZTVN5boost16exception_detail10clone_implINS0_19error_info_injectorINS_25promise_already_satisfiedEEEEE+80, 32(%rdi)
	movq	$_ZTVN5boost16exception_detail10clone_implINS0_19error_info_injectorINS_25promise_already_satisfiedEEEEE+136, 72(%rdi)
	jmp	_ZN5boost16exception_detail19error_info_injectorINS_25promise_already_satisfiedEED2Ev
	.cfi_endproc
.LFE12256:
	.size	_ZN5boost16exception_detail10clone_implINS0_19error_info_injectorINS_25promise_already_satisfiedEEEED1Ev, .-_ZN5boost16exception_detail10clone_implINS0_19error_info_injectorINS_25promise_already_satisfiedEEEED1Ev
	.section	.text._ZN5boost16exception_detail10clone_implINS0_19error_info_injectorINS_25promise_already_satisfiedEEEED0Ev,"axG",@progbits,_ZN5boost16exception_detail10clone_implINS0_19error_info_injectorINS_25promise_already_satisfiedEEEED0Ev,comdat
	.align 2
	.p2align 4,,15
	.weak	_ZN5boost16exception_detail10clone_implINS0_19error_info_injectorINS_25promise_already_satisfiedEEEED0Ev
	.type	_ZN5boost16exception_detail10clone_implINS0_19error_info_injectorINS_25promise_already_satisfiedEEEED0Ev, @function
_ZN5boost16exception_detail10clone_implINS0_19error_info_injectorINS_25promise_already_satisfiedEEEED0Ev:
.LFB12257:
	.cfi_startproc
	pushq	%rbx
	.cfi_def_cfa_offset 16
	.cfi_offset 3, -16
	movq	%rdi, %rbx
	movq	$_ZTVN5boost16exception_detail10clone_implINS0_19error_info_injectorINS_25promise_already_satisfiedEEEEE+24, (%rdi)
	movq	$_ZTVN5boost16exception_detail10clone_implINS0_19error_info_injectorINS_25promise_already_satisfiedEEEEE+80, 32(%rdi)
	movq	$_ZTVN5boost16exception_detail10clone_implINS0_19error_info_injectorINS_25promise_already_satisfiedEEEEE+136, 72(%rdi)
	call	_ZN5boost16exception_detail19error_info_injectorINS_25promise_already_satisfiedEED2Ev
	movq	%rbx, %rdi
	movl	$80, %esi
	popq	%rbx
	.cfi_def_cfa_offset 8
	jmp	_ZdlPvm
	.cfi_endproc
.LFE12257:
	.size	_ZN5boost16exception_detail10clone_implINS0_19error_info_injectorINS_25promise_already_satisfiedEEEED0Ev, .-_ZN5boost16exception_detail10clone_implINS0_19error_info_injectorINS_25promise_already_satisfiedEEEED0Ev
	.section	.text._ZNK5boost16exception_detail10clone_implINS_14broken_promiseEE7rethrowEv,"axG",@progbits,_ZNK5boost16exception_detail10clone_implINS_14broken_promiseEE7rethrowEv,comdat
	.align 2
	.p2align 4,,15
	.weak	_ZNK5boost16exception_detail10clone_implINS_14broken_promiseEE7rethrowEv
	.type	_ZNK5boost16exception_detail10clone_implINS_14broken_promiseEE7rethrowEv, @function
_ZNK5boost16exception_detail10clone_implINS_14broken_promiseEE7rethrowEv:
.LFB14512:
	.cfi_startproc
	pushq	%rbp
	.cfi_def_cfa_offset 16
	.cfi_offset 6, -16
	pushq	%rbx
	.cfi_def_cfa_offset 24
	.cfi_offset 3, -24
	movq	%rdi, %rbp
	movl	$40, %edi
	subq	$8, %rsp
	.cfi_def_cfa_offset 32
	call	__cxa_allocate_exception
	movq	%rbp, %rsi
	movq	%rax, %rdi
	movq	$_ZTVN5boost16exception_detail10clone_baseE+16, 32(%rax)
	movq	%rax, %rbx
	call	_ZNSt11logic_errorC2ERKS_
	movdqu	16(%rbp), %xmm0
	movl	$_ZN5boost16exception_detail10clone_implINS_14broken_promiseEED1Ev, %edx
	movl	$_ZTIN5boost16exception_detail10clone_implINS_14broken_promiseEEE, %esi
	movq	%rbx, %rdi
	movq	$_ZTVN5boost16exception_detail10clone_implINS_14broken_promiseEEE+24, (%rbx)
	movups	%xmm0, 16(%rbx)
	movq	$_ZTVN5boost16exception_detail10clone_implINS_14broken_promiseEEE+104, 32(%rbx)
	call	__cxa_throw
	.cfi_endproc
.LFE14512:
	.size	_ZNK5boost16exception_detail10clone_implINS_14broken_promiseEE7rethrowEv, .-_ZNK5boost16exception_detail10clone_implINS_14broken_promiseEE7rethrowEv
	.section	.text._ZNK5boost16exception_detail10clone_implINS_14broken_promiseEE5cloneEv,"axG",@progbits,_ZNK5boost16exception_detail10clone_implINS_14broken_promiseEE5cloneEv,comdat
	.align 2
	.p2align 4,,15
	.weak	_ZNK5boost16exception_detail10clone_implINS_14broken_promiseEE5cloneEv
	.type	_ZNK5boost16exception_detail10clone_implINS_14broken_promiseEE5cloneEv, @function
_ZNK5boost16exception_detail10clone_implINS_14broken_promiseEE5cloneEv:
.LFB14511:
	.cfi_startproc
	pushq	%rbp
	.cfi_def_cfa_offset 16
	.cfi_offset 6, -16
	pushq	%rbx
	.cfi_def_cfa_offset 24
	.cfi_offset 3, -24
	movq	%rdi, %rbp
	movl	$40, %edi
	subq	$8, %rsp
	.cfi_def_cfa_offset 32
	call	_Znwm
	movq	%rbp, %rsi
	movq	$_ZTVN5boost16exception_detail10clone_baseE+16, 32(%rax)
	movq	%rax, %rdi
	movq	%rax, %rbx
	call	_ZNSt11logic_errorC2ERKS_
	movdqu	16(%rbp), %xmm0
	leaq	32(%rbx), %rax
	movq	$_ZTVN5boost16exception_detail10clone_implINS_14broken_promiseEEE+24, (%rbx)
	movq	$_ZTVN5boost16exception_detail10clone_implINS_14broken_promiseEEE+104, 32(%rbx)
	movups	%xmm0, 16(%rbx)
	addq	$8, %rsp
	.cfi_def_cfa_offset 24
	popq	%rbx
	.cfi_def_cfa_offset 16
	popq	%rbp
	.cfi_def_cfa_offset 8
	ret
	.cfi_endproc
.LFE14511:
	.size	_ZNK5boost16exception_detail10clone_implINS_14broken_promiseEE5cloneEv, .-_ZNK5boost16exception_detail10clone_implINS_14broken_promiseEE5cloneEv
	.section	.text._ZN5boost16exception_detail14bad_exception_D2Ev,"axG",@progbits,_ZN5boost16exception_detail14bad_exception_D5Ev,comdat
	.align 2
	.p2align 4,,15
	.weak	_ZN5boost16exception_detail14bad_exception_D2Ev
	.type	_ZN5boost16exception_detail14bad_exception_D2Ev, @function
_ZN5boost16exception_detail14bad_exception_D2Ev:
.LFB6972:
	.cfi_startproc
	.cfi_personality 0x3,__gxx_personality_v0
	.cfi_lsda 0x3,.LLSDA6972
	pushq	%rbx
	.cfi_def_cfa_offset 16
	.cfi_offset 3, -16
	movq	$_ZTVN5boost16exception_detail14bad_exception_E+16, (%rdi)
	movq	%rdi, %rbx
	movq	$_ZTVN5boost16exception_detail14bad_exception_E+48, 40(%rdi)
	addq	$40, %rdi
	call	_ZNSt13bad_exceptionD2Ev
	movq	8(%rbx), %rdi
	movq	$_ZTVN5boost9exceptionE+16, (%rbx)
	testq	%rdi, %rdi
	je	.L250
	movq	(%rdi), %rax
	popq	%rbx
	.cfi_remember_state
	.cfi_def_cfa_offset 8
	movq	32(%rax), %rax
	jmp	*%rax
	.p2align 4,,10
	.p2align 3
.L250:
	.cfi_restore_state
	popq	%rbx
	.cfi_def_cfa_offset 8
	ret
	.cfi_endproc
.LFE6972:
	.section	.gcc_except_table._ZN5boost16exception_detail14bad_exception_D2Ev,"aG",@progbits,_ZN5boost16exception_detail14bad_exception_D5Ev,comdat
.LLSDA6972:
	.byte	0xff
	.byte	0xff
	.byte	0x1
	.uleb128 .LLSDACSE6972-.LLSDACSB6972
.LLSDACSB6972:
.LLSDACSE6972:
	.section	.text._ZN5boost16exception_detail14bad_exception_D2Ev,"axG",@progbits,_ZN5boost16exception_detail14bad_exception_D5Ev,comdat
	.size	_ZN5boost16exception_detail14bad_exception_D2Ev, .-_ZN5boost16exception_detail14bad_exception_D2Ev
	.set	.LTHUNK2,_ZN5boost16exception_detail14bad_exception_D2Ev
	.p2align 4,,15
	.weak	_ZThn40_N5boost16exception_detail14bad_exception_D1Ev
	.type	_ZThn40_N5boost16exception_detail14bad_exception_D1Ev, @function
_ZThn40_N5boost16exception_detail14bad_exception_D1Ev:
.LFB15780:
	.cfi_startproc
	subq	$40, %rdi
	jmp	.LTHUNK2
	.cfi_endproc
.LFE15780:
	.size	_ZThn40_N5boost16exception_detail14bad_exception_D1Ev, .-_ZThn40_N5boost16exception_detail14bad_exception_D1Ev
	.weak	_ZN5boost16exception_detail14bad_exception_D1Ev
	.set	_ZN5boost16exception_detail14bad_exception_D1Ev,_ZN5boost16exception_detail14bad_exception_D2Ev
	.section	.text._ZN5boost16exception_detail14bad_exception_D0Ev,"axG",@progbits,_ZN5boost16exception_detail14bad_exception_D5Ev,comdat
	.align 2
	.p2align 4,,15
	.weak	_ZN5boost16exception_detail14bad_exception_D0Ev
	.type	_ZN5boost16exception_detail14bad_exception_D0Ev, @function
_ZN5boost16exception_detail14bad_exception_D0Ev:
.LFB6974:
	.cfi_startproc
	pushq	%rbx
	.cfi_def_cfa_offset 16
	.cfi_offset 3, -16
	movq	%rdi, %rbx
	call	_ZN5boost16exception_detail14bad_exception_D1Ev
	movq	%rbx, %rdi
	movl	$48, %esi
	popq	%rbx
	.cfi_def_cfa_offset 8
	jmp	_ZdlPvm
	.cfi_endproc
.LFE6974:
	.size	_ZN5boost16exception_detail14bad_exception_D0Ev, .-_ZN5boost16exception_detail14bad_exception_D0Ev
	.section	.text._ZN5boost16exception_detail10clone_implINS0_14bad_exception_EED1Ev,"axG",@progbits,_ZN5boost16exception_detail10clone_implINS0_14bad_exception_EED1Ev,comdat
	.align 2
	.p2align 4,,15
	.weak	_ZN5boost16exception_detail10clone_implINS0_14bad_exception_EED1Ev
	.type	_ZN5boost16exception_detail10clone_implINS0_14bad_exception_EED1Ev, @function
_ZN5boost16exception_detail10clone_implINS0_14bad_exception_EED1Ev:
.LFB11942:
	.cfi_startproc
	movq	$_ZTVN5boost16exception_detail10clone_implINS0_14bad_exception_EEE+24, (%rdi)
	movq	$_ZTVN5boost16exception_detail10clone_implINS0_14bad_exception_EEE+72, 40(%rdi)
	movq	$_ZTVN5boost16exception_detail10clone_implINS0_14bad_exception_EEE+136, 48(%rdi)
	jmp	_ZN5boost16exception_detail14bad_exception_D2Ev
	.cfi_endproc
.LFE11942:
	.size	_ZN5boost16exception_detail10clone_implINS0_14bad_exception_EED1Ev, .-_ZN5boost16exception_detail10clone_implINS0_14bad_exception_EED1Ev
	.section	.text._ZN5boost16exception_detail10clone_implINS0_14bad_exception_EED0Ev,"axG",@progbits,_ZN5boost16exception_detail10clone_implINS0_14bad_exception_EED0Ev,comdat
	.align 2
	.p2align 4,,15
	.weak	_ZN5boost16exception_detail10clone_implINS0_14bad_exception_EED0Ev
	.type	_ZN5boost16exception_detail10clone_implINS0_14bad_exception_EED0Ev, @function
_ZN5boost16exception_detail10clone_implINS0_14bad_exception_EED0Ev:
.LFB11943:
	.cfi_startproc
	pushq	%rbx
	.cfi_def_cfa_offset 16
	.cfi_offset 3, -16
	movq	%rdi, %rbx
	movq	$_ZTVN5boost16exception_detail10clone_implINS0_14bad_exception_EEE+24, (%rdi)
	movq	$_ZTVN5boost16exception_detail10clone_implINS0_14bad_exception_EEE+72, 40(%rdi)
	movq	$_ZTVN5boost16exception_detail10clone_implINS0_14bad_exception_EEE+136, 48(%rdi)
	call	_ZN5boost16exception_detail14bad_exception_D2Ev
	movq	%rbx, %rdi
	movl	$56, %esi
	popq	%rbx
	.cfi_def_cfa_offset 8
	jmp	_ZdlPvm
	.cfi_endproc
.LFE11943:
	.size	_ZN5boost16exception_detail10clone_implINS0_14bad_exception_EED0Ev, .-_ZN5boost16exception_detail10clone_implINS0_14bad_exception_EED0Ev
	.section	.text._ZN5boost16exception_detail39current_exception_std_exception_wrapperISt13bad_exceptionED2Ev,"axG",@progbits,_ZN5boost16exception_detail39current_exception_std_exception_wrapperISt13bad_exceptionED5Ev,comdat
	.align 2
	.p2align 4,,15
	.weak	_ZN5boost16exception_detail39current_exception_std_exception_wrapperISt13bad_exceptionED2Ev
	.type	_ZN5boost16exception_detail39current_exception_std_exception_wrapperISt13bad_exceptionED2Ev, @function
_ZN5boost16exception_detail39current_exception_std_exception_wrapperISt13bad_exceptionED2Ev:
.LFB12144:
	.cfi_startproc
	.cfi_personality 0x3,__gxx_personality_v0
	.cfi_lsda 0x3,.LLSDA12144
	pushq	%rbx
	.cfi_def_cfa_offset 16
	.cfi_offset 3, -16
	movq	%rdi, %rbx
	movq	$_ZTVN5boost16exception_detail39current_exception_std_exception_wrapperISt13bad_exceptionEE+16, (%rdi)
	movq	$_ZTVN5boost9exceptionE+16, 8(%rdi)
	movq	16(%rdi), %rdi
	testq	%rdi, %rdi
	je	.L259
	movq	(%rdi), %rax
	call	*32(%rax)
.L259:
	movq	%rbx, %rdi
	popq	%rbx
	.cfi_def_cfa_offset 8
	jmp	_ZNSt13bad_exceptionD2Ev
	.cfi_endproc
.LFE12144:
	.section	.gcc_except_table._ZN5boost16exception_detail39current_exception_std_exception_wrapperISt13bad_exceptionED2Ev,"aG",@progbits,_ZN5boost16exception_detail39current_exception_std_exception_wrapperISt13bad_exceptionED5Ev,comdat
.LLSDA12144:
	.byte	0xff
	.byte	0xff
	.byte	0x1
	.uleb128 .LLSDACSE12144-.LLSDACSB12144
.LLSDACSB12144:
.LLSDACSE12144:
	.section	.text._ZN5boost16exception_detail39current_exception_std_exception_wrapperISt13bad_exceptionED2Ev,"axG",@progbits,_ZN5boost16exception_detail39current_exception_std_exception_wrapperISt13bad_exceptionED5Ev,comdat
	.size	_ZN5boost16exception_detail39current_exception_std_exception_wrapperISt13bad_exceptionED2Ev, .-_ZN5boost16exception_detail39current_exception_std_exception_wrapperISt13bad_exceptionED2Ev
	.weak	_ZN5boost16exception_detail39current_exception_std_exception_wrapperISt13bad_exceptionED1Ev
	.set	_ZN5boost16exception_detail39current_exception_std_exception_wrapperISt13bad_exceptionED1Ev,_ZN5boost16exception_detail39current_exception_std_exception_wrapperISt13bad_exceptionED2Ev
	.set	.LTHUNK86,_ZN5boost16exception_detail39current_exception_std_exception_wrapperISt13bad_exceptionED1Ev
	.p2align 4,,15
	.weak	_ZThn8_N5boost16exception_detail39current_exception_std_exception_wrapperISt13bad_exceptionED1Ev
	.type	_ZThn8_N5boost16exception_detail39current_exception_std_exception_wrapperISt13bad_exceptionED1Ev, @function
_ZThn8_N5boost16exception_detail39current_exception_std_exception_wrapperISt13bad_exceptionED1Ev:
.LFB15784:
	.cfi_startproc
	subq	$8, %rdi
	jmp	.LTHUNK86
	.cfi_endproc
.LFE15784:
	.size	_ZThn8_N5boost16exception_detail39current_exception_std_exception_wrapperISt13bad_exceptionED1Ev, .-_ZThn8_N5boost16exception_detail39current_exception_std_exception_wrapperISt13bad_exceptionED1Ev
	.section	.text._ZN5boost16exception_detail39current_exception_std_exception_wrapperISt13bad_exceptionED0Ev,"axG",@progbits,_ZN5boost16exception_detail39current_exception_std_exception_wrapperISt13bad_exceptionED5Ev,comdat
	.align 2
	.p2align 4,,15
	.weak	_ZN5boost16exception_detail39current_exception_std_exception_wrapperISt13bad_exceptionED0Ev
	.type	_ZN5boost16exception_detail39current_exception_std_exception_wrapperISt13bad_exceptionED0Ev, @function
_ZN5boost16exception_detail39current_exception_std_exception_wrapperISt13bad_exceptionED0Ev:
.LFB12146:
	.cfi_startproc
	pushq	%rbx
	.cfi_def_cfa_offset 16
	.cfi_offset 3, -16
	movq	%rdi, %rbx
	call	_ZN5boost16exception_detail39current_exception_std_exception_wrapperISt13bad_exceptionED1Ev
	movq	%rbx, %rdi
	movl	$48, %esi
	popq	%rbx
	.cfi_def_cfa_offset 8
	jmp	_ZdlPvm
	.cfi_endproc
.LFE12146:
	.size	_ZN5boost16exception_detail39current_exception_std_exception_wrapperISt13bad_exceptionED0Ev, .-_ZN5boost16exception_detail39current_exception_std_exception_wrapperISt13bad_exceptionED0Ev
	.section	.text._ZN5boost16exception_detail10clone_implINS0_39current_exception_std_exception_wrapperISt13bad_exceptionEEED1Ev,"axG",@progbits,_ZN5boost16exception_detail10clone_implINS0_39current_exception_std_exception_wrapperISt13bad_exceptionEEED1Ev,comdat
	.align 2
	.p2align 4,,15
	.weak	_ZN5boost16exception_detail10clone_implINS0_39current_exception_std_exception_wrapperISt13bad_exceptionEEED1Ev
	.type	_ZN5boost16exception_detail10clone_implINS0_39current_exception_std_exception_wrapperISt13bad_exceptionEEED1Ev, @function
_ZN5boost16exception_detail10clone_implINS0_39current_exception_std_exception_wrapperISt13bad_exceptionEEED1Ev:
.LFB12793:
	.cfi_startproc
	movq	$_ZTVN5boost16exception_detail10clone_implINS0_39current_exception_std_exception_wrapperISt13bad_exceptionEEEE+24, (%rdi)
	movq	$_ZTVN5boost16exception_detail10clone_implINS0_39current_exception_std_exception_wrapperISt13bad_exceptionEEEE+80, 8(%rdi)
	movq	$_ZTVN5boost16exception_detail10clone_implINS0_39current_exception_std_exception_wrapperISt13bad_exceptionEEEE+136, 48(%rdi)
	jmp	_ZN5boost16exception_detail39current_exception_std_exception_wrapperISt13bad_exceptionED2Ev
	.cfi_endproc
.LFE12793:
	.size	_ZN5boost16exception_detail10clone_implINS0_39current_exception_std_exception_wrapperISt13bad_exceptionEEED1Ev, .-_ZN5boost16exception_detail10clone_implINS0_39current_exception_std_exception_wrapperISt13bad_exceptionEEED1Ev
	.section	.text._ZN5boost16exception_detail10clone_implINS0_39current_exception_std_exception_wrapperISt13bad_exceptionEEED0Ev,"axG",@progbits,_ZN5boost16exception_detail10clone_implINS0_39current_exception_std_exception_wrapperISt13bad_exceptionEEED0Ev,comdat
	.align 2
	.p2align 4,,15
	.weak	_ZN5boost16exception_detail10clone_implINS0_39current_exception_std_exception_wrapperISt13bad_exceptionEEED0Ev
	.type	_ZN5boost16exception_detail10clone_implINS0_39current_exception_std_exception_wrapperISt13bad_exceptionEEED0Ev, @function
_ZN5boost16exception_detail10clone_implINS0_39current_exception_std_exception_wrapperISt13bad_exceptionEEED0Ev:
.LFB12794:
	.cfi_startproc
	pushq	%rbx
	.cfi_def_cfa_offset 16
	.cfi_offset 3, -16
	movq	%rdi, %rbx
	movq	$_ZTVN5boost16exception_detail10clone_implINS0_39current_exception_std_exception_wrapperISt13bad_exceptionEEEE+24, (%rdi)
	movq	$_ZTVN5boost16exception_detail10clone_implINS0_39current_exception_std_exception_wrapperISt13bad_exceptionEEEE+80, 8(%rdi)
	movq	$_ZTVN5boost16exception_detail10clone_implINS0_39current_exception_std_exception_wrapperISt13bad_exceptionEEEE+136, 48(%rdi)
	call	_ZN5boost16exception_detail39current_exception_std_exception_wrapperISt13bad_exceptionED2Ev
	movq	%rbx, %rdi
	movl	$56, %esi
	popq	%rbx
	.cfi_def_cfa_offset 8
	jmp	_ZdlPvm
	.cfi_endproc
.LFE12794:
	.size	_ZN5boost16exception_detail10clone_implINS0_39current_exception_std_exception_wrapperISt13bad_exceptionEEED0Ev, .-_ZN5boost16exception_detail10clone_implINS0_39current_exception_std_exception_wrapperISt13bad_exceptionEEED0Ev
	.section	.text._ZN5boost16exception_detail10bad_alloc_D2Ev,"axG",@progbits,_ZN5boost16exception_detail10bad_alloc_D5Ev,comdat
	.align 2
	.p2align 4,,15
	.weak	_ZN5boost16exception_detail10bad_alloc_D2Ev
	.type	_ZN5boost16exception_detail10bad_alloc_D2Ev, @function
_ZN5boost16exception_detail10bad_alloc_D2Ev:
.LFB6968:
	.cfi_startproc
	.cfi_personality 0x3,__gxx_personality_v0
	.cfi_lsda 0x3,.LLSDA6968
	pushq	%rbx
	.cfi_def_cfa_offset 16
	.cfi_offset 3, -16
	movq	$_ZTVN5boost16exception_detail10bad_alloc_E+16, (%rdi)
	movq	%rdi, %rbx
	movq	$_ZTVN5boost16exception_detail10bad_alloc_E+48, 40(%rdi)
	addq	$40, %rdi
	call	_ZNSt9bad_allocD2Ev
	movq	8(%rbx), %rdi
	movq	$_ZTVN5boost9exceptionE+16, (%rbx)
	testq	%rdi, %rdi
	je	.L269
	movq	(%rdi), %rax
	popq	%rbx
	.cfi_remember_state
	.cfi_def_cfa_offset 8
	movq	32(%rax), %rax
	jmp	*%rax
	.p2align 4,,10
	.p2align 3
.L269:
	.cfi_restore_state
	popq	%rbx
	.cfi_def_cfa_offset 8
	ret
	.cfi_endproc
.LFE6968:
	.section	.gcc_except_table._ZN5boost16exception_detail10bad_alloc_D2Ev,"aG",@progbits,_ZN5boost16exception_detail10bad_alloc_D5Ev,comdat
.LLSDA6968:
	.byte	0xff
	.byte	0xff
	.byte	0x1
	.uleb128 .LLSDACSE6968-.LLSDACSB6968
.LLSDACSB6968:
.LLSDACSE6968:
	.section	.text._ZN5boost16exception_detail10bad_alloc_D2Ev,"axG",@progbits,_ZN5boost16exception_detail10bad_alloc_D5Ev,comdat
	.size	_ZN5boost16exception_detail10bad_alloc_D2Ev, .-_ZN5boost16exception_detail10bad_alloc_D2Ev
	.set	.LTHUNK0,_ZN5boost16exception_detail10bad_alloc_D2Ev
	.p2align 4,,15
	.weak	_ZThn40_N5boost16exception_detail10bad_alloc_D1Ev
	.type	_ZThn40_N5boost16exception_detail10bad_alloc_D1Ev, @function
_ZThn40_N5boost16exception_detail10bad_alloc_D1Ev:
.LFB15788:
	.cfi_startproc
	subq	$40, %rdi
	jmp	.LTHUNK0
	.cfi_endproc
.LFE15788:
	.size	_ZThn40_N5boost16exception_detail10bad_alloc_D1Ev, .-_ZThn40_N5boost16exception_detail10bad_alloc_D1Ev
	.weak	_ZN5boost16exception_detail10bad_alloc_D1Ev
	.set	_ZN5boost16exception_detail10bad_alloc_D1Ev,_ZN5boost16exception_detail10bad_alloc_D2Ev
	.section	.text._ZN5boost16exception_detail10bad_alloc_D0Ev,"axG",@progbits,_ZN5boost16exception_detail10bad_alloc_D5Ev,comdat
	.align 2
	.p2align 4,,15
	.weak	_ZN5boost16exception_detail10bad_alloc_D0Ev
	.type	_ZN5boost16exception_detail10bad_alloc_D0Ev, @function
_ZN5boost16exception_detail10bad_alloc_D0Ev:
.LFB6970:
	.cfi_startproc
	pushq	%rbx
	.cfi_def_cfa_offset 16
	.cfi_offset 3, -16
	movq	%rdi, %rbx
	call	_ZN5boost16exception_detail10bad_alloc_D1Ev
	movq	%rbx, %rdi
	movl	$48, %esi
	popq	%rbx
	.cfi_def_cfa_offset 8
	jmp	_ZdlPvm
	.cfi_endproc
.LFE6970:
	.size	_ZN5boost16exception_detail10bad_alloc_D0Ev, .-_ZN5boost16exception_detail10bad_alloc_D0Ev
	.section	.text._ZN5boost16exception_detail10clone_implINS0_10bad_alloc_EED1Ev,"axG",@progbits,_ZN5boost16exception_detail10clone_implINS0_10bad_alloc_EED1Ev,comdat
	.align 2
	.p2align 4,,15
	.weak	_ZN5boost16exception_detail10clone_implINS0_10bad_alloc_EED1Ev
	.type	_ZN5boost16exception_detail10clone_implINS0_10bad_alloc_EED1Ev, @function
_ZN5boost16exception_detail10clone_implINS0_10bad_alloc_EED1Ev:
.LFB11926:
	.cfi_startproc
	movq	$_ZTVN5boost16exception_detail10clone_implINS0_10bad_alloc_EEE+24, (%rdi)
	movq	$_ZTVN5boost16exception_detail10clone_implINS0_10bad_alloc_EEE+72, 40(%rdi)
	movq	$_ZTVN5boost16exception_detail10clone_implINS0_10bad_alloc_EEE+136, 48(%rdi)
	jmp	_ZN5boost16exception_detail10bad_alloc_D2Ev
	.cfi_endproc
.LFE11926:
	.size	_ZN5boost16exception_detail10clone_implINS0_10bad_alloc_EED1Ev, .-_ZN5boost16exception_detail10clone_implINS0_10bad_alloc_EED1Ev
	.section	.text._ZN5boost16exception_detail10clone_implINS0_10bad_alloc_EED0Ev,"axG",@progbits,_ZN5boost16exception_detail10clone_implINS0_10bad_alloc_EED0Ev,comdat
	.align 2
	.p2align 4,,15
	.weak	_ZN5boost16exception_detail10clone_implINS0_10bad_alloc_EED0Ev
	.type	_ZN5boost16exception_detail10clone_implINS0_10bad_alloc_EED0Ev, @function
_ZN5boost16exception_detail10clone_implINS0_10bad_alloc_EED0Ev:
.LFB11927:
	.cfi_startproc
	pushq	%rbx
	.cfi_def_cfa_offset 16
	.cfi_offset 3, -16
	movq	%rdi, %rbx
	movq	$_ZTVN5boost16exception_detail10clone_implINS0_10bad_alloc_EEE+24, (%rdi)
	movq	$_ZTVN5boost16exception_detail10clone_implINS0_10bad_alloc_EEE+72, 40(%rdi)
	movq	$_ZTVN5boost16exception_detail10clone_implINS0_10bad_alloc_EEE+136, 48(%rdi)
	call	_ZN5boost16exception_detail10bad_alloc_D2Ev
	movq	%rbx, %rdi
	movl	$56, %esi
	popq	%rbx
	.cfi_def_cfa_offset 8
	jmp	_ZdlPvm
	.cfi_endproc
.LFE11927:
	.size	_ZN5boost16exception_detail10clone_implINS0_10bad_alloc_EED0Ev, .-_ZN5boost16exception_detail10clone_implINS0_10bad_alloc_EED0Ev
	.section	.text._ZN5boost16exception_detail39current_exception_std_exception_wrapperISt9bad_allocED2Ev,"axG",@progbits,_ZN5boost16exception_detail39current_exception_std_exception_wrapperISt9bad_allocED5Ev,comdat
	.align 2
	.p2align 4,,15
	.weak	_ZN5boost16exception_detail39current_exception_std_exception_wrapperISt9bad_allocED2Ev
	.type	_ZN5boost16exception_detail39current_exception_std_exception_wrapperISt9bad_allocED2Ev, @function
_ZN5boost16exception_detail39current_exception_std_exception_wrapperISt9bad_allocED2Ev:
.LFB12102:
	.cfi_startproc
	.cfi_personality 0x3,__gxx_personality_v0
	.cfi_lsda 0x3,.LLSDA12102
	pushq	%rbx
	.cfi_def_cfa_offset 16
	.cfi_offset 3, -16
	movq	%rdi, %rbx
	movq	$_ZTVN5boost16exception_detail39current_exception_std_exception_wrapperISt9bad_allocEE+16, (%rdi)
	movq	$_ZTVN5boost9exceptionE+16, 8(%rdi)
	movq	16(%rdi), %rdi
	testq	%rdi, %rdi
	je	.L278
	movq	(%rdi), %rax
	call	*32(%rax)
.L278:
	movq	%rbx, %rdi
	popq	%rbx
	.cfi_def_cfa_offset 8
	jmp	_ZNSt9bad_allocD2Ev
	.cfi_endproc
.LFE12102:
	.section	.gcc_except_table._ZN5boost16exception_detail39current_exception_std_exception_wrapperISt9bad_allocED2Ev,"aG",@progbits,_ZN5boost16exception_detail39current_exception_std_exception_wrapperISt9bad_allocED5Ev,comdat
.LLSDA12102:
	.byte	0xff
	.byte	0xff
	.byte	0x1
	.uleb128 .LLSDACSE12102-.LLSDACSB12102
.LLSDACSB12102:
.LLSDACSE12102:
	.section	.text._ZN5boost16exception_detail39current_exception_std_exception_wrapperISt9bad_allocED2Ev,"axG",@progbits,_ZN5boost16exception_detail39current_exception_std_exception_wrapperISt9bad_allocED5Ev,comdat
	.size	_ZN5boost16exception_detail39current_exception_std_exception_wrapperISt9bad_allocED2Ev, .-_ZN5boost16exception_detail39current_exception_std_exception_wrapperISt9bad_allocED2Ev
	.weak	_ZN5boost16exception_detail39current_exception_std_exception_wrapperISt9bad_allocED1Ev
	.set	_ZN5boost16exception_detail39current_exception_std_exception_wrapperISt9bad_allocED1Ev,_ZN5boost16exception_detail39current_exception_std_exception_wrapperISt9bad_allocED2Ev
	.set	.LTHUNK80,_ZN5boost16exception_detail39current_exception_std_exception_wrapperISt9bad_allocED1Ev
	.p2align 4,,15
	.weak	_ZThn8_N5boost16exception_detail39current_exception_std_exception_wrapperISt9bad_allocED1Ev
	.type	_ZThn8_N5boost16exception_detail39current_exception_std_exception_wrapperISt9bad_allocED1Ev, @function
_ZThn8_N5boost16exception_detail39current_exception_std_exception_wrapperISt9bad_allocED1Ev:
.LFB15792:
	.cfi_startproc
	subq	$8, %rdi
	jmp	.LTHUNK80
	.cfi_endproc
.LFE15792:
	.size	_ZThn8_N5boost16exception_detail39current_exception_std_exception_wrapperISt9bad_allocED1Ev, .-_ZThn8_N5boost16exception_detail39current_exception_std_exception_wrapperISt9bad_allocED1Ev
	.section	.text._ZN5boost16exception_detail39current_exception_std_exception_wrapperISt9bad_allocED0Ev,"axG",@progbits,_ZN5boost16exception_detail39current_exception_std_exception_wrapperISt9bad_allocED5Ev,comdat
	.align 2
	.p2align 4,,15
	.weak	_ZN5boost16exception_detail39current_exception_std_exception_wrapperISt9bad_allocED0Ev
	.type	_ZN5boost16exception_detail39current_exception_std_exception_wrapperISt9bad_allocED0Ev, @function
_ZN5boost16exception_detail39current_exception_std_exception_wrapperISt9bad_allocED0Ev:
.LFB12104:
	.cfi_startproc
	pushq	%rbx
	.cfi_def_cfa_offset 16
	.cfi_offset 3, -16
	movq	%rdi, %rbx
	call	_ZN5boost16exception_detail39current_exception_std_exception_wrapperISt9bad_allocED1Ev
	movq	%rbx, %rdi
	movl	$48, %esi
	popq	%rbx
	.cfi_def_cfa_offset 8
	jmp	_ZdlPvm
	.cfi_endproc
.LFE12104:
	.size	_ZN5boost16exception_detail39current_exception_std_exception_wrapperISt9bad_allocED0Ev, .-_ZN5boost16exception_detail39current_exception_std_exception_wrapperISt9bad_allocED0Ev
	.section	.text._ZN5boost16exception_detail10clone_implINS0_39current_exception_std_exception_wrapperISt9bad_allocEEED1Ev,"axG",@progbits,_ZN5boost16exception_detail10clone_implINS0_39current_exception_std_exception_wrapperISt9bad_allocEEED1Ev,comdat
	.align 2
	.p2align 4,,15
	.weak	_ZN5boost16exception_detail10clone_implINS0_39current_exception_std_exception_wrapperISt9bad_allocEEED1Ev
	.type	_ZN5boost16exception_detail10clone_implINS0_39current_exception_std_exception_wrapperISt9bad_allocEEED1Ev, @function
_ZN5boost16exception_detail10clone_implINS0_39current_exception_std_exception_wrapperISt9bad_allocEEED1Ev:
.LFB12775:
	.cfi_startproc
	movq	$_ZTVN5boost16exception_detail10clone_implINS0_39current_exception_std_exception_wrapperISt9bad_allocEEEE+24, (%rdi)
	movq	$_ZTVN5boost16exception_detail10clone_implINS0_39current_exception_std_exception_wrapperISt9bad_allocEEEE+80, 8(%rdi)
	movq	$_ZTVN5boost16exception_detail10clone_implINS0_39current_exception_std_exception_wrapperISt9bad_allocEEEE+136, 48(%rdi)
	jmp	_ZN5boost16exception_detail39current_exception_std_exception_wrapperISt9bad_allocED2Ev
	.cfi_endproc
.LFE12775:
	.size	_ZN5boost16exception_detail10clone_implINS0_39current_exception_std_exception_wrapperISt9bad_allocEEED1Ev, .-_ZN5boost16exception_detail10clone_implINS0_39current_exception_std_exception_wrapperISt9bad_allocEEED1Ev
	.section	.text._ZN5boost16exception_detail10clone_implINS0_39current_exception_std_exception_wrapperISt9bad_allocEEED0Ev,"axG",@progbits,_ZN5boost16exception_detail10clone_implINS0_39current_exception_std_exception_wrapperISt9bad_allocEEED0Ev,comdat
	.align 2
	.p2align 4,,15
	.weak	_ZN5boost16exception_detail10clone_implINS0_39current_exception_std_exception_wrapperISt9bad_allocEEED0Ev
	.type	_ZN5boost16exception_detail10clone_implINS0_39current_exception_std_exception_wrapperISt9bad_allocEEED0Ev, @function
_ZN5boost16exception_detail10clone_implINS0_39current_exception_std_exception_wrapperISt9bad_allocEEED0Ev:
.LFB12776:
	.cfi_startproc
	pushq	%rbx
	.cfi_def_cfa_offset 16
	.cfi_offset 3, -16
	movq	%rdi, %rbx
	movq	$_ZTVN5boost16exception_detail10clone_implINS0_39current_exception_std_exception_wrapperISt9bad_allocEEEE+24, (%rdi)
	movq	$_ZTVN5boost16exception_detail10clone_implINS0_39current_exception_std_exception_wrapperISt9bad_allocEEEE+80, 8(%rdi)
	movq	$_ZTVN5boost16exception_detail10clone_implINS0_39current_exception_std_exception_wrapperISt9bad_allocEEEE+136, 48(%rdi)
	call	_ZN5boost16exception_detail39current_exception_std_exception_wrapperISt9bad_allocED2Ev
	movq	%rbx, %rdi
	movl	$56, %esi
	popq	%rbx
	.cfi_def_cfa_offset 8
	jmp	_ZdlPvm
	.cfi_endproc
.LFE12776:
	.size	_ZN5boost16exception_detail10clone_implINS0_39current_exception_std_exception_wrapperISt9bad_allocEEED0Ev, .-_ZN5boost16exception_detail10clone_implINS0_39current_exception_std_exception_wrapperISt9bad_allocEEED0Ev
	.section	.text._ZN5boost16exception_detail39current_exception_std_exception_wrapperISt12out_of_rangeED2Ev,"axG",@progbits,_ZN5boost16exception_detail39current_exception_std_exception_wrapperISt12out_of_rangeED5Ev,comdat
	.align 2
	.p2align 4,,15
	.weak	_ZN5boost16exception_detail39current_exception_std_exception_wrapperISt12out_of_rangeED2Ev
	.type	_ZN5boost16exception_detail39current_exception_std_exception_wrapperISt12out_of_rangeED2Ev, @function
_ZN5boost16exception_detail39current_exception_std_exception_wrapperISt12out_of_rangeED2Ev:
.LFB12003:
	.cfi_startproc
	.cfi_personality 0x3,__gxx_personality_v0
	.cfi_lsda 0x3,.LLSDA12003
	pushq	%rbx
	.cfi_def_cfa_offset 16
	.cfi_offset 3, -16
	movq	%rdi, %rbx
	movq	$_ZTVN5boost16exception_detail39current_exception_std_exception_wrapperISt12out_of_rangeEE+16, (%rdi)
	movq	$_ZTVN5boost9exceptionE+16, 16(%rdi)
	movq	24(%rdi), %rdi
	testq	%rdi, %rdi
	je	.L289
	movq	(%rdi), %rax
	call	*32(%rax)
.L289:
	movq	%rbx, %rdi
	popq	%rbx
	.cfi_def_cfa_offset 8
	jmp	_ZNSt12out_of_rangeD2Ev
	.cfi_endproc
.LFE12003:
	.section	.gcc_except_table._ZN5boost16exception_detail39current_exception_std_exception_wrapperISt12out_of_rangeED2Ev,"aG",@progbits,_ZN5boost16exception_detail39current_exception_std_exception_wrapperISt12out_of_rangeED5Ev,comdat
.LLSDA12003:
	.byte	0xff
	.byte	0xff
	.byte	0x1
	.uleb128 .LLSDACSE12003-.LLSDACSB12003
.LLSDACSB12003:
.LLSDACSE12003:
	.section	.text._ZN5boost16exception_detail39current_exception_std_exception_wrapperISt12out_of_rangeED2Ev,"axG",@progbits,_ZN5boost16exception_detail39current_exception_std_exception_wrapperISt12out_of_rangeED5Ev,comdat
	.size	_ZN5boost16exception_detail39current_exception_std_exception_wrapperISt12out_of_rangeED2Ev, .-_ZN5boost16exception_detail39current_exception_std_exception_wrapperISt12out_of_rangeED2Ev
	.weak	_ZN5boost16exception_detail39current_exception_std_exception_wrapperISt12out_of_rangeED1Ev
	.set	_ZN5boost16exception_detail39current_exception_std_exception_wrapperISt12out_of_rangeED1Ev,_ZN5boost16exception_detail39current_exception_std_exception_wrapperISt12out_of_rangeED2Ev
	.set	.LTHUNK66,_ZN5boost16exception_detail39current_exception_std_exception_wrapperISt12out_of_rangeED1Ev
	.p2align 4,,15
	.weak	_ZThn16_N5boost16exception_detail39current_exception_std_exception_wrapperISt12out_of_rangeED1Ev
	.type	_ZThn16_N5boost16exception_detail39current_exception_std_exception_wrapperISt12out_of_rangeED1Ev, @function
_ZThn16_N5boost16exception_detail39current_exception_std_exception_wrapperISt12out_of_rangeED1Ev:
.LFB15796:
	.cfi_startproc
	subq	$16, %rdi
	jmp	.LTHUNK66
	.cfi_endproc
.LFE15796:
	.size	_ZThn16_N5boost16exception_detail39current_exception_std_exception_wrapperISt12out_of_rangeED1Ev, .-_ZThn16_N5boost16exception_detail39current_exception_std_exception_wrapperISt12out_of_rangeED1Ev
	.section	.text._ZN5boost16exception_detail39current_exception_std_exception_wrapperISt12out_of_rangeED0Ev,"axG",@progbits,_ZN5boost16exception_detail39current_exception_std_exception_wrapperISt12out_of_rangeED5Ev,comdat
	.align 2
	.p2align 4,,15
	.weak	_ZN5boost16exception_detail39current_exception_std_exception_wrapperISt12out_of_rangeED0Ev
	.type	_ZN5boost16exception_detail39current_exception_std_exception_wrapperISt12out_of_rangeED0Ev, @function
_ZN5boost16exception_detail39current_exception_std_exception_wrapperISt12out_of_rangeED0Ev:
.LFB12005:
	.cfi_startproc
	pushq	%rbx
	.cfi_def_cfa_offset 16
	.cfi_offset 3, -16
	movq	%rdi, %rbx
	call	_ZN5boost16exception_detail39current_exception_std_exception_wrapperISt12out_of_rangeED1Ev
	movq	%rbx, %rdi
	movl	$56, %esi
	popq	%rbx
	.cfi_def_cfa_offset 8
	jmp	_ZdlPvm
	.cfi_endproc
.LFE12005:
	.size	_ZN5boost16exception_detail39current_exception_std_exception_wrapperISt12out_of_rangeED0Ev, .-_ZN5boost16exception_detail39current_exception_std_exception_wrapperISt12out_of_rangeED0Ev
	.section	.text._ZN5boost16exception_detail10clone_implINS0_39current_exception_std_exception_wrapperISt12out_of_rangeEEED1Ev,"axG",@progbits,_ZN5boost16exception_detail10clone_implINS0_39current_exception_std_exception_wrapperISt12out_of_rangeEEED1Ev,comdat
	.align 2
	.p2align 4,,15
	.weak	_ZN5boost16exception_detail10clone_implINS0_39current_exception_std_exception_wrapperISt12out_of_rangeEEED1Ev
	.type	_ZN5boost16exception_detail10clone_implINS0_39current_exception_std_exception_wrapperISt12out_of_rangeEEED1Ev, @function
_ZN5boost16exception_detail10clone_implINS0_39current_exception_std_exception_wrapperISt12out_of_rangeEEED1Ev:
.LFB12733:
	.cfi_startproc
	movq	$_ZTVN5boost16exception_detail10clone_implINS0_39current_exception_std_exception_wrapperISt12out_of_rangeEEEE+24, (%rdi)
	movq	$_ZTVN5boost16exception_detail10clone_implINS0_39current_exception_std_exception_wrapperISt12out_of_rangeEEEE+80, 16(%rdi)
	movq	$_ZTVN5boost16exception_detail10clone_implINS0_39current_exception_std_exception_wrapperISt12out_of_rangeEEEE+136, 56(%rdi)
	jmp	_ZN5boost16exception_detail39current_exception_std_exception_wrapperISt12out_of_rangeED2Ev
	.cfi_endproc
.LFE12733:
	.size	_ZN5boost16exception_detail10clone_implINS0_39current_exception_std_exception_wrapperISt12out_of_rangeEEED1Ev, .-_ZN5boost16exception_detail10clone_implINS0_39current_exception_std_exception_wrapperISt12out_of_rangeEEED1Ev
	.section	.text._ZN5boost16exception_detail10clone_implINS0_39current_exception_std_exception_wrapperISt12out_of_rangeEEED0Ev,"axG",@progbits,_ZN5boost16exception_detail10clone_implINS0_39current_exception_std_exception_wrapperISt12out_of_rangeEEED0Ev,comdat
	.align 2
	.p2align 4,,15
	.weak	_ZN5boost16exception_detail10clone_implINS0_39current_exception_std_exception_wrapperISt12out_of_rangeEEED0Ev
	.type	_ZN5boost16exception_detail10clone_implINS0_39current_exception_std_exception_wrapperISt12out_of_rangeEEED0Ev, @function
_ZN5boost16exception_detail10clone_implINS0_39current_exception_std_exception_wrapperISt12out_of_rangeEEED0Ev:
.LFB12734:
	.cfi_startproc
	pushq	%rbx
	.cfi_def_cfa_offset 16
	.cfi_offset 3, -16
	movq	%rdi, %rbx
	movq	$_ZTVN5boost16exception_detail10clone_implINS0_39current_exception_std_exception_wrapperISt12out_of_rangeEEEE+24, (%rdi)
	movq	$_ZTVN5boost16exception_detail10clone_implINS0_39current_exception_std_exception_wrapperISt12out_of_rangeEEEE+80, 16(%rdi)
	movq	$_ZTVN5boost16exception_detail10clone_implINS0_39current_exception_std_exception_wrapperISt12out_of_rangeEEEE+136, 56(%rdi)
	call	_ZN5boost16exception_detail39current_exception_std_exception_wrapperISt12out_of_rangeED2Ev
	movq	%rbx, %rdi
	movl	$64, %esi
	popq	%rbx
	.cfi_def_cfa_offset 8
	jmp	_ZdlPvm
	.cfi_endproc
.LFE12734:
	.size	_ZN5boost16exception_detail10clone_implINS0_39current_exception_std_exception_wrapperISt12out_of_rangeEEED0Ev, .-_ZN5boost16exception_detail10clone_implINS0_39current_exception_std_exception_wrapperISt12out_of_rangeEEED0Ev
	.section	.text._ZN5boost16exception_detail39current_exception_std_exception_wrapperISt10bad_typeidED2Ev,"axG",@progbits,_ZN5boost16exception_detail39current_exception_std_exception_wrapperISt10bad_typeidED5Ev,comdat
	.align 2
	.p2align 4,,15
	.weak	_ZN5boost16exception_detail39current_exception_std_exception_wrapperISt10bad_typeidED2Ev
	.type	_ZN5boost16exception_detail39current_exception_std_exception_wrapperISt10bad_typeidED2Ev, @function
_ZN5boost16exception_detail39current_exception_std_exception_wrapperISt10bad_typeidED2Ev:
.LFB12132:
	.cfi_startproc
	.cfi_personality 0x3,__gxx_personality_v0
	.cfi_lsda 0x3,.LLSDA12132
	pushq	%rbx
	.cfi_def_cfa_offset 16
	.cfi_offset 3, -16
	movq	%rdi, %rbx
	movq	$_ZTVN5boost16exception_detail39current_exception_std_exception_wrapperISt10bad_typeidEE+16, (%rdi)
	movq	$_ZTVN5boost9exceptionE+16, 8(%rdi)
	movq	16(%rdi), %rdi
	testq	%rdi, %rdi
	je	.L300
	movq	(%rdi), %rax
	call	*32(%rax)
.L300:
	movq	%rbx, %rdi
	popq	%rbx
	.cfi_def_cfa_offset 8
	jmp	_ZNSt10bad_typeidD2Ev
	.cfi_endproc
.LFE12132:
	.section	.gcc_except_table._ZN5boost16exception_detail39current_exception_std_exception_wrapperISt10bad_typeidED2Ev,"aG",@progbits,_ZN5boost16exception_detail39current_exception_std_exception_wrapperISt10bad_typeidED5Ev,comdat
.LLSDA12132:
	.byte	0xff
	.byte	0xff
	.byte	0x1
	.uleb128 .LLSDACSE12132-.LLSDACSB12132
.LLSDACSB12132:
.LLSDACSE12132:
	.section	.text._ZN5boost16exception_detail39current_exception_std_exception_wrapperISt10bad_typeidED2Ev,"axG",@progbits,_ZN5boost16exception_detail39current_exception_std_exception_wrapperISt10bad_typeidED5Ev,comdat
	.size	_ZN5boost16exception_detail39current_exception_std_exception_wrapperISt10bad_typeidED2Ev, .-_ZN5boost16exception_detail39current_exception_std_exception_wrapperISt10bad_typeidED2Ev
	.weak	_ZN5boost16exception_detail39current_exception_std_exception_wrapperISt10bad_typeidED1Ev
	.set	_ZN5boost16exception_detail39current_exception_std_exception_wrapperISt10bad_typeidED1Ev,_ZN5boost16exception_detail39current_exception_std_exception_wrapperISt10bad_typeidED2Ev
	.set	.LTHUNK84,_ZN5boost16exception_detail39current_exception_std_exception_wrapperISt10bad_typeidED1Ev
	.p2align 4,,15
	.weak	_ZThn8_N5boost16exception_detail39current_exception_std_exception_wrapperISt10bad_typeidED1Ev
	.type	_ZThn8_N5boost16exception_detail39current_exception_std_exception_wrapperISt10bad_typeidED1Ev, @function
_ZThn8_N5boost16exception_detail39current_exception_std_exception_wrapperISt10bad_typeidED1Ev:
.LFB15800:
	.cfi_startproc
	subq	$8, %rdi
	jmp	.LTHUNK84
	.cfi_endproc
.LFE15800:
	.size	_ZThn8_N5boost16exception_detail39current_exception_std_exception_wrapperISt10bad_typeidED1Ev, .-_ZThn8_N5boost16exception_detail39current_exception_std_exception_wrapperISt10bad_typeidED1Ev
	.section	.text._ZN5boost16exception_detail39current_exception_std_exception_wrapperISt10bad_typeidED0Ev,"axG",@progbits,_ZN5boost16exception_detail39current_exception_std_exception_wrapperISt10bad_typeidED5Ev,comdat
	.align 2
	.p2align 4,,15
	.weak	_ZN5boost16exception_detail39current_exception_std_exception_wrapperISt10bad_typeidED0Ev
	.type	_ZN5boost16exception_detail39current_exception_std_exception_wrapperISt10bad_typeidED0Ev, @function
_ZN5boost16exception_detail39current_exception_std_exception_wrapperISt10bad_typeidED0Ev:
.LFB12134:
	.cfi_startproc
	pushq	%rbx
	.cfi_def_cfa_offset 16
	.cfi_offset 3, -16
	movq	%rdi, %rbx
	call	_ZN5boost16exception_detail39current_exception_std_exception_wrapperISt10bad_typeidED1Ev
	movq	%rbx, %rdi
	movl	$48, %esi
	popq	%rbx
	.cfi_def_cfa_offset 8
	jmp	_ZdlPvm
	.cfi_endproc
.LFE12134:
	.size	_ZN5boost16exception_detail39current_exception_std_exception_wrapperISt10bad_typeidED0Ev, .-_ZN5boost16exception_detail39current_exception_std_exception_wrapperISt10bad_typeidED0Ev
	.section	.text._ZN5boost16exception_detail10clone_implINS0_39current_exception_std_exception_wrapperISt10bad_typeidEEED1Ev,"axG",@progbits,_ZN5boost16exception_detail10clone_implINS0_39current_exception_std_exception_wrapperISt10bad_typeidEEED1Ev,comdat
	.align 2
	.p2align 4,,15
	.weak	_ZN5boost16exception_detail10clone_implINS0_39current_exception_std_exception_wrapperISt10bad_typeidEEED1Ev
	.type	_ZN5boost16exception_detail10clone_implINS0_39current_exception_std_exception_wrapperISt10bad_typeidEEED1Ev, @function
_ZN5boost16exception_detail10clone_implINS0_39current_exception_std_exception_wrapperISt10bad_typeidEEED1Ev:
.LFB12787:
	.cfi_startproc
	movq	$_ZTVN5boost16exception_detail10clone_implINS0_39current_exception_std_exception_wrapperISt10bad_typeidEEEE+24, (%rdi)
	movq	$_ZTVN5boost16exception_detail10clone_implINS0_39current_exception_std_exception_wrapperISt10bad_typeidEEEE+80, 8(%rdi)
	movq	$_ZTVN5boost16exception_detail10clone_implINS0_39current_exception_std_exception_wrapperISt10bad_typeidEEEE+136, 48(%rdi)
	jmp	_ZN5boost16exception_detail39current_exception_std_exception_wrapperISt10bad_typeidED2Ev
	.cfi_endproc
.LFE12787:
	.size	_ZN5boost16exception_detail10clone_implINS0_39current_exception_std_exception_wrapperISt10bad_typeidEEED1Ev, .-_ZN5boost16exception_detail10clone_implINS0_39current_exception_std_exception_wrapperISt10bad_typeidEEED1Ev
	.section	.text._ZN5boost16exception_detail10clone_implINS0_39current_exception_std_exception_wrapperISt10bad_typeidEEED0Ev,"axG",@progbits,_ZN5boost16exception_detail10clone_implINS0_39current_exception_std_exception_wrapperISt10bad_typeidEEED0Ev,comdat
	.align 2
	.p2align 4,,15
	.weak	_ZN5boost16exception_detail10clone_implINS0_39current_exception_std_exception_wrapperISt10bad_typeidEEED0Ev
	.type	_ZN5boost16exception_detail10clone_implINS0_39current_exception_std_exception_wrapperISt10bad_typeidEEED0Ev, @function
_ZN5boost16exception_detail10clone_implINS0_39current_exception_std_exception_wrapperISt10bad_typeidEEED0Ev:
.LFB12788:
	.cfi_startproc
	pushq	%rbx
	.cfi_def_cfa_offset 16
	.cfi_offset 3, -16
	movq	%rdi, %rbx
	movq	$_ZTVN5boost16exception_detail10clone_implINS0_39current_exception_std_exception_wrapperISt10bad_typeidEEEE+24, (%rdi)
	movq	$_ZTVN5boost16exception_detail10clone_implINS0_39current_exception_std_exception_wrapperISt10bad_typeidEEEE+80, 8(%rdi)
	movq	$_ZTVN5boost16exception_detail10clone_implINS0_39current_exception_std_exception_wrapperISt10bad_typeidEEEE+136, 48(%rdi)
	call	_ZN5boost16exception_detail39current_exception_std_exception_wrapperISt10bad_typeidED2Ev
	movq	%rbx, %rdi
	movl	$56, %esi
	popq	%rbx
	.cfi_def_cfa_offset 8
	jmp	_ZdlPvm
	.cfi_endproc
.LFE12788:
	.size	_ZN5boost16exception_detail10clone_implINS0_39current_exception_std_exception_wrapperISt10bad_typeidEEED0Ev, .-_ZN5boost16exception_detail10clone_implINS0_39current_exception_std_exception_wrapperISt10bad_typeidEEED0Ev
	.section	.text._ZN5boost16exception_detail39current_exception_std_exception_wrapperISt8bad_castED2Ev,"axG",@progbits,_ZN5boost16exception_detail39current_exception_std_exception_wrapperISt8bad_castED5Ev,comdat
	.align 2
	.p2align 4,,15
	.weak	_ZN5boost16exception_detail39current_exception_std_exception_wrapperISt8bad_castED2Ev
	.type	_ZN5boost16exception_detail39current_exception_std_exception_wrapperISt8bad_castED2Ev, @function
_ZN5boost16exception_detail39current_exception_std_exception_wrapperISt8bad_castED2Ev:
.LFB12117:
	.cfi_startproc
	.cfi_personality 0x3,__gxx_personality_v0
	.cfi_lsda 0x3,.LLSDA12117
	pushq	%rbx
	.cfi_def_cfa_offset 16
	.cfi_offset 3, -16
	movq	%rdi, %rbx
	movq	$_ZTVN5boost16exception_detail39current_exception_std_exception_wrapperISt8bad_castEE+16, (%rdi)
	movq	$_ZTVN5boost9exceptionE+16, 8(%rdi)
	movq	16(%rdi), %rdi
	testq	%rdi, %rdi
	je	.L311
	movq	(%rdi), %rax
	call	*32(%rax)
.L311:
	movq	%rbx, %rdi
	popq	%rbx
	.cfi_def_cfa_offset 8
	jmp	_ZNSt8bad_castD2Ev
	.cfi_endproc
.LFE12117:
	.section	.gcc_except_table._ZN5boost16exception_detail39current_exception_std_exception_wrapperISt8bad_castED2Ev,"aG",@progbits,_ZN5boost16exception_detail39current_exception_std_exception_wrapperISt8bad_castED5Ev,comdat
.LLSDA12117:
	.byte	0xff
	.byte	0xff
	.byte	0x1
	.uleb128 .LLSDACSE12117-.LLSDACSB12117
.LLSDACSB12117:
.LLSDACSE12117:
	.section	.text._ZN5boost16exception_detail39current_exception_std_exception_wrapperISt8bad_castED2Ev,"axG",@progbits,_ZN5boost16exception_detail39current_exception_std_exception_wrapperISt8bad_castED5Ev,comdat
	.size	_ZN5boost16exception_detail39current_exception_std_exception_wrapperISt8bad_castED2Ev, .-_ZN5boost16exception_detail39current_exception_std_exception_wrapperISt8bad_castED2Ev
	.weak	_ZN5boost16exception_detail39current_exception_std_exception_wrapperISt8bad_castED1Ev
	.set	_ZN5boost16exception_detail39current_exception_std_exception_wrapperISt8bad_castED1Ev,_ZN5boost16exception_detail39current_exception_std_exception_wrapperISt8bad_castED2Ev
	.set	.LTHUNK82,_ZN5boost16exception_detail39current_exception_std_exception_wrapperISt8bad_castED1Ev
	.p2align 4,,15
	.weak	_ZThn8_N5boost16exception_detail39current_exception_std_exception_wrapperISt8bad_castED1Ev
	.type	_ZThn8_N5boost16exception_detail39current_exception_std_exception_wrapperISt8bad_castED1Ev, @function
_ZThn8_N5boost16exception_detail39current_exception_std_exception_wrapperISt8bad_castED1Ev:
.LFB15804:
	.cfi_startproc
	subq	$8, %rdi
	jmp	.LTHUNK82
	.cfi_endproc
.LFE15804:
	.size	_ZThn8_N5boost16exception_detail39current_exception_std_exception_wrapperISt8bad_castED1Ev, .-_ZThn8_N5boost16exception_detail39current_exception_std_exception_wrapperISt8bad_castED1Ev
	.section	.text._ZN5boost16exception_detail39current_exception_std_exception_wrapperISt8bad_castED0Ev,"axG",@progbits,_ZN5boost16exception_detail39current_exception_std_exception_wrapperISt8bad_castED5Ev,comdat
	.align 2
	.p2align 4,,15
	.weak	_ZN5boost16exception_detail39current_exception_std_exception_wrapperISt8bad_castED0Ev
	.type	_ZN5boost16exception_detail39current_exception_std_exception_wrapperISt8bad_castED0Ev, @function
_ZN5boost16exception_detail39current_exception_std_exception_wrapperISt8bad_castED0Ev:
.LFB12119:
	.cfi_startproc
	pushq	%rbx
	.cfi_def_cfa_offset 16
	.cfi_offset 3, -16
	movq	%rdi, %rbx
	call	_ZN5boost16exception_detail39current_exception_std_exception_wrapperISt8bad_castED1Ev
	movq	%rbx, %rdi
	movl	$48, %esi
	popq	%rbx
	.cfi_def_cfa_offset 8
	jmp	_ZdlPvm
	.cfi_endproc
.LFE12119:
	.size	_ZN5boost16exception_detail39current_exception_std_exception_wrapperISt8bad_castED0Ev, .-_ZN5boost16exception_detail39current_exception_std_exception_wrapperISt8bad_castED0Ev
	.section	.text._ZN5boost16exception_detail10clone_implINS0_39current_exception_std_exception_wrapperISt8bad_castEEED1Ev,"axG",@progbits,_ZN5boost16exception_detail10clone_implINS0_39current_exception_std_exception_wrapperISt8bad_castEEED1Ev,comdat
	.align 2
	.p2align 4,,15
	.weak	_ZN5boost16exception_detail10clone_implINS0_39current_exception_std_exception_wrapperISt8bad_castEEED1Ev
	.type	_ZN5boost16exception_detail10clone_implINS0_39current_exception_std_exception_wrapperISt8bad_castEEED1Ev, @function
_ZN5boost16exception_detail10clone_implINS0_39current_exception_std_exception_wrapperISt8bad_castEEED1Ev:
.LFB12781:
	.cfi_startproc
	movq	$_ZTVN5boost16exception_detail10clone_implINS0_39current_exception_std_exception_wrapperISt8bad_castEEEE+24, (%rdi)
	movq	$_ZTVN5boost16exception_detail10clone_implINS0_39current_exception_std_exception_wrapperISt8bad_castEEEE+80, 8(%rdi)
	movq	$_ZTVN5boost16exception_detail10clone_implINS0_39current_exception_std_exception_wrapperISt8bad_castEEEE+136, 48(%rdi)
	jmp	_ZN5boost16exception_detail39current_exception_std_exception_wrapperISt8bad_castED2Ev
	.cfi_endproc
.LFE12781:
	.size	_ZN5boost16exception_detail10clone_implINS0_39current_exception_std_exception_wrapperISt8bad_castEEED1Ev, .-_ZN5boost16exception_detail10clone_implINS0_39current_exception_std_exception_wrapperISt8bad_castEEED1Ev
	.section	.text._ZN5boost16exception_detail10clone_implINS0_39current_exception_std_exception_wrapperISt8bad_castEEED0Ev,"axG",@progbits,_ZN5boost16exception_detail10clone_implINS0_39current_exception_std_exception_wrapperISt8bad_castEEED0Ev,comdat
	.align 2
	.p2align 4,,15
	.weak	_ZN5boost16exception_detail10clone_implINS0_39current_exception_std_exception_wrapperISt8bad_castEEED0Ev
	.type	_ZN5boost16exception_detail10clone_implINS0_39current_exception_std_exception_wrapperISt8bad_castEEED0Ev, @function
_ZN5boost16exception_detail10clone_implINS0_39current_exception_std_exception_wrapperISt8bad_castEEED0Ev:
.LFB12782:
	.cfi_startproc
	pushq	%rbx
	.cfi_def_cfa_offset 16
	.cfi_offset 3, -16
	movq	%rdi, %rbx
	movq	$_ZTVN5boost16exception_detail10clone_implINS0_39current_exception_std_exception_wrapperISt8bad_castEEEE+24, (%rdi)
	movq	$_ZTVN5boost16exception_detail10clone_implINS0_39current_exception_std_exception_wrapperISt8bad_castEEEE+80, 8(%rdi)
	movq	$_ZTVN5boost16exception_detail10clone_implINS0_39current_exception_std_exception_wrapperISt8bad_castEEEE+136, 48(%rdi)
	call	_ZN5boost16exception_detail39current_exception_std_exception_wrapperISt8bad_castED2Ev
	movq	%rbx, %rdi
	movl	$56, %esi
	popq	%rbx
	.cfi_def_cfa_offset 8
	jmp	_ZdlPvm
	.cfi_endproc
.LFE12782:
	.size	_ZN5boost16exception_detail10clone_implINS0_39current_exception_std_exception_wrapperISt8bad_castEEED0Ev, .-_ZN5boost16exception_detail10clone_implINS0_39current_exception_std_exception_wrapperISt8bad_castEEED0Ev
	.section	.text._ZN5boost16exception_detail39current_exception_std_exception_wrapperINSt8ios_base7failureB5cxx11EED2Ev,"axG",@progbits,_ZN5boost16exception_detail39current_exception_std_exception_wrapperINSt8ios_base7failureB5cxx11EED5Ev,comdat
	.align 2
	.p2align 4,,15
	.weak	_ZN5boost16exception_detail39current_exception_std_exception_wrapperINSt8ios_base7failureB5cxx11EED2Ev
	.type	_ZN5boost16exception_detail39current_exception_std_exception_wrapperINSt8ios_base7failureB5cxx11EED2Ev, @function
_ZN5boost16exception_detail39current_exception_std_exception_wrapperINSt8ios_base7failureB5cxx11EED2Ev:
.LFB12078:
	.cfi_startproc
	.cfi_personality 0x3,__gxx_personality_v0
	.cfi_lsda 0x3,.LLSDA12078
	pushq	%rbx
	.cfi_def_cfa_offset 16
	.cfi_offset 3, -16
	movq	%rdi, %rbx
	movq	$_ZTVN5boost16exception_detail39current_exception_std_exception_wrapperINSt8ios_base7failureB5cxx11EEE+16, (%rdi)
	movq	$_ZTVN5boost9exceptionE+16, 32(%rdi)
	movq	40(%rdi), %rdi
	testq	%rdi, %rdi
	je	.L322
	movq	(%rdi), %rax
	call	*32(%rax)
.L322:
	movq	%rbx, %rdi
	popq	%rbx
	.cfi_def_cfa_offset 8
	jmp	_ZNSt8ios_base7failureB5cxx11D2Ev
	.cfi_endproc
.LFE12078:
	.section	.gcc_except_table._ZN5boost16exception_detail39current_exception_std_exception_wrapperINSt8ios_base7failureB5cxx11EED2Ev,"aG",@progbits,_ZN5boost16exception_detail39current_exception_std_exception_wrapperINSt8ios_base7failureB5cxx11EED5Ev,comdat
.LLSDA12078:
	.byte	0xff
	.byte	0xff
	.byte	0x1
	.uleb128 .LLSDACSE12078-.LLSDACSB12078
.LLSDACSB12078:
.LLSDACSE12078:
	.section	.text._ZN5boost16exception_detail39current_exception_std_exception_wrapperINSt8ios_base7failureB5cxx11EED2Ev,"axG",@progbits,_ZN5boost16exception_detail39current_exception_std_exception_wrapperINSt8ios_base7failureB5cxx11EED5Ev,comdat
	.size	_ZN5boost16exception_detail39current_exception_std_exception_wrapperINSt8ios_base7failureB5cxx11EED2Ev, .-_ZN5boost16exception_detail39current_exception_std_exception_wrapperINSt8ios_base7failureB5cxx11EED2Ev
	.weak	_ZN5boost16exception_detail39current_exception_std_exception_wrapperINSt8ios_base7failureB5cxx11EED1Ev
	.set	_ZN5boost16exception_detail39current_exception_std_exception_wrapperINSt8ios_base7failureB5cxx11EED1Ev,_ZN5boost16exception_detail39current_exception_std_exception_wrapperINSt8ios_base7failureB5cxx11EED2Ev
	.set	.LTHUNK76,_ZN5boost16exception_detail39current_exception_std_exception_wrapperINSt8ios_base7failureB5cxx11EED1Ev
	.p2align 4,,15
	.weak	_ZThn32_N5boost16exception_detail39current_exception_std_exception_wrapperINSt8ios_base7failureB5cxx11EED1Ev
	.type	_ZThn32_N5boost16exception_detail39current_exception_std_exception_wrapperINSt8ios_base7failureB5cxx11EED1Ev, @function
_ZThn32_N5boost16exception_detail39current_exception_std_exception_wrapperINSt8ios_base7failureB5cxx11EED1Ev:
.LFB15808:
	.cfi_startproc
	subq	$32, %rdi
	jmp	.LTHUNK76
	.cfi_endproc
.LFE15808:
	.size	_ZThn32_N5boost16exception_detail39current_exception_std_exception_wrapperINSt8ios_base7failureB5cxx11EED1Ev, .-_ZThn32_N5boost16exception_detail39current_exception_std_exception_wrapperINSt8ios_base7failureB5cxx11EED1Ev
	.section	.text._ZN5boost16exception_detail39current_exception_std_exception_wrapperINSt8ios_base7failureB5cxx11EED0Ev,"axG",@progbits,_ZN5boost16exception_detail39current_exception_std_exception_wrapperINSt8ios_base7failureB5cxx11EED5Ev,comdat
	.align 2
	.p2align 4,,15
	.weak	_ZN5boost16exception_detail39current_exception_std_exception_wrapperINSt8ios_base7failureB5cxx11EED0Ev
	.type	_ZN5boost16exception_detail39current_exception_std_exception_wrapperINSt8ios_base7failureB5cxx11EED0Ev, @function
_ZN5boost16exception_detail39current_exception_std_exception_wrapperINSt8ios_base7failureB5cxx11EED0Ev:
.LFB12080:
	.cfi_startproc
	pushq	%rbx
	.cfi_def_cfa_offset 16
	.cfi_offset 3, -16
	movq	%rdi, %rbx
	call	_ZN5boost16exception_detail39current_exception_std_exception_wrapperINSt8ios_base7failureB5cxx11EED1Ev
	movq	%rbx, %rdi
	movl	$72, %esi
	popq	%rbx
	.cfi_def_cfa_offset 8
	jmp	_ZdlPvm
	.cfi_endproc
.LFE12080:
	.size	_ZN5boost16exception_detail39current_exception_std_exception_wrapperINSt8ios_base7failureB5cxx11EED0Ev, .-_ZN5boost16exception_detail39current_exception_std_exception_wrapperINSt8ios_base7failureB5cxx11EED0Ev
	.section	.text._ZN5boost16exception_detail10clone_implINS0_39current_exception_std_exception_wrapperINSt8ios_base7failureB5cxx11EEEED1Ev,"axG",@progbits,_ZN5boost16exception_detail10clone_implINS0_39current_exception_std_exception_wrapperINSt8ios_base7failureB5cxx11EEEED1Ev,comdat
	.align 2
	.p2align 4,,15
	.weak	_ZN5boost16exception_detail10clone_implINS0_39current_exception_std_exception_wrapperINSt8ios_base7failureB5cxx11EEEED1Ev
	.type	_ZN5boost16exception_detail10clone_implINS0_39current_exception_std_exception_wrapperINSt8ios_base7failureB5cxx11EEEED1Ev, @function
_ZN5boost16exception_detail10clone_implINS0_39current_exception_std_exception_wrapperINSt8ios_base7failureB5cxx11EEEED1Ev:
.LFB12763:
	.cfi_startproc
	movq	$_ZTVN5boost16exception_detail10clone_implINS0_39current_exception_std_exception_wrapperINSt8ios_base7failureB5cxx11EEEEE+24, (%rdi)
	movq	$_ZTVN5boost16exception_detail10clone_implINS0_39current_exception_std_exception_wrapperINSt8ios_base7failureB5cxx11EEEEE+80, 32(%rdi)
	movq	$_ZTVN5boost16exception_detail10clone_implINS0_39current_exception_std_exception_wrapperINSt8ios_base7failureB5cxx11EEEEE+136, 72(%rdi)
	jmp	_ZN5boost16exception_detail39current_exception_std_exception_wrapperINSt8ios_base7failureB5cxx11EED2Ev
	.cfi_endproc
.LFE12763:
	.size	_ZN5boost16exception_detail10clone_implINS0_39current_exception_std_exception_wrapperINSt8ios_base7failureB5cxx11EEEED1Ev, .-_ZN5boost16exception_detail10clone_implINS0_39current_exception_std_exception_wrapperINSt8ios_base7failureB5cxx11EEEED1Ev
	.section	.text._ZN5boost16exception_detail10clone_implINS0_39current_exception_std_exception_wrapperINSt8ios_base7failureB5cxx11EEEED0Ev,"axG",@progbits,_ZN5boost16exception_detail10clone_implINS0_39current_exception_std_exception_wrapperINSt8ios_base7failureB5cxx11EEEED0Ev,comdat
	.align 2
	.p2align 4,,15
	.weak	_ZN5boost16exception_detail10clone_implINS0_39current_exception_std_exception_wrapperINSt8ios_base7failureB5cxx11EEEED0Ev
	.type	_ZN5boost16exception_detail10clone_implINS0_39current_exception_std_exception_wrapperINSt8ios_base7failureB5cxx11EEEED0Ev, @function
_ZN5boost16exception_detail10clone_implINS0_39current_exception_std_exception_wrapperINSt8ios_base7failureB5cxx11EEEED0Ev:
.LFB12764:
	.cfi_startproc
	pushq	%rbx
	.cfi_def_cfa_offset 16
	.cfi_offset 3, -16
	movq	%rdi, %rbx
	movq	$_ZTVN5boost16exception_detail10clone_implINS0_39current_exception_std_exception_wrapperINSt8ios_base7failureB5cxx11EEEEE+24, (%rdi)
	movq	$_ZTVN5boost16exception_detail10clone_implINS0_39current_exception_std_exception_wrapperINSt8ios_base7failureB5cxx11EEEEE+80, 32(%rdi)
	movq	$_ZTVN5boost16exception_detail10clone_implINS0_39current_exception_std_exception_wrapperINSt8ios_base7failureB5cxx11EEEEE+136, 72(%rdi)
	call	_ZN5boost16exception_detail39current_exception_std_exception_wrapperINSt8ios_base7failureB5cxx11EED2Ev
	movq	%rbx, %rdi
	movl	$80, %esi
	popq	%rbx
	.cfi_def_cfa_offset 8
	jmp	_ZdlPvm
	.cfi_endproc
.LFE12764:
	.size	_ZN5boost16exception_detail10clone_implINS0_39current_exception_std_exception_wrapperINSt8ios_base7failureB5cxx11EEEED0Ev, .-_ZN5boost16exception_detail10clone_implINS0_39current_exception_std_exception_wrapperINSt8ios_base7failureB5cxx11EEEED0Ev
	.section	.text._ZN5boost16exception_detail39current_exception_std_exception_wrapperISt15underflow_errorED2Ev,"axG",@progbits,_ZN5boost16exception_detail39current_exception_std_exception_wrapperISt15underflow_errorED5Ev,comdat
	.align 2
	.p2align 4,,15
	.weak	_ZN5boost16exception_detail39current_exception_std_exception_wrapperISt15underflow_errorED2Ev
	.type	_ZN5boost16exception_detail39current_exception_std_exception_wrapperISt15underflow_errorED2Ev, @function
_ZN5boost16exception_detail39current_exception_std_exception_wrapperISt15underflow_errorED2Ev:
.LFB12060:
	.cfi_startproc
	.cfi_personality 0x3,__gxx_personality_v0
	.cfi_lsda 0x3,.LLSDA12060
	pushq	%rbx
	.cfi_def_cfa_offset 16
	.cfi_offset 3, -16
	movq	%rdi, %rbx
	movq	$_ZTVN5boost16exception_detail39current_exception_std_exception_wrapperISt15underflow_errorEE+16, (%rdi)
	movq	$_ZTVN5boost9exceptionE+16, 16(%rdi)
	movq	24(%rdi), %rdi
	testq	%rdi, %rdi
	je	.L333
	movq	(%rdi), %rax
	call	*32(%rax)
.L333:
	movq	%rbx, %rdi
	popq	%rbx
	.cfi_def_cfa_offset 8
	jmp	_ZNSt15underflow_errorD2Ev
	.cfi_endproc
.LFE12060:
	.section	.gcc_except_table._ZN5boost16exception_detail39current_exception_std_exception_wrapperISt15underflow_errorED2Ev,"aG",@progbits,_ZN5boost16exception_detail39current_exception_std_exception_wrapperISt15underflow_errorED5Ev,comdat
.LLSDA12060:
	.byte	0xff
	.byte	0xff
	.byte	0x1
	.uleb128 .LLSDACSE12060-.LLSDACSB12060
.LLSDACSB12060:
.LLSDACSE12060:
	.section	.text._ZN5boost16exception_detail39current_exception_std_exception_wrapperISt15underflow_errorED2Ev,"axG",@progbits,_ZN5boost16exception_detail39current_exception_std_exception_wrapperISt15underflow_errorED5Ev,comdat
	.size	_ZN5boost16exception_detail39current_exception_std_exception_wrapperISt15underflow_errorED2Ev, .-_ZN5boost16exception_detail39current_exception_std_exception_wrapperISt15underflow_errorED2Ev
	.weak	_ZN5boost16exception_detail39current_exception_std_exception_wrapperISt15underflow_errorED1Ev
	.set	_ZN5boost16exception_detail39current_exception_std_exception_wrapperISt15underflow_errorED1Ev,_ZN5boost16exception_detail39current_exception_std_exception_wrapperISt15underflow_errorED2Ev
	.set	.LTHUNK74,_ZN5boost16exception_detail39current_exception_std_exception_wrapperISt15underflow_errorED1Ev
	.p2align 4,,15
	.weak	_ZThn16_N5boost16exception_detail39current_exception_std_exception_wrapperISt15underflow_errorED1Ev
	.type	_ZThn16_N5boost16exception_detail39current_exception_std_exception_wrapperISt15underflow_errorED1Ev, @function
_ZThn16_N5boost16exception_detail39current_exception_std_exception_wrapperISt15underflow_errorED1Ev:
.LFB15812:
	.cfi_startproc
	subq	$16, %rdi
	jmp	.LTHUNK74
	.cfi_endproc
.LFE15812:
	.size	_ZThn16_N5boost16exception_detail39current_exception_std_exception_wrapperISt15underflow_errorED1Ev, .-_ZThn16_N5boost16exception_detail39current_exception_std_exception_wrapperISt15underflow_errorED1Ev
	.section	.text._ZN5boost16exception_detail39current_exception_std_exception_wrapperISt15underflow_errorED0Ev,"axG",@progbits,_ZN5boost16exception_detail39current_exception_std_exception_wrapperISt15underflow_errorED5Ev,comdat
	.align 2
	.p2align 4,,15
	.weak	_ZN5boost16exception_detail39current_exception_std_exception_wrapperISt15underflow_errorED0Ev
	.type	_ZN5boost16exception_detail39current_exception_std_exception_wrapperISt15underflow_errorED0Ev, @function
_ZN5boost16exception_detail39current_exception_std_exception_wrapperISt15underflow_errorED0Ev:
.LFB12062:
	.cfi_startproc
	pushq	%rbx
	.cfi_def_cfa_offset 16
	.cfi_offset 3, -16
	movq	%rdi, %rbx
	call	_ZN5boost16exception_detail39current_exception_std_exception_wrapperISt15underflow_errorED1Ev
	movq	%rbx, %rdi
	movl	$56, %esi
	popq	%rbx
	.cfi_def_cfa_offset 8
	jmp	_ZdlPvm
	.cfi_endproc
.LFE12062:
	.size	_ZN5boost16exception_detail39current_exception_std_exception_wrapperISt15underflow_errorED0Ev, .-_ZN5boost16exception_detail39current_exception_std_exception_wrapperISt15underflow_errorED0Ev
	.section	.text._ZN5boost16exception_detail10clone_implINS0_39current_exception_std_exception_wrapperISt15underflow_errorEEED1Ev,"axG",@progbits,_ZN5boost16exception_detail10clone_implINS0_39current_exception_std_exception_wrapperISt15underflow_errorEEED1Ev,comdat
	.align 2
	.p2align 4,,15
	.weak	_ZN5boost16exception_detail10clone_implINS0_39current_exception_std_exception_wrapperISt15underflow_errorEEED1Ev
	.type	_ZN5boost16exception_detail10clone_implINS0_39current_exception_std_exception_wrapperISt15underflow_errorEEED1Ev, @function
_ZN5boost16exception_detail10clone_implINS0_39current_exception_std_exception_wrapperISt15underflow_errorEEED1Ev:
.LFB12757:
	.cfi_startproc
	movq	$_ZTVN5boost16exception_detail10clone_implINS0_39current_exception_std_exception_wrapperISt15underflow_errorEEEE+24, (%rdi)
	movq	$_ZTVN5boost16exception_detail10clone_implINS0_39current_exception_std_exception_wrapperISt15underflow_errorEEEE+80, 16(%rdi)
	movq	$_ZTVN5boost16exception_detail10clone_implINS0_39current_exception_std_exception_wrapperISt15underflow_errorEEEE+136, 56(%rdi)
	jmp	_ZN5boost16exception_detail39current_exception_std_exception_wrapperISt15underflow_errorED2Ev
	.cfi_endproc
.LFE12757:
	.size	_ZN5boost16exception_detail10clone_implINS0_39current_exception_std_exception_wrapperISt15underflow_errorEEED1Ev, .-_ZN5boost16exception_detail10clone_implINS0_39current_exception_std_exception_wrapperISt15underflow_errorEEED1Ev
	.section	.text._ZN5boost16exception_detail10clone_implINS0_39current_exception_std_exception_wrapperISt15underflow_errorEEED0Ev,"axG",@progbits,_ZN5boost16exception_detail10clone_implINS0_39current_exception_std_exception_wrapperISt15underflow_errorEEED0Ev,comdat
	.align 2
	.p2align 4,,15
	.weak	_ZN5boost16exception_detail10clone_implINS0_39current_exception_std_exception_wrapperISt15underflow_errorEEED0Ev
	.type	_ZN5boost16exception_detail10clone_implINS0_39current_exception_std_exception_wrapperISt15underflow_errorEEED0Ev, @function
_ZN5boost16exception_detail10clone_implINS0_39current_exception_std_exception_wrapperISt15underflow_errorEEED0Ev:
.LFB12758:
	.cfi_startproc
	pushq	%rbx
	.cfi_def_cfa_offset 16
	.cfi_offset 3, -16
	movq	%rdi, %rbx
	movq	$_ZTVN5boost16exception_detail10clone_implINS0_39current_exception_std_exception_wrapperISt15underflow_errorEEEE+24, (%rdi)
	movq	$_ZTVN5boost16exception_detail10clone_implINS0_39current_exception_std_exception_wrapperISt15underflow_errorEEEE+80, 16(%rdi)
	movq	$_ZTVN5boost16exception_detail10clone_implINS0_39current_exception_std_exception_wrapperISt15underflow_errorEEEE+136, 56(%rdi)
	call	_ZN5boost16exception_detail39current_exception_std_exception_wrapperISt15underflow_errorED2Ev
	movq	%rbx, %rdi
	movl	$64, %esi
	popq	%rbx
	.cfi_def_cfa_offset 8
	jmp	_ZdlPvm
	.cfi_endproc
.LFE12758:
	.size	_ZN5boost16exception_detail10clone_implINS0_39current_exception_std_exception_wrapperISt15underflow_errorEEED0Ev, .-_ZN5boost16exception_detail10clone_implINS0_39current_exception_std_exception_wrapperISt15underflow_errorEEED0Ev
	.section	.text._ZN5boost16exception_detail39current_exception_std_exception_wrapperISt14overflow_errorED2Ev,"axG",@progbits,_ZN5boost16exception_detail39current_exception_std_exception_wrapperISt14overflow_errorED5Ev,comdat
	.align 2
	.p2align 4,,15
	.weak	_ZN5boost16exception_detail39current_exception_std_exception_wrapperISt14overflow_errorED2Ev
	.type	_ZN5boost16exception_detail39current_exception_std_exception_wrapperISt14overflow_errorED2Ev, @function
_ZN5boost16exception_detail39current_exception_std_exception_wrapperISt14overflow_errorED2Ev:
.LFB12045:
	.cfi_startproc
	.cfi_personality 0x3,__gxx_personality_v0
	.cfi_lsda 0x3,.LLSDA12045
	pushq	%rbx
	.cfi_def_cfa_offset 16
	.cfi_offset 3, -16
	movq	%rdi, %rbx
	movq	$_ZTVN5boost16exception_detail39current_exception_std_exception_wrapperISt14overflow_errorEE+16, (%rdi)
	movq	$_ZTVN5boost9exceptionE+16, 16(%rdi)
	movq	24(%rdi), %rdi
	testq	%rdi, %rdi
	je	.L344
	movq	(%rdi), %rax
	call	*32(%rax)
.L344:
	movq	%rbx, %rdi
	popq	%rbx
	.cfi_def_cfa_offset 8
	jmp	_ZNSt14overflow_errorD2Ev
	.cfi_endproc
.LFE12045:
	.section	.gcc_except_table._ZN5boost16exception_detail39current_exception_std_exception_wrapperISt14overflow_errorED2Ev,"aG",@progbits,_ZN5boost16exception_detail39current_exception_std_exception_wrapperISt14overflow_errorED5Ev,comdat
.LLSDA12045:
	.byte	0xff
	.byte	0xff
	.byte	0x1
	.uleb128 .LLSDACSE12045-.LLSDACSB12045
.LLSDACSB12045:
.LLSDACSE12045:
	.section	.text._ZN5boost16exception_detail39current_exception_std_exception_wrapperISt14overflow_errorED2Ev,"axG",@progbits,_ZN5boost16exception_detail39current_exception_std_exception_wrapperISt14overflow_errorED5Ev,comdat
	.size	_ZN5boost16exception_detail39current_exception_std_exception_wrapperISt14overflow_errorED2Ev, .-_ZN5boost16exception_detail39current_exception_std_exception_wrapperISt14overflow_errorED2Ev
	.weak	_ZN5boost16exception_detail39current_exception_std_exception_wrapperISt14overflow_errorED1Ev
	.set	_ZN5boost16exception_detail39current_exception_std_exception_wrapperISt14overflow_errorED1Ev,_ZN5boost16exception_detail39current_exception_std_exception_wrapperISt14overflow_errorED2Ev
	.set	.LTHUNK72,_ZN5boost16exception_detail39current_exception_std_exception_wrapperISt14overflow_errorED1Ev
	.p2align 4,,15
	.weak	_ZThn16_N5boost16exception_detail39current_exception_std_exception_wrapperISt14overflow_errorED1Ev
	.type	_ZThn16_N5boost16exception_detail39current_exception_std_exception_wrapperISt14overflow_errorED1Ev, @function
_ZThn16_N5boost16exception_detail39current_exception_std_exception_wrapperISt14overflow_errorED1Ev:
.LFB15816:
	.cfi_startproc
	subq	$16, %rdi
	jmp	.LTHUNK72
	.cfi_endproc
.LFE15816:
	.size	_ZThn16_N5boost16exception_detail39current_exception_std_exception_wrapperISt14overflow_errorED1Ev, .-_ZThn16_N5boost16exception_detail39current_exception_std_exception_wrapperISt14overflow_errorED1Ev
	.section	.text._ZN5boost16exception_detail39current_exception_std_exception_wrapperISt14overflow_errorED0Ev,"axG",@progbits,_ZN5boost16exception_detail39current_exception_std_exception_wrapperISt14overflow_errorED5Ev,comdat
	.align 2
	.p2align 4,,15
	.weak	_ZN5boost16exception_detail39current_exception_std_exception_wrapperISt14overflow_errorED0Ev
	.type	_ZN5boost16exception_detail39current_exception_std_exception_wrapperISt14overflow_errorED0Ev, @function
_ZN5boost16exception_detail39current_exception_std_exception_wrapperISt14overflow_errorED0Ev:
.LFB12047:
	.cfi_startproc
	pushq	%rbx
	.cfi_def_cfa_offset 16
	.cfi_offset 3, -16
	movq	%rdi, %rbx
	call	_ZN5boost16exception_detail39current_exception_std_exception_wrapperISt14overflow_errorED1Ev
	movq	%rbx, %rdi
	movl	$56, %esi
	popq	%rbx
	.cfi_def_cfa_offset 8
	jmp	_ZdlPvm
	.cfi_endproc
.LFE12047:
	.size	_ZN5boost16exception_detail39current_exception_std_exception_wrapperISt14overflow_errorED0Ev, .-_ZN5boost16exception_detail39current_exception_std_exception_wrapperISt14overflow_errorED0Ev
	.section	.text._ZN5boost16exception_detail10clone_implINS0_39current_exception_std_exception_wrapperISt14overflow_errorEEED1Ev,"axG",@progbits,_ZN5boost16exception_detail10clone_implINS0_39current_exception_std_exception_wrapperISt14overflow_errorEEED1Ev,comdat
	.align 2
	.p2align 4,,15
	.weak	_ZN5boost16exception_detail10clone_implINS0_39current_exception_std_exception_wrapperISt14overflow_errorEEED1Ev
	.type	_ZN5boost16exception_detail10clone_implINS0_39current_exception_std_exception_wrapperISt14overflow_errorEEED1Ev, @function
_ZN5boost16exception_detail10clone_implINS0_39current_exception_std_exception_wrapperISt14overflow_errorEEED1Ev:
.LFB12751:
	.cfi_startproc
	movq	$_ZTVN5boost16exception_detail10clone_implINS0_39current_exception_std_exception_wrapperISt14overflow_errorEEEE+24, (%rdi)
	movq	$_ZTVN5boost16exception_detail10clone_implINS0_39current_exception_std_exception_wrapperISt14overflow_errorEEEE+80, 16(%rdi)
	movq	$_ZTVN5boost16exception_detail10clone_implINS0_39current_exception_std_exception_wrapperISt14overflow_errorEEEE+136, 56(%rdi)
	jmp	_ZN5boost16exception_detail39current_exception_std_exception_wrapperISt14overflow_errorED2Ev
	.cfi_endproc
.LFE12751:
	.size	_ZN5boost16exception_detail10clone_implINS0_39current_exception_std_exception_wrapperISt14overflow_errorEEED1Ev, .-_ZN5boost16exception_detail10clone_implINS0_39current_exception_std_exception_wrapperISt14overflow_errorEEED1Ev
	.section	.text._ZN5boost16exception_detail10clone_implINS0_39current_exception_std_exception_wrapperISt14overflow_errorEEED0Ev,"axG",@progbits,_ZN5boost16exception_detail10clone_implINS0_39current_exception_std_exception_wrapperISt14overflow_errorEEED0Ev,comdat
	.align 2
	.p2align 4,,15
	.weak	_ZN5boost16exception_detail10clone_implINS0_39current_exception_std_exception_wrapperISt14overflow_errorEEED0Ev
	.type	_ZN5boost16exception_detail10clone_implINS0_39current_exception_std_exception_wrapperISt14overflow_errorEEED0Ev, @function
_ZN5boost16exception_detail10clone_implINS0_39current_exception_std_exception_wrapperISt14overflow_errorEEED0Ev:
.LFB12752:
	.cfi_startproc
	pushq	%rbx
	.cfi_def_cfa_offset 16
	.cfi_offset 3, -16
	movq	%rdi, %rbx
	movq	$_ZTVN5boost16exception_detail10clone_implINS0_39current_exception_std_exception_wrapperISt14overflow_errorEEEE+24, (%rdi)
	movq	$_ZTVN5boost16exception_detail10clone_implINS0_39current_exception_std_exception_wrapperISt14overflow_errorEEEE+80, 16(%rdi)
	movq	$_ZTVN5boost16exception_detail10clone_implINS0_39current_exception_std_exception_wrapperISt14overflow_errorEEEE+136, 56(%rdi)
	call	_ZN5boost16exception_detail39current_exception_std_exception_wrapperISt14overflow_errorED2Ev
	movq	%rbx, %rdi
	movl	$64, %esi
	popq	%rbx
	.cfi_def_cfa_offset 8
	jmp	_ZdlPvm
	.cfi_endproc
.LFE12752:
	.size	_ZN5boost16exception_detail10clone_implINS0_39current_exception_std_exception_wrapperISt14overflow_errorEEED0Ev, .-_ZN5boost16exception_detail10clone_implINS0_39current_exception_std_exception_wrapperISt14overflow_errorEEED0Ev
	.section	.text._ZN5boost16exception_detail39current_exception_std_exception_wrapperISt11range_errorED2Ev,"axG",@progbits,_ZN5boost16exception_detail39current_exception_std_exception_wrapperISt11range_errorED5Ev,comdat
	.align 2
	.p2align 4,,15
	.weak	_ZN5boost16exception_detail39current_exception_std_exception_wrapperISt11range_errorED2Ev
	.type	_ZN5boost16exception_detail39current_exception_std_exception_wrapperISt11range_errorED2Ev, @function
_ZN5boost16exception_detail39current_exception_std_exception_wrapperISt11range_errorED2Ev:
.LFB12030:
	.cfi_startproc
	.cfi_personality 0x3,__gxx_personality_v0
	.cfi_lsda 0x3,.LLSDA12030
	pushq	%rbx
	.cfi_def_cfa_offset 16
	.cfi_offset 3, -16
	movq	%rdi, %rbx
	movq	$_ZTVN5boost16exception_detail39current_exception_std_exception_wrapperISt11range_errorEE+16, (%rdi)
	movq	$_ZTVN5boost9exceptionE+16, 16(%rdi)
	movq	24(%rdi), %rdi
	testq	%rdi, %rdi
	je	.L355
	movq	(%rdi), %rax
	call	*32(%rax)
.L355:
	movq	%rbx, %rdi
	popq	%rbx
	.cfi_def_cfa_offset 8
	jmp	_ZNSt11range_errorD2Ev
	.cfi_endproc
.LFE12030:
	.section	.gcc_except_table._ZN5boost16exception_detail39current_exception_std_exception_wrapperISt11range_errorED2Ev,"aG",@progbits,_ZN5boost16exception_detail39current_exception_std_exception_wrapperISt11range_errorED5Ev,comdat
.LLSDA12030:
	.byte	0xff
	.byte	0xff
	.byte	0x1
	.uleb128 .LLSDACSE12030-.LLSDACSB12030
.LLSDACSB12030:
.LLSDACSE12030:
	.section	.text._ZN5boost16exception_detail39current_exception_std_exception_wrapperISt11range_errorED2Ev,"axG",@progbits,_ZN5boost16exception_detail39current_exception_std_exception_wrapperISt11range_errorED5Ev,comdat
	.size	_ZN5boost16exception_detail39current_exception_std_exception_wrapperISt11range_errorED2Ev, .-_ZN5boost16exception_detail39current_exception_std_exception_wrapperISt11range_errorED2Ev
	.weak	_ZN5boost16exception_detail39current_exception_std_exception_wrapperISt11range_errorED1Ev
	.set	_ZN5boost16exception_detail39current_exception_std_exception_wrapperISt11range_errorED1Ev,_ZN5boost16exception_detail39current_exception_std_exception_wrapperISt11range_errorED2Ev
	.set	.LTHUNK70,_ZN5boost16exception_detail39current_exception_std_exception_wrapperISt11range_errorED1Ev
	.p2align 4,,15
	.weak	_ZThn16_N5boost16exception_detail39current_exception_std_exception_wrapperISt11range_errorED1Ev
	.type	_ZThn16_N5boost16exception_detail39current_exception_std_exception_wrapperISt11range_errorED1Ev, @function
_ZThn16_N5boost16exception_detail39current_exception_std_exception_wrapperISt11range_errorED1Ev:
.LFB15820:
	.cfi_startproc
	subq	$16, %rdi
	jmp	.LTHUNK70
	.cfi_endproc
.LFE15820:
	.size	_ZThn16_N5boost16exception_detail39current_exception_std_exception_wrapperISt11range_errorED1Ev, .-_ZThn16_N5boost16exception_detail39current_exception_std_exception_wrapperISt11range_errorED1Ev
	.section	.text._ZN5boost16exception_detail39current_exception_std_exception_wrapperISt11range_errorED0Ev,"axG",@progbits,_ZN5boost16exception_detail39current_exception_std_exception_wrapperISt11range_errorED5Ev,comdat
	.align 2
	.p2align 4,,15
	.weak	_ZN5boost16exception_detail39current_exception_std_exception_wrapperISt11range_errorED0Ev
	.type	_ZN5boost16exception_detail39current_exception_std_exception_wrapperISt11range_errorED0Ev, @function
_ZN5boost16exception_detail39current_exception_std_exception_wrapperISt11range_errorED0Ev:
.LFB12032:
	.cfi_startproc
	pushq	%rbx
	.cfi_def_cfa_offset 16
	.cfi_offset 3, -16
	movq	%rdi, %rbx
	call	_ZN5boost16exception_detail39current_exception_std_exception_wrapperISt11range_errorED1Ev
	movq	%rbx, %rdi
	movl	$56, %esi
	popq	%rbx
	.cfi_def_cfa_offset 8
	jmp	_ZdlPvm
	.cfi_endproc
.LFE12032:
	.size	_ZN5boost16exception_detail39current_exception_std_exception_wrapperISt11range_errorED0Ev, .-_ZN5boost16exception_detail39current_exception_std_exception_wrapperISt11range_errorED0Ev
	.section	.text._ZN5boost16exception_detail10clone_implINS0_39current_exception_std_exception_wrapperISt11range_errorEEED1Ev,"axG",@progbits,_ZN5boost16exception_detail10clone_implINS0_39current_exception_std_exception_wrapperISt11range_errorEEED1Ev,comdat
	.align 2
	.p2align 4,,15
	.weak	_ZN5boost16exception_detail10clone_implINS0_39current_exception_std_exception_wrapperISt11range_errorEEED1Ev
	.type	_ZN5boost16exception_detail10clone_implINS0_39current_exception_std_exception_wrapperISt11range_errorEEED1Ev, @function
_ZN5boost16exception_detail10clone_implINS0_39current_exception_std_exception_wrapperISt11range_errorEEED1Ev:
.LFB12745:
	.cfi_startproc
	movq	$_ZTVN5boost16exception_detail10clone_implINS0_39current_exception_std_exception_wrapperISt11range_errorEEEE+24, (%rdi)
	movq	$_ZTVN5boost16exception_detail10clone_implINS0_39current_exception_std_exception_wrapperISt11range_errorEEEE+80, 16(%rdi)
	movq	$_ZTVN5boost16exception_detail10clone_implINS0_39current_exception_std_exception_wrapperISt11range_errorEEEE+136, 56(%rdi)
	jmp	_ZN5boost16exception_detail39current_exception_std_exception_wrapperISt11range_errorED2Ev
	.cfi_endproc
.LFE12745:
	.size	_ZN5boost16exception_detail10clone_implINS0_39current_exception_std_exception_wrapperISt11range_errorEEED1Ev, .-_ZN5boost16exception_detail10clone_implINS0_39current_exception_std_exception_wrapperISt11range_errorEEED1Ev
	.section	.text._ZN5boost16exception_detail10clone_implINS0_39current_exception_std_exception_wrapperISt11range_errorEEED0Ev,"axG",@progbits,_ZN5boost16exception_detail10clone_implINS0_39current_exception_std_exception_wrapperISt11range_errorEEED0Ev,comdat
	.align 2
	.p2align 4,,15
	.weak	_ZN5boost16exception_detail10clone_implINS0_39current_exception_std_exception_wrapperISt11range_errorEEED0Ev
	.type	_ZN5boost16exception_detail10clone_implINS0_39current_exception_std_exception_wrapperISt11range_errorEEED0Ev, @function
_ZN5boost16exception_detail10clone_implINS0_39current_exception_std_exception_wrapperISt11range_errorEEED0Ev:
.LFB12746:
	.cfi_startproc
	pushq	%rbx
	.cfi_def_cfa_offset 16
	.cfi_offset 3, -16
	movq	%rdi, %rbx
	movq	$_ZTVN5boost16exception_detail10clone_implINS0_39current_exception_std_exception_wrapperISt11range_errorEEEE+24, (%rdi)
	movq	$_ZTVN5boost16exception_detail10clone_implINS0_39current_exception_std_exception_wrapperISt11range_errorEEEE+80, 16(%rdi)
	movq	$_ZTVN5boost16exception_detail10clone_implINS0_39current_exception_std_exception_wrapperISt11range_errorEEEE+136, 56(%rdi)
	call	_ZN5boost16exception_detail39current_exception_std_exception_wrapperISt11range_errorED2Ev
	movq	%rbx, %rdi
	movl	$64, %esi
	popq	%rbx
	.cfi_def_cfa_offset 8
	jmp	_ZdlPvm
	.cfi_endproc
.LFE12746:
	.size	_ZN5boost16exception_detail10clone_implINS0_39current_exception_std_exception_wrapperISt11range_errorEEED0Ev, .-_ZN5boost16exception_detail10clone_implINS0_39current_exception_std_exception_wrapperISt11range_errorEEED0Ev
	.section	.text._ZN5boost16exception_detail39current_exception_std_exception_wrapperISt12length_errorED2Ev,"axG",@progbits,_ZN5boost16exception_detail39current_exception_std_exception_wrapperISt12length_errorED5Ev,comdat
	.align 2
	.p2align 4,,15
	.weak	_ZN5boost16exception_detail39current_exception_std_exception_wrapperISt12length_errorED2Ev
	.type	_ZN5boost16exception_detail39current_exception_std_exception_wrapperISt12length_errorED2Ev, @function
_ZN5boost16exception_detail39current_exception_std_exception_wrapperISt12length_errorED2Ev:
.LFB11988:
	.cfi_startproc
	.cfi_personality 0x3,__gxx_personality_v0
	.cfi_lsda 0x3,.LLSDA11988
	pushq	%rbx
	.cfi_def_cfa_offset 16
	.cfi_offset 3, -16
	movq	%rdi, %rbx
	movq	$_ZTVN5boost16exception_detail39current_exception_std_exception_wrapperISt12length_errorEE+16, (%rdi)
	movq	$_ZTVN5boost9exceptionE+16, 16(%rdi)
	movq	24(%rdi), %rdi
	testq	%rdi, %rdi
	je	.L366
	movq	(%rdi), %rax
	call	*32(%rax)
.L366:
	movq	%rbx, %rdi
	popq	%rbx
	.cfi_def_cfa_offset 8
	jmp	_ZNSt12length_errorD2Ev
	.cfi_endproc
.LFE11988:
	.section	.gcc_except_table._ZN5boost16exception_detail39current_exception_std_exception_wrapperISt12length_errorED2Ev,"aG",@progbits,_ZN5boost16exception_detail39current_exception_std_exception_wrapperISt12length_errorED5Ev,comdat
.LLSDA11988:
	.byte	0xff
	.byte	0xff
	.byte	0x1
	.uleb128 .LLSDACSE11988-.LLSDACSB11988
.LLSDACSB11988:
.LLSDACSE11988:
	.section	.text._ZN5boost16exception_detail39current_exception_std_exception_wrapperISt12length_errorED2Ev,"axG",@progbits,_ZN5boost16exception_detail39current_exception_std_exception_wrapperISt12length_errorED5Ev,comdat
	.size	_ZN5boost16exception_detail39current_exception_std_exception_wrapperISt12length_errorED2Ev, .-_ZN5boost16exception_detail39current_exception_std_exception_wrapperISt12length_errorED2Ev
	.weak	_ZN5boost16exception_detail39current_exception_std_exception_wrapperISt12length_errorED1Ev
	.set	_ZN5boost16exception_detail39current_exception_std_exception_wrapperISt12length_errorED1Ev,_ZN5boost16exception_detail39current_exception_std_exception_wrapperISt12length_errorED2Ev
	.set	.LTHUNK64,_ZN5boost16exception_detail39current_exception_std_exception_wrapperISt12length_errorED1Ev
	.p2align 4,,15
	.weak	_ZThn16_N5boost16exception_detail39current_exception_std_exception_wrapperISt12length_errorED1Ev
	.type	_ZThn16_N5boost16exception_detail39current_exception_std_exception_wrapperISt12length_errorED1Ev, @function
_ZThn16_N5boost16exception_detail39current_exception_std_exception_wrapperISt12length_errorED1Ev:
.LFB15824:
	.cfi_startproc
	subq	$16, %rdi
	jmp	.LTHUNK64
	.cfi_endproc
.LFE15824:
	.size	_ZThn16_N5boost16exception_detail39current_exception_std_exception_wrapperISt12length_errorED1Ev, .-_ZThn16_N5boost16exception_detail39current_exception_std_exception_wrapperISt12length_errorED1Ev
	.section	.text._ZN5boost16exception_detail39current_exception_std_exception_wrapperISt12length_errorED0Ev,"axG",@progbits,_ZN5boost16exception_detail39current_exception_std_exception_wrapperISt12length_errorED5Ev,comdat
	.align 2
	.p2align 4,,15
	.weak	_ZN5boost16exception_detail39current_exception_std_exception_wrapperISt12length_errorED0Ev
	.type	_ZN5boost16exception_detail39current_exception_std_exception_wrapperISt12length_errorED0Ev, @function
_ZN5boost16exception_detail39current_exception_std_exception_wrapperISt12length_errorED0Ev:
.LFB11990:
	.cfi_startproc
	pushq	%rbx
	.cfi_def_cfa_offset 16
	.cfi_offset 3, -16
	movq	%rdi, %rbx
	call	_ZN5boost16exception_detail39current_exception_std_exception_wrapperISt12length_errorED1Ev
	movq	%rbx, %rdi
	movl	$56, %esi
	popq	%rbx
	.cfi_def_cfa_offset 8
	jmp	_ZdlPvm
	.cfi_endproc
.LFE11990:
	.size	_ZN5boost16exception_detail39current_exception_std_exception_wrapperISt12length_errorED0Ev, .-_ZN5boost16exception_detail39current_exception_std_exception_wrapperISt12length_errorED0Ev
	.section	.text._ZN5boost16exception_detail10clone_implINS0_39current_exception_std_exception_wrapperISt12length_errorEEED1Ev,"axG",@progbits,_ZN5boost16exception_detail10clone_implINS0_39current_exception_std_exception_wrapperISt12length_errorEEED1Ev,comdat
	.align 2
	.p2align 4,,15
	.weak	_ZN5boost16exception_detail10clone_implINS0_39current_exception_std_exception_wrapperISt12length_errorEEED1Ev
	.type	_ZN5boost16exception_detail10clone_implINS0_39current_exception_std_exception_wrapperISt12length_errorEEED1Ev, @function
_ZN5boost16exception_detail10clone_implINS0_39current_exception_std_exception_wrapperISt12length_errorEEED1Ev:
.LFB12727:
	.cfi_startproc
	movq	$_ZTVN5boost16exception_detail10clone_implINS0_39current_exception_std_exception_wrapperISt12length_errorEEEE+24, (%rdi)
	movq	$_ZTVN5boost16exception_detail10clone_implINS0_39current_exception_std_exception_wrapperISt12length_errorEEEE+80, 16(%rdi)
	movq	$_ZTVN5boost16exception_detail10clone_implINS0_39current_exception_std_exception_wrapperISt12length_errorEEEE+136, 56(%rdi)
	jmp	_ZN5boost16exception_detail39current_exception_std_exception_wrapperISt12length_errorED2Ev
	.cfi_endproc
.LFE12727:
	.size	_ZN5boost16exception_detail10clone_implINS0_39current_exception_std_exception_wrapperISt12length_errorEEED1Ev, .-_ZN5boost16exception_detail10clone_implINS0_39current_exception_std_exception_wrapperISt12length_errorEEED1Ev
	.section	.text._ZN5boost16exception_detail10clone_implINS0_39current_exception_std_exception_wrapperISt12length_errorEEED0Ev,"axG",@progbits,_ZN5boost16exception_detail10clone_implINS0_39current_exception_std_exception_wrapperISt12length_errorEEED0Ev,comdat
	.align 2
	.p2align 4,,15
	.weak	_ZN5boost16exception_detail10clone_implINS0_39current_exception_std_exception_wrapperISt12length_errorEEED0Ev
	.type	_ZN5boost16exception_detail10clone_implINS0_39current_exception_std_exception_wrapperISt12length_errorEEED0Ev, @function
_ZN5boost16exception_detail10clone_implINS0_39current_exception_std_exception_wrapperISt12length_errorEEED0Ev:
.LFB12728:
	.cfi_startproc
	pushq	%rbx
	.cfi_def_cfa_offset 16
	.cfi_offset 3, -16
	movq	%rdi, %rbx
	movq	$_ZTVN5boost16exception_detail10clone_implINS0_39current_exception_std_exception_wrapperISt12length_errorEEEE+24, (%rdi)
	movq	$_ZTVN5boost16exception_detail10clone_implINS0_39current_exception_std_exception_wrapperISt12length_errorEEEE+80, 16(%rdi)
	movq	$_ZTVN5boost16exception_detail10clone_implINS0_39current_exception_std_exception_wrapperISt12length_errorEEEE+136, 56(%rdi)
	call	_ZN5boost16exception_detail39current_exception_std_exception_wrapperISt12length_errorED2Ev
	movq	%rbx, %rdi
	movl	$64, %esi
	popq	%rbx
	.cfi_def_cfa_offset 8
	jmp	_ZdlPvm
	.cfi_endproc
.LFE12728:
	.size	_ZN5boost16exception_detail10clone_implINS0_39current_exception_std_exception_wrapperISt12length_errorEEED0Ev, .-_ZN5boost16exception_detail10clone_implINS0_39current_exception_std_exception_wrapperISt12length_errorEEED0Ev
	.section	.text._ZN5boost16exception_detail39current_exception_std_exception_wrapperISt16invalid_argumentED2Ev,"axG",@progbits,_ZN5boost16exception_detail39current_exception_std_exception_wrapperISt16invalid_argumentED5Ev,comdat
	.align 2
	.p2align 4,,15
	.weak	_ZN5boost16exception_detail39current_exception_std_exception_wrapperISt16invalid_argumentED2Ev
	.type	_ZN5boost16exception_detail39current_exception_std_exception_wrapperISt16invalid_argumentED2Ev, @function
_ZN5boost16exception_detail39current_exception_std_exception_wrapperISt16invalid_argumentED2Ev:
.LFB11973:
	.cfi_startproc
	.cfi_personality 0x3,__gxx_personality_v0
	.cfi_lsda 0x3,.LLSDA11973
	pushq	%rbx
	.cfi_def_cfa_offset 16
	.cfi_offset 3, -16
	movq	%rdi, %rbx
	movq	$_ZTVN5boost16exception_detail39current_exception_std_exception_wrapperISt16invalid_argumentEE+16, (%rdi)
	movq	$_ZTVN5boost9exceptionE+16, 16(%rdi)
	movq	24(%rdi), %rdi
	testq	%rdi, %rdi
	je	.L377
	movq	(%rdi), %rax
	call	*32(%rax)
.L377:
	movq	%rbx, %rdi
	popq	%rbx
	.cfi_def_cfa_offset 8
	jmp	_ZNSt16invalid_argumentD2Ev
	.cfi_endproc
.LFE11973:
	.section	.gcc_except_table._ZN5boost16exception_detail39current_exception_std_exception_wrapperISt16invalid_argumentED2Ev,"aG",@progbits,_ZN5boost16exception_detail39current_exception_std_exception_wrapperISt16invalid_argumentED5Ev,comdat
.LLSDA11973:
	.byte	0xff
	.byte	0xff
	.byte	0x1
	.uleb128 .LLSDACSE11973-.LLSDACSB11973
.LLSDACSB11973:
.LLSDACSE11973:
	.section	.text._ZN5boost16exception_detail39current_exception_std_exception_wrapperISt16invalid_argumentED2Ev,"axG",@progbits,_ZN5boost16exception_detail39current_exception_std_exception_wrapperISt16invalid_argumentED5Ev,comdat
	.size	_ZN5boost16exception_detail39current_exception_std_exception_wrapperISt16invalid_argumentED2Ev, .-_ZN5boost16exception_detail39current_exception_std_exception_wrapperISt16invalid_argumentED2Ev
	.weak	_ZN5boost16exception_detail39current_exception_std_exception_wrapperISt16invalid_argumentED1Ev
	.set	_ZN5boost16exception_detail39current_exception_std_exception_wrapperISt16invalid_argumentED1Ev,_ZN5boost16exception_detail39current_exception_std_exception_wrapperISt16invalid_argumentED2Ev
	.set	.LTHUNK62,_ZN5boost16exception_detail39current_exception_std_exception_wrapperISt16invalid_argumentED1Ev
	.p2align 4,,15
	.weak	_ZThn16_N5boost16exception_detail39current_exception_std_exception_wrapperISt16invalid_argumentED1Ev
	.type	_ZThn16_N5boost16exception_detail39current_exception_std_exception_wrapperISt16invalid_argumentED1Ev, @function
_ZThn16_N5boost16exception_detail39current_exception_std_exception_wrapperISt16invalid_argumentED1Ev:
.LFB15828:
	.cfi_startproc
	subq	$16, %rdi
	jmp	.LTHUNK62
	.cfi_endproc
.LFE15828:
	.size	_ZThn16_N5boost16exception_detail39current_exception_std_exception_wrapperISt16invalid_argumentED1Ev, .-_ZThn16_N5boost16exception_detail39current_exception_std_exception_wrapperISt16invalid_argumentED1Ev
	.section	.text._ZN5boost16exception_detail39current_exception_std_exception_wrapperISt16invalid_argumentED0Ev,"axG",@progbits,_ZN5boost16exception_detail39current_exception_std_exception_wrapperISt16invalid_argumentED5Ev,comdat
	.align 2
	.p2align 4,,15
	.weak	_ZN5boost16exception_detail39current_exception_std_exception_wrapperISt16invalid_argumentED0Ev
	.type	_ZN5boost16exception_detail39current_exception_std_exception_wrapperISt16invalid_argumentED0Ev, @function
_ZN5boost16exception_detail39current_exception_std_exception_wrapperISt16invalid_argumentED0Ev:
.LFB11975:
	.cfi_startproc
	pushq	%rbx
	.cfi_def_cfa_offset 16
	.cfi_offset 3, -16
	movq	%rdi, %rbx
	call	_ZN5boost16exception_detail39current_exception_std_exception_wrapperISt16invalid_argumentED1Ev
	movq	%rbx, %rdi
	movl	$56, %esi
	popq	%rbx
	.cfi_def_cfa_offset 8
	jmp	_ZdlPvm
	.cfi_endproc
.LFE11975:
	.size	_ZN5boost16exception_detail39current_exception_std_exception_wrapperISt16invalid_argumentED0Ev, .-_ZN5boost16exception_detail39current_exception_std_exception_wrapperISt16invalid_argumentED0Ev
	.section	.text._ZN5boost16exception_detail10clone_implINS0_39current_exception_std_exception_wrapperISt16invalid_argumentEEED1Ev,"axG",@progbits,_ZN5boost16exception_detail10clone_implINS0_39current_exception_std_exception_wrapperISt16invalid_argumentEEED1Ev,comdat
	.align 2
	.p2align 4,,15
	.weak	_ZN5boost16exception_detail10clone_implINS0_39current_exception_std_exception_wrapperISt16invalid_argumentEEED1Ev
	.type	_ZN5boost16exception_detail10clone_implINS0_39current_exception_std_exception_wrapperISt16invalid_argumentEEED1Ev, @function
_ZN5boost16exception_detail10clone_implINS0_39current_exception_std_exception_wrapperISt16invalid_argumentEEED1Ev:
.LFB12721:
	.cfi_startproc
	movq	$_ZTVN5boost16exception_detail10clone_implINS0_39current_exception_std_exception_wrapperISt16invalid_argumentEEEE+24, (%rdi)
	movq	$_ZTVN5boost16exception_detail10clone_implINS0_39current_exception_std_exception_wrapperISt16invalid_argumentEEEE+80, 16(%rdi)
	movq	$_ZTVN5boost16exception_detail10clone_implINS0_39current_exception_std_exception_wrapperISt16invalid_argumentEEEE+136, 56(%rdi)
	jmp	_ZN5boost16exception_detail39current_exception_std_exception_wrapperISt16invalid_argumentED2Ev
	.cfi_endproc
.LFE12721:
	.size	_ZN5boost16exception_detail10clone_implINS0_39current_exception_std_exception_wrapperISt16invalid_argumentEEED1Ev, .-_ZN5boost16exception_detail10clone_implINS0_39current_exception_std_exception_wrapperISt16invalid_argumentEEED1Ev
	.section	.text._ZN5boost16exception_detail10clone_implINS0_39current_exception_std_exception_wrapperISt16invalid_argumentEEED0Ev,"axG",@progbits,_ZN5boost16exception_detail10clone_implINS0_39current_exception_std_exception_wrapperISt16invalid_argumentEEED0Ev,comdat
	.align 2
	.p2align 4,,15
	.weak	_ZN5boost16exception_detail10clone_implINS0_39current_exception_std_exception_wrapperISt16invalid_argumentEEED0Ev
	.type	_ZN5boost16exception_detail10clone_implINS0_39current_exception_std_exception_wrapperISt16invalid_argumentEEED0Ev, @function
_ZN5boost16exception_detail10clone_implINS0_39current_exception_std_exception_wrapperISt16invalid_argumentEEED0Ev:
.LFB12722:
	.cfi_startproc
	pushq	%rbx
	.cfi_def_cfa_offset 16
	.cfi_offset 3, -16
	movq	%rdi, %rbx
	movq	$_ZTVN5boost16exception_detail10clone_implINS0_39current_exception_std_exception_wrapperISt16invalid_argumentEEEE+24, (%rdi)
	movq	$_ZTVN5boost16exception_detail10clone_implINS0_39current_exception_std_exception_wrapperISt16invalid_argumentEEEE+80, 16(%rdi)
	movq	$_ZTVN5boost16exception_detail10clone_implINS0_39current_exception_std_exception_wrapperISt16invalid_argumentEEEE+136, 56(%rdi)
	call	_ZN5boost16exception_detail39current_exception_std_exception_wrapperISt16invalid_argumentED2Ev
	movq	%rbx, %rdi
	movl	$64, %esi
	popq	%rbx
	.cfi_def_cfa_offset 8
	jmp	_ZdlPvm
	.cfi_endproc
.LFE12722:
	.size	_ZN5boost16exception_detail10clone_implINS0_39current_exception_std_exception_wrapperISt16invalid_argumentEEED0Ev, .-_ZN5boost16exception_detail10clone_implINS0_39current_exception_std_exception_wrapperISt16invalid_argumentEEED0Ev
	.section	.text._ZN5boost16exception_detail39current_exception_std_exception_wrapperISt12domain_errorED2Ev,"axG",@progbits,_ZN5boost16exception_detail39current_exception_std_exception_wrapperISt12domain_errorED5Ev,comdat
	.align 2
	.p2align 4,,15
	.weak	_ZN5boost16exception_detail39current_exception_std_exception_wrapperISt12domain_errorED2Ev
	.type	_ZN5boost16exception_detail39current_exception_std_exception_wrapperISt12domain_errorED2Ev, @function
_ZN5boost16exception_detail39current_exception_std_exception_wrapperISt12domain_errorED2Ev:
.LFB11958:
	.cfi_startproc
	.cfi_personality 0x3,__gxx_personality_v0
	.cfi_lsda 0x3,.LLSDA11958
	pushq	%rbx
	.cfi_def_cfa_offset 16
	.cfi_offset 3, -16
	movq	%rdi, %rbx
	movq	$_ZTVN5boost16exception_detail39current_exception_std_exception_wrapperISt12domain_errorEE+16, (%rdi)
	movq	$_ZTVN5boost9exceptionE+16, 16(%rdi)
	movq	24(%rdi), %rdi
	testq	%rdi, %rdi
	je	.L388
	movq	(%rdi), %rax
	call	*32(%rax)
.L388:
	movq	%rbx, %rdi
	popq	%rbx
	.cfi_def_cfa_offset 8
	jmp	_ZNSt12domain_errorD2Ev
	.cfi_endproc
.LFE11958:
	.section	.gcc_except_table._ZN5boost16exception_detail39current_exception_std_exception_wrapperISt12domain_errorED2Ev,"aG",@progbits,_ZN5boost16exception_detail39current_exception_std_exception_wrapperISt12domain_errorED5Ev,comdat
.LLSDA11958:
	.byte	0xff
	.byte	0xff
	.byte	0x1
	.uleb128 .LLSDACSE11958-.LLSDACSB11958
.LLSDACSB11958:
.LLSDACSE11958:
	.section	.text._ZN5boost16exception_detail39current_exception_std_exception_wrapperISt12domain_errorED2Ev,"axG",@progbits,_ZN5boost16exception_detail39current_exception_std_exception_wrapperISt12domain_errorED5Ev,comdat
	.size	_ZN5boost16exception_detail39current_exception_std_exception_wrapperISt12domain_errorED2Ev, .-_ZN5boost16exception_detail39current_exception_std_exception_wrapperISt12domain_errorED2Ev
	.weak	_ZN5boost16exception_detail39current_exception_std_exception_wrapperISt12domain_errorED1Ev
	.set	_ZN5boost16exception_detail39current_exception_std_exception_wrapperISt12domain_errorED1Ev,_ZN5boost16exception_detail39current_exception_std_exception_wrapperISt12domain_errorED2Ev
	.set	.LTHUNK60,_ZN5boost16exception_detail39current_exception_std_exception_wrapperISt12domain_errorED1Ev
	.p2align 4,,15
	.weak	_ZThn16_N5boost16exception_detail39current_exception_std_exception_wrapperISt12domain_errorED1Ev
	.type	_ZThn16_N5boost16exception_detail39current_exception_std_exception_wrapperISt12domain_errorED1Ev, @function
_ZThn16_N5boost16exception_detail39current_exception_std_exception_wrapperISt12domain_errorED1Ev:
.LFB15832:
	.cfi_startproc
	subq	$16, %rdi
	jmp	.LTHUNK60
	.cfi_endproc
.LFE15832:
	.size	_ZThn16_N5boost16exception_detail39current_exception_std_exception_wrapperISt12domain_errorED1Ev, .-_ZThn16_N5boost16exception_detail39current_exception_std_exception_wrapperISt12domain_errorED1Ev
	.section	.text._ZN5boost16exception_detail39current_exception_std_exception_wrapperISt12domain_errorED0Ev,"axG",@progbits,_ZN5boost16exception_detail39current_exception_std_exception_wrapperISt12domain_errorED5Ev,comdat
	.align 2
	.p2align 4,,15
	.weak	_ZN5boost16exception_detail39current_exception_std_exception_wrapperISt12domain_errorED0Ev
	.type	_ZN5boost16exception_detail39current_exception_std_exception_wrapperISt12domain_errorED0Ev, @function
_ZN5boost16exception_detail39current_exception_std_exception_wrapperISt12domain_errorED0Ev:
.LFB11960:
	.cfi_startproc
	pushq	%rbx
	.cfi_def_cfa_offset 16
	.cfi_offset 3, -16
	movq	%rdi, %rbx
	call	_ZN5boost16exception_detail39current_exception_std_exception_wrapperISt12domain_errorED1Ev
	movq	%rbx, %rdi
	movl	$56, %esi
	popq	%rbx
	.cfi_def_cfa_offset 8
	jmp	_ZdlPvm
	.cfi_endproc
.LFE11960:
	.size	_ZN5boost16exception_detail39current_exception_std_exception_wrapperISt12domain_errorED0Ev, .-_ZN5boost16exception_detail39current_exception_std_exception_wrapperISt12domain_errorED0Ev
	.section	.text._ZN5boost16exception_detail10clone_implINS0_39current_exception_std_exception_wrapperISt12domain_errorEEED1Ev,"axG",@progbits,_ZN5boost16exception_detail10clone_implINS0_39current_exception_std_exception_wrapperISt12domain_errorEEED1Ev,comdat
	.align 2
	.p2align 4,,15
	.weak	_ZN5boost16exception_detail10clone_implINS0_39current_exception_std_exception_wrapperISt12domain_errorEEED1Ev
	.type	_ZN5boost16exception_detail10clone_implINS0_39current_exception_std_exception_wrapperISt12domain_errorEEED1Ev, @function
_ZN5boost16exception_detail10clone_implINS0_39current_exception_std_exception_wrapperISt12domain_errorEEED1Ev:
.LFB12715:
	.cfi_startproc
	movq	$_ZTVN5boost16exception_detail10clone_implINS0_39current_exception_std_exception_wrapperISt12domain_errorEEEE+24, (%rdi)
	movq	$_ZTVN5boost16exception_detail10clone_implINS0_39current_exception_std_exception_wrapperISt12domain_errorEEEE+80, 16(%rdi)
	movq	$_ZTVN5boost16exception_detail10clone_implINS0_39current_exception_std_exception_wrapperISt12domain_errorEEEE+136, 56(%rdi)
	jmp	_ZN5boost16exception_detail39current_exception_std_exception_wrapperISt12domain_errorED2Ev
	.cfi_endproc
.LFE12715:
	.size	_ZN5boost16exception_detail10clone_implINS0_39current_exception_std_exception_wrapperISt12domain_errorEEED1Ev, .-_ZN5boost16exception_detail10clone_implINS0_39current_exception_std_exception_wrapperISt12domain_errorEEED1Ev
	.section	.text._ZN5boost16exception_detail10clone_implINS0_39current_exception_std_exception_wrapperISt12domain_errorEEED0Ev,"axG",@progbits,_ZN5boost16exception_detail10clone_implINS0_39current_exception_std_exception_wrapperISt12domain_errorEEED0Ev,comdat
	.align 2
	.p2align 4,,15
	.weak	_ZN5boost16exception_detail10clone_implINS0_39current_exception_std_exception_wrapperISt12domain_errorEEED0Ev
	.type	_ZN5boost16exception_detail10clone_implINS0_39current_exception_std_exception_wrapperISt12domain_errorEEED0Ev, @function
_ZN5boost16exception_detail10clone_implINS0_39current_exception_std_exception_wrapperISt12domain_errorEEED0Ev:
.LFB12716:
	.cfi_startproc
	pushq	%rbx
	.cfi_def_cfa_offset 16
	.cfi_offset 3, -16
	movq	%rdi, %rbx
